Archive member included to satisfy reference by file (symbol)

/home/huyong/Public/github/switft/build//libxxyyzz.a(app_shell.o)
                              /home/huyong/Public/github/switft/build/main.o (APP_Shell_Init)
/home/huyong/Public/github/switft/build//libxxyyzz.a(bsp.o)
                              /home/huyong/Public/github/switft/build/main.o (BSP_Init)
/home/huyong/Public/github/switft/build//libxxyyzz.a(bsp_delay.o)
                              /home/huyong/Public/github/switft/build/main.o (BSP_Delay_ms)
/home/huyong/Public/github/switft/build//libxxyyzz.a(bsp_int.o)
                              /home/huyong/Public/github/switft/build/main.o (BSP_IntDisAll)
/home/huyong/Public/github/switft/build//libxxyyzz.a(cli.o)
                              /home/huyong/Public/github/switft/build/main.o (cli_loop)
/home/huyong/Public/github/switft/build//libxxyyzz.a(cli_simple.o)
                              /home/huyong/Public/github/switft/build//libxxyyzz.a(cli.o) (cli_simple_run_command)
/home/huyong/Public/github/switft/build//libxxyyzz.a(cmd_d.o)
                              /home/huyong/Public/github/switft/build//libxxyyzz.a(app_shell.o) (cmd_d_init)
/home/huyong/Public/github/switft/build//libxxyyzz.a(cmd_help.o)
                              /home/huyong/Public/github/switft/build//libxxyyzz.a(app_shell.o) (cmd_help_init)
/home/huyong/Public/github/switft/build//libxxyyzz.a(cmd_m.o)
                              /home/huyong/Public/github/switft/build//libxxyyzz.a(app_shell.o) (cmd_m_init)
/home/huyong/Public/github/switft/build//libxxyyzz.a(cmd_reset.o)
                              /home/huyong/Public/github/switft/build//libxxyyzz.a(app_shell.o) (cmd_reset_init)
/home/huyong/Public/github/switft/build//libxxyyzz.a(cmd_ver.o)
                              /home/huyong/Public/github/switft/build//libxxyyzz.a(app_shell.o) (cmd_ver_init)
/home/huyong/Public/github/switft/build//libxxyyzz.a(command.o)
                              /home/huyong/Public/github/switft/build//libxxyyzz.a(cmd_help.o) (cmd_entry_start)
/home/huyong/Public/github/switft/build//libxxyyzz.a(console.o)
                              /home/huyong/Public/github/switft/build//libxxyyzz.a(cli_simple.o) (cputs)
/home/huyong/Public/github/switft/build//libxxyyzz.a(cpu_a.o)
                              /home/huyong/Public/github/switft/build//libxxyyzz.a(bsp_int.o) (CPU_IntDis)
/home/huyong/Public/github/switft/build//libxxyyzz.a(cpu_c.o)
                              /home/huyong/Public/github/switft/build//libxxyyzz.a(bsp_int.o) (CPU_IntSrcDis)
/home/huyong/Public/github/switft/build//libxxyyzz.a(cpu_core.o)
                              /home/huyong/Public/github/switft/build/main.o (CPU_Init)
/home/huyong/Public/github/switft/build//libxxyyzz.a(hw_beacon.o)
                              /home/huyong/Public/github/switft/build//libxxyyzz.a(app_shell.o) (SWIFT_UART6_Init)
/home/huyong/Public/github/switft/build//libxxyyzz.a(hw_led.o)
                              /home/huyong/Public/github/switft/build//libxxyyzz.a(bsp.o) (HW_LED_Init)
/home/huyong/Public/github/switft/build//libxxyyzz.a(lib_mem.o)
                              /home/huyong/Public/github/switft/build/main.o (Mem_Init)
/home/huyong/Public/github/switft/build//libxxyyzz.a(lib_mem_a.o)
                              /home/huyong/Public/github/switft/build//libxxyyzz.a(lib_mem.o) (Mem_Copy)
/home/huyong/Public/github/switft/build//libxxyyzz.a(lib_str.o)
                              /home/huyong/Public/github/switft/build//libxxyyzz.a(cpu_core.o) (Str_Len_N)
/home/huyong/Public/github/switft/build//libxxyyzz.a(lwip.o)
                              /home/huyong/Public/github/switft/build/main.o (LWIP_Init)
/home/huyong/Public/github/switft/build//libxxyyzz.a(netif.o)
                              /home/huyong/Public/github/switft/build//libxxyyzz.a(lwip.o) (netif_set_addr)
/home/huyong/Public/github/switft/build//libxxyyzz.a(os_cfg_app.o)
                              /home/huyong/Public/github/switft/build//libxxyyzz.a(bsp.o) (OSCfg_TickRate_Hz)
/home/huyong/Public/github/switft/build//libxxyyzz.a(os_core.o)
                              /home/huyong/Public/github/switft/build//libxxyyzz.a(bsp_int.o) (OSIntEnter)
/home/huyong/Public/github/switft/build//libxxyyzz.a(os_cpu_a.o)
                              /home/huyong/Public/github/switft/build//libxxyyzz.a(os_core.o) (OSStartHighRdy)
/home/huyong/Public/github/switft/build//libxxyyzz.a(os_cpu_c.o)
                              /home/huyong/Public/github/switft/build//libxxyyzz.a(os_core.o) (OSIdleTaskHook)
/home/huyong/Public/github/switft/build//libxxyyzz.a(os_dbg.o)
                              /home/huyong/Public/github/switft/build//libxxyyzz.a(os_core.o) (OS_Dbg_Init)
/home/huyong/Public/github/switft/build//libxxyyzz.a(os_flag.o)
                              /home/huyong/Public/github/switft/build//libxxyyzz.a(os_core.o) (OS_FlagInit)
/home/huyong/Public/github/switft/build//libxxyyzz.a(os_mem.o)
                              /home/huyong/Public/github/switft/build//libxxyyzz.a(os_core.o) (OS_MemInit)
/home/huyong/Public/github/switft/build//libxxyyzz.a(os_msg.o)
                              /home/huyong/Public/github/switft/build//libxxyyzz.a(os_core.o) (OS_MsgPoolInit)
/home/huyong/Public/github/switft/build//libxxyyzz.a(os_mutex.o)
                              /home/huyong/Public/github/switft/build//libxxyyzz.a(os_core.o) (OS_MutexInit)
/home/huyong/Public/github/switft/build//libxxyyzz.a(os_prio.o)
                              /home/huyong/Public/github/switft/build//libxxyyzz.a(os_core.o) (OS_PrioInit)
/home/huyong/Public/github/switft/build//libxxyyzz.a(os_q.o)
                              /home/huyong/Public/github/switft/build//libxxyyzz.a(os_core.o) (OS_QInit)
/home/huyong/Public/github/switft/build//libxxyyzz.a(os_sem.o)
                              /home/huyong/Public/github/switft/build//libxxyyzz.a(os_core.o) (OS_SemInit)
/home/huyong/Public/github/switft/build//libxxyyzz.a(os_stat.o)
                              /home/huyong/Public/github/switft/build//libxxyyzz.a(os_core.o) (OS_StatTaskInit)
/home/huyong/Public/github/switft/build//libxxyyzz.a(os_task.o)
                              /home/huyong/Public/github/switft/build//libxxyyzz.a(os_stat.o) (OSTaskStkChk)
/home/huyong/Public/github/switft/build//libxxyyzz.a(os_tick.o)
                              /home/huyong/Public/github/switft/build//libxxyyzz.a(os_core.o) (OS_TickTaskInit)
/home/huyong/Public/github/switft/build//libxxyyzz.a(os_time.o)
                              /home/huyong/Public/github/switft/build//libxxyyzz.a(os_stat.o) (OSTimeDly)
/home/huyong/Public/github/switft/build//libxxyyzz.a(os_tmr.o)
                              /home/huyong/Public/github/switft/build//libxxyyzz.a(os_core.o) (OS_TmrInit)
/home/huyong/Public/github/switft/build//libxxyyzz.a(os_var.o)
                              /home/huyong/Public/github/switft/build//libxxyyzz.a(os_core.o) (OSTCBHighRdyPtr)
/home/huyong/Public/github/switft/build//libxxyyzz.a(stm32f2xx_exti.o)
                              /home/huyong/Public/github/switft/build//libxxyyzz.a(bsp_int.o) (EXTI_GetFlagStatus)
/home/huyong/Public/github/switft/build//libxxyyzz.a(stm32f2xx_fsmc.o)
                              /home/huyong/Public/github/switft/build//libxxyyzz.a(bsp.o) (FSMC_NORSRAMInit)
/home/huyong/Public/github/switft/build//libxxyyzz.a(stm32f2xx_gpio.o)
                              /home/huyong/Public/github/switft/build//libxxyyzz.a(bsp.o) (GPIO_Init)
/home/huyong/Public/github/switft/build//libxxyyzz.a(stm32f2xx_rcc.o)
                              /home/huyong/Public/github/switft/build//libxxyyzz.a(bsp.o) (RCC_GetClocksFreq)
/home/huyong/Public/github/switft/build//libxxyyzz.a(stm32f2xx_usart.o)
                              /home/huyong/Public/github/switft/build//libxxyyzz.a(hw_beacon.o) (USART_ReceiveData)
/home/huyong/Public/github/switft/build//libxxyyzz.a(tcp.o)
                              /home/huyong/Public/github/switft/build//libxxyyzz.a(netif.o) (tcp_listen_pcbs)
/home/huyong/Public/github/switft/build//libxxyyzz.a(tcp_out.o)
                              /home/huyong/Public/github/switft/build//libxxyyzz.a(tcp.o) (tcp_enqueue_flags)
/home/huyong/Public/github/switft/build//libxxyyzz.a(tcpip.o)
                              /home/huyong/Public/github/switft/build//libxxyyzz.a(lwip.o) (tcpip_input)
/home/huyong/Public/github/switft/build//libxxyyzz.a(timers.o)
                              /home/huyong/Public/github/switft/build//libxxyyzz.a(tcpip.o) (sys_timeout)
/home/huyong/Public/github/switft/build//libxxyyzz.a(udpecho.o)
                              /home/huyong/Public/github/switft/build/main.o (udpecho_init)
/home/huyong/Public/github/switft/build//libxxyyzz.a(api_lib.o)
                              /home/huyong/Public/github/switft/build//libxxyyzz.a(udpecho.o) (netconn_new_with_proto_and_callback)
/home/huyong/Public/github/switft/build//libxxyyzz.a(api_msg.o)
                              /home/huyong/Public/github/switft/build//libxxyyzz.a(api_lib.o) (do_newconn)
/home/huyong/Public/github/switft/build//libxxyyzz.a(bsp_eth.o)
                              /home/huyong/Public/github/switft/build//libxxyyzz.a(lwip.o) (BSP_ETH_IsRxPktValid)
/home/huyong/Public/github/switft/build//libxxyyzz.a(bsp_gpio.o)
                              /home/huyong/Public/github/switft/build//libxxyyzz.a(hw_led.o) (BSP_GPIO_Init)
/home/huyong/Public/github/switft/build//libxxyyzz.a(bsp_os.o)
                              /home/huyong/Public/github/switft/build//libxxyyzz.a(hw_beacon.o) (BSP_OS_Sem_Creat)
/home/huyong/Public/github/switft/build//libxxyyzz.a(bsp_uart.o)
                              /home/huyong/Public/github/switft/build//libxxyyzz.a(hw_beacon.o) (BSP_UART_Init)
/home/huyong/Public/github/switft/build//libxxyyzz.a(cli_readline.o)
                              /home/huyong/Public/github/switft/build//libxxyyzz.a(cli_simple.o) (console_buffer)
/home/huyong/Public/github/switft/build//libxxyyzz.a(def.o)
                              /home/huyong/Public/github/switft/build//libxxyyzz.a(tcp_out.o) (lwip_htons)
/home/huyong/Public/github/switft/build//libxxyyzz.a(etharp.o)
                              /home/huyong/Public/github/switft/build//libxxyyzz.a(timers.o) (etharp_tmr)
/home/huyong/Public/github/switft/build//libxxyyzz.a(ethernetif.o)
                              /home/huyong/Public/github/switft/build//libxxyyzz.a(lwip.o) (ethernetif_input)
/home/huyong/Public/github/switft/build//libxxyyzz.a(inet_chksum.o)
                              /home/huyong/Public/github/switft/build//libxxyyzz.a(tcp_out.o) (inet_chksum_pseudo)
/home/huyong/Public/github/switft/build//libxxyyzz.a(init.o)
                              /home/huyong/Public/github/switft/build//libxxyyzz.a(tcpip.o) (lwip_init)
/home/huyong/Public/github/switft/build//libxxyyzz.a(ip.o)
                              /home/huyong/Public/github/switft/build//libxxyyzz.a(tcp.o) (ip_route)
/home/huyong/Public/github/switft/build//libxxyyzz.a(ip_addr.o)
                              /home/huyong/Public/github/switft/build//libxxyyzz.a(etharp.o) (ip4_addr_isbroadcast)
/home/huyong/Public/github/switft/build//libxxyyzz.a(ip_frag.o)
                              /home/huyong/Public/github/switft/build//libxxyyzz.a(timers.o) (ip_reass_tmr)
/home/huyong/Public/github/switft/build//libxxyyzz.a(lib_ascii.o)
                              /home/huyong/Public/github/switft/build//libxxyyzz.a(lib_str.o) (ASCII_IsAlphaNum)
/home/huyong/Public/github/switft/build//libxxyyzz.a(mem.o)
                              /home/huyong/Public/github/switft/build//libxxyyzz.a(init.o) (mem_init)
/home/huyong/Public/github/switft/build//libxxyyzz.a(memp.o)
                              /home/huyong/Public/github/switft/build//libxxyyzz.a(init.o) (memp_init)
/home/huyong/Public/github/switft/build//libxxyyzz.a(netbuf.o)
                              /home/huyong/Public/github/switft/build//libxxyyzz.a(udpecho.o) (netbuf_delete)
/home/huyong/Public/github/switft/build//libxxyyzz.a(pbuf.o)
                              /home/huyong/Public/github/switft/build//libxxyyzz.a(tcp_out.o) (pbuf_header)
/home/huyong/Public/github/switft/build//libxxyyzz.a(raw.o)
                              /home/huyong/Public/github/switft/build//libxxyyzz.a(ip.o) (raw_input)
/home/huyong/Public/github/switft/build//libxxyyzz.a(sockets.o)
                              /home/huyong/Public/github/switft/build//libxxyyzz.a(init.o) (lwip_socket_init)
/home/huyong/Public/github/switft/build//libxxyyzz.a(stm32f2x7_eth.o)
                              /home/huyong/Public/github/switft/build//libxxyyzz.a(bsp_eth.o) (ETH_DeInit)
/home/huyong/Public/github/switft/build//libxxyyzz.a(stm32f2xx_syscfg.o)
                              /home/huyong/Public/github/switft/build//libxxyyzz.a(bsp_eth.o) (SYSCFG_EXTILineConfig)
/home/huyong/Public/github/switft/build//libxxyyzz.a(sys_arch.o)
                              /home/huyong/Public/github/switft/build//libxxyyzz.a(tcpip.o) (sys_mbox_new)
/home/huyong/Public/github/switft/build//libxxyyzz.a(tcp_in.o)
                              /home/huyong/Public/github/switft/build//libxxyyzz.a(ip.o) (tcp_input)
/home/huyong/Public/github/switft/build//libxxyyzz.a(udp.o)
                              /home/huyong/Public/github/switft/build//libxxyyzz.a(init.o) (udp_init)
/home/huyong/Public/github/switft/build//libxxyyzz.a(app_tool.o)
                              /home/huyong/Public/github/switft/build//libxxyyzz.a(ethernetif.o) (TOOL_GetCPI_ID)
/home/huyong/Public/github/switft/build//libxxyyzz.a(icmp.o)
                              /home/huyong/Public/github/switft/build//libxxyyzz.a(ip.o) (icmp_input)
/opt/gcc-arm-none-eabi-5_4-2016q3/bin/../lib/gcc/arm-none-eabi/5.4.1/../../../../arm-none-eabi/lib/armv7-m/libg_nano.a(lib_a-exit.o)
                              /opt/gcc-arm-none-eabi-5_4-2016q3/bin/../lib/gcc/arm-none-eabi/5.4.1/../../../../arm-none-eabi/lib/armv7-m/crt0.o (exit)
/opt/gcc-arm-none-eabi-5_4-2016q3/bin/../lib/gcc/arm-none-eabi/5.4.1/../../../../arm-none-eabi/lib/armv7-m/libg_nano.a(lib_a-impure.o)
                              /opt/gcc-arm-none-eabi-5_4-2016q3/bin/../lib/gcc/arm-none-eabi/5.4.1/../../../../arm-none-eabi/lib/armv7-m/libg_nano.a(lib_a-exit.o) (_global_impure_ptr)
/opt/gcc-arm-none-eabi-5_4-2016q3/bin/../lib/gcc/arm-none-eabi/5.4.1/../../../../arm-none-eabi/lib/armv7-m/libg_nano.a(lib_a-init.o)
                              /opt/gcc-arm-none-eabi-5_4-2016q3/bin/../lib/gcc/arm-none-eabi/5.4.1/../../../../arm-none-eabi/lib/armv7-m/crt0.o (__libc_init_array)
/opt/gcc-arm-none-eabi-5_4-2016q3/bin/../lib/gcc/arm-none-eabi/5.4.1/../../../../arm-none-eabi/lib/armv7-m/libg_nano.a(lib_a-isblank.o)
                              /home/huyong/Public/github/switft/build//libxxyyzz.a(cli_simple.o) (isblank)
/opt/gcc-arm-none-eabi-5_4-2016q3/bin/../lib/gcc/arm-none-eabi/5.4.1/../../../../arm-none-eabi/lib/armv7-m/libg_nano.a(lib_a-locale.o)
                              /opt/gcc-arm-none-eabi-5_4-2016q3/bin/../lib/gcc/arm-none-eabi/5.4.1/../../../../arm-none-eabi/lib/armv7-m/libg_nano.a(lib_a-isblank.o) (__locale_ctype_ptr)
/opt/gcc-arm-none-eabi-5_4-2016q3/bin/../lib/gcc/arm-none-eabi/5.4.1/../../../../arm-none-eabi/lib/armv7-m/libg_nano.a(lib_a-mbtowc_r.o)
                              /opt/gcc-arm-none-eabi-5_4-2016q3/bin/../lib/gcc/arm-none-eabi/5.4.1/../../../../arm-none-eabi/lib/armv7-m/libg_nano.a(lib_a-locale.o) (__ascii_mbtowc)
/opt/gcc-arm-none-eabi-5_4-2016q3/bin/../lib/gcc/arm-none-eabi/5.4.1/../../../../arm-none-eabi/lib/armv7-m/libg_nano.a(lib_a-memcmp.o)
                              /home/huyong/Public/github/switft/build//libxxyyzz.a(etharp.o) (memcmp)
/opt/gcc-arm-none-eabi-5_4-2016q3/bin/../lib/gcc/arm-none-eabi/5.4.1/../../../../arm-none-eabi/lib/armv7-m/libg_nano.a(lib_a-memcpy-stub.o)
                              /home/huyong/Public/github/switft/build//libxxyyzz.a(hw_beacon.o) (memcpy)
/opt/gcc-arm-none-eabi-5_4-2016q3/bin/../lib/gcc/arm-none-eabi/5.4.1/../../../../arm-none-eabi/lib/armv7-m/libg_nano.a(lib_a-memset.o)
                              /opt/gcc-arm-none-eabi-5_4-2016q3/bin/../lib/gcc/arm-none-eabi/5.4.1/../../../../arm-none-eabi/lib/armv7-m/crt0.o (memset)
/opt/gcc-arm-none-eabi-5_4-2016q3/bin/../lib/gcc/arm-none-eabi/5.4.1/../../../../arm-none-eabi/lib/armv7-m/libg_nano.a(lib_a-printf.o)
                              /home/huyong/Public/github/switft/build//libxxyyzz.a(cli_simple.o) (printf)
/opt/gcc-arm-none-eabi-5_4-2016q3/bin/../lib/gcc/arm-none-eabi/5.4.1/../../../../arm-none-eabi/lib/armv7-m/libg_nano.a(lib_a-putc.o)
                              /home/huyong/Public/github/switft/build//libxxyyzz.a(command.o) (putc)
/opt/gcc-arm-none-eabi-5_4-2016q3/bin/../lib/gcc/arm-none-eabi/5.4.1/../../../../arm-none-eabi/lib/armv7-m/libg_nano.a(lib_a-puts.o)
                              /home/huyong/Public/github/switft/build//libxxyyzz.a(cli_simple.o) (puts)
/opt/gcc-arm-none-eabi-5_4-2016q3/bin/../lib/gcc/arm-none-eabi/5.4.1/../../../../arm-none-eabi/lib/armv7-m/libg_nano.a(lib_a-strcmp.o)
                              /home/huyong/Public/github/switft/build//libxxyyzz.a(command.o) (strcmp)
/opt/gcc-arm-none-eabi-5_4-2016q3/bin/../lib/gcc/arm-none-eabi/5.4.1/../../../../arm-none-eabi/lib/armv7-m/libg_nano.a(lib_a-strcpy.o)
                              /home/huyong/Public/github/switft/build//libxxyyzz.a(cli_simple.o) (strcpy)
/opt/gcc-arm-none-eabi-5_4-2016q3/bin/../lib/gcc/arm-none-eabi/5.4.1/../../../../arm-none-eabi/lib/armv7-m/libg_nano.a(lib_a-strlcpy.o)
                              /home/huyong/Public/github/switft/build//libxxyyzz.a(cli_simple.o) (strlcpy)
/opt/gcc-arm-none-eabi-5_4-2016q3/bin/../lib/gcc/arm-none-eabi/5.4.1/../../../../arm-none-eabi/lib/armv7-m/libg_nano.a(lib_a-strlen.o)
                              /home/huyong/Public/github/switft/build//libxxyyzz.a(cli_simple.o) (strlen)
/opt/gcc-arm-none-eabi-5_4-2016q3/bin/../lib/gcc/arm-none-eabi/5.4.1/../../../../arm-none-eabi/lib/armv7-m/libg_nano.a(lib_a-strncmp.o)
                              /home/huyong/Public/github/switft/build//libxxyyzz.a(command.o) (strncmp)
/opt/gcc-arm-none-eabi-5_4-2016q3/bin/../lib/gcc/arm-none-eabi/5.4.1/../../../../arm-none-eabi/lib/armv7-m/libg_nano.a(lib_a-strtoul.o)
                              /home/huyong/Public/github/switft/build//libxxyyzz.a(cmd_d.o) (strtoul)
/opt/gcc-arm-none-eabi-5_4-2016q3/bin/../lib/gcc/arm-none-eabi/5.4.1/../../../../arm-none-eabi/lib/armv7-m/libg_nano.a(lib_a-wbuf.o)
                              /opt/gcc-arm-none-eabi-5_4-2016q3/bin/../lib/gcc/arm-none-eabi/5.4.1/../../../../arm-none-eabi/lib/armv7-m/libg_nano.a(lib_a-putc.o) (__swbuf_r)
/opt/gcc-arm-none-eabi-5_4-2016q3/bin/../lib/gcc/arm-none-eabi/5.4.1/../../../../arm-none-eabi/lib/armv7-m/libg_nano.a(lib_a-wctomb_r.o)
                              /opt/gcc-arm-none-eabi-5_4-2016q3/bin/../lib/gcc/arm-none-eabi/5.4.1/../../../../arm-none-eabi/lib/armv7-m/libg_nano.a(lib_a-locale.o) (__ascii_wctomb)
/opt/gcc-arm-none-eabi-5_4-2016q3/bin/../lib/gcc/arm-none-eabi/5.4.1/../../../../arm-none-eabi/lib/armv7-m/libg_nano.a(lib_a-wsetup.o)
                              /opt/gcc-arm-none-eabi-5_4-2016q3/bin/../lib/gcc/arm-none-eabi/5.4.1/../../../../arm-none-eabi/lib/armv7-m/libg_nano.a(lib_a-puts.o) (__swsetup_r)
/opt/gcc-arm-none-eabi-5_4-2016q3/bin/../lib/gcc/arm-none-eabi/5.4.1/../../../../arm-none-eabi/lib/armv7-m/libg_nano.a(lib_a-ctype_.o)
                              /opt/gcc-arm-none-eabi-5_4-2016q3/bin/../lib/gcc/arm-none-eabi/5.4.1/../../../../arm-none-eabi/lib/armv7-m/libg_nano.a(lib_a-locale.o) (_ctype_)
/opt/gcc-arm-none-eabi-5_4-2016q3/bin/../lib/gcc/arm-none-eabi/5.4.1/../../../../arm-none-eabi/lib/armv7-m/libg_nano.a(lib_a-fflush.o)
                              /opt/gcc-arm-none-eabi-5_4-2016q3/bin/../lib/gcc/arm-none-eabi/5.4.1/../../../../arm-none-eabi/lib/armv7-m/libg_nano.a(lib_a-wbuf.o) (_fflush_r)
/opt/gcc-arm-none-eabi-5_4-2016q3/bin/../lib/gcc/arm-none-eabi/5.4.1/../../../../arm-none-eabi/lib/armv7-m/libg_nano.a(lib_a-findfp.o)
                              /opt/gcc-arm-none-eabi-5_4-2016q3/bin/../lib/gcc/arm-none-eabi/5.4.1/../../../../arm-none-eabi/lib/armv7-m/libg_nano.a(lib_a-printf.o) (__sinit)
/opt/gcc-arm-none-eabi-5_4-2016q3/bin/../lib/gcc/arm-none-eabi/5.4.1/../../../../arm-none-eabi/lib/armv7-m/libg_nano.a(lib_a-fwalk.o)
                              /opt/gcc-arm-none-eabi-5_4-2016q3/bin/../lib/gcc/arm-none-eabi/5.4.1/../../../../arm-none-eabi/lib/armv7-m/libg_nano.a(lib_a-findfp.o) (_fwalk)
/opt/gcc-arm-none-eabi-5_4-2016q3/bin/../lib/gcc/arm-none-eabi/5.4.1/../../../../arm-none-eabi/lib/armv7-m/libg_nano.a(lib_a-makebuf.o)
                              /opt/gcc-arm-none-eabi-5_4-2016q3/bin/../lib/gcc/arm-none-eabi/5.4.1/../../../../arm-none-eabi/lib/armv7-m/libg_nano.a(lib_a-wsetup.o) (__smakebuf_r)
/opt/gcc-arm-none-eabi-5_4-2016q3/bin/../lib/gcc/arm-none-eabi/5.4.1/../../../../arm-none-eabi/lib/armv7-m/libg_nano.a(lib_a-nano-freer.o)
                              /opt/gcc-arm-none-eabi-5_4-2016q3/bin/../lib/gcc/arm-none-eabi/5.4.1/../../../../arm-none-eabi/lib/armv7-m/libg_nano.a(lib_a-wsetup.o) (_free_r)
/opt/gcc-arm-none-eabi-5_4-2016q3/bin/../lib/gcc/arm-none-eabi/5.4.1/../../../../arm-none-eabi/lib/armv7-m/libg_nano.a(lib_a-nano-mallocr.o)
                              /opt/gcc-arm-none-eabi-5_4-2016q3/bin/../lib/gcc/arm-none-eabi/5.4.1/../../../../arm-none-eabi/lib/armv7-m/libg_nano.a(lib_a-findfp.o) (_malloc_r)
/opt/gcc-arm-none-eabi-5_4-2016q3/bin/../lib/gcc/arm-none-eabi/5.4.1/../../../../arm-none-eabi/lib/armv7-m/libg_nano.a(lib_a-nano-vfprintf.o)
                              /opt/gcc-arm-none-eabi-5_4-2016q3/bin/../lib/gcc/arm-none-eabi/5.4.1/../../../../arm-none-eabi/lib/armv7-m/libg_nano.a(lib_a-printf.o) (_vfprintf_r)
/opt/gcc-arm-none-eabi-5_4-2016q3/bin/../lib/gcc/arm-none-eabi/5.4.1/../../../../arm-none-eabi/lib/armv7-m/libg_nano.a(lib_a-nano-vfprintf_i.o)
                              /opt/gcc-arm-none-eabi-5_4-2016q3/bin/../lib/gcc/arm-none-eabi/5.4.1/../../../../arm-none-eabi/lib/armv7-m/libg_nano.a(lib_a-nano-vfprintf.o) (_printf_i)
/opt/gcc-arm-none-eabi-5_4-2016q3/bin/../lib/gcc/arm-none-eabi/5.4.1/../../../../arm-none-eabi/lib/armv7-m/libg_nano.a(lib_a-sbrkr.o)
                              /opt/gcc-arm-none-eabi-5_4-2016q3/bin/../lib/gcc/arm-none-eabi/5.4.1/../../../../arm-none-eabi/lib/armv7-m/libg_nano.a(lib_a-nano-mallocr.o) (_sbrk_r)
/opt/gcc-arm-none-eabi-5_4-2016q3/bin/../lib/gcc/arm-none-eabi/5.4.1/../../../../arm-none-eabi/lib/armv7-m/libg_nano.a(lib_a-stdio.o)
                              /opt/gcc-arm-none-eabi-5_4-2016q3/bin/../lib/gcc/arm-none-eabi/5.4.1/../../../../arm-none-eabi/lib/armv7-m/libg_nano.a(lib_a-findfp.o) (__sread)
/opt/gcc-arm-none-eabi-5_4-2016q3/bin/../lib/gcc/arm-none-eabi/5.4.1/../../../../arm-none-eabi/lib/armv7-m/libg_nano.a(lib_a-writer.o)
                              /opt/gcc-arm-none-eabi-5_4-2016q3/bin/../lib/gcc/arm-none-eabi/5.4.1/../../../../arm-none-eabi/lib/armv7-m/libg_nano.a(lib_a-stdio.o) (_write_r)
/opt/gcc-arm-none-eabi-5_4-2016q3/bin/../lib/gcc/arm-none-eabi/5.4.1/../../../../arm-none-eabi/lib/armv7-m/libg_nano.a(lib_a-closer.o)
                              /opt/gcc-arm-none-eabi-5_4-2016q3/bin/../lib/gcc/arm-none-eabi/5.4.1/../../../../arm-none-eabi/lib/armv7-m/libg_nano.a(lib_a-stdio.o) (_close_r)
/opt/gcc-arm-none-eabi-5_4-2016q3/bin/../lib/gcc/arm-none-eabi/5.4.1/../../../../arm-none-eabi/lib/armv7-m/libg_nano.a(lib_a-fstatr.o)
                              /opt/gcc-arm-none-eabi-5_4-2016q3/bin/../lib/gcc/arm-none-eabi/5.4.1/../../../../arm-none-eabi/lib/armv7-m/libg_nano.a(lib_a-makebuf.o) (_fstat_r)
/opt/gcc-arm-none-eabi-5_4-2016q3/bin/../lib/gcc/arm-none-eabi/5.4.1/../../../../arm-none-eabi/lib/armv7-m/libg_nano.a(lib_a-fvwrite.o)
                              /opt/gcc-arm-none-eabi-5_4-2016q3/bin/../lib/gcc/arm-none-eabi/5.4.1/../../../../arm-none-eabi/lib/armv7-m/libg_nano.a(lib_a-nano-vfprintf.o) (__sfvwrite_r)
/opt/gcc-arm-none-eabi-5_4-2016q3/bin/../lib/gcc/arm-none-eabi/5.4.1/../../../../arm-none-eabi/lib/armv7-m/libg_nano.a(lib_a-isattyr.o)
                              /opt/gcc-arm-none-eabi-5_4-2016q3/bin/../lib/gcc/arm-none-eabi/5.4.1/../../../../arm-none-eabi/lib/armv7-m/libg_nano.a(lib_a-makebuf.o) (_isatty_r)
/opt/gcc-arm-none-eabi-5_4-2016q3/bin/../lib/gcc/arm-none-eabi/5.4.1/../../../../arm-none-eabi/lib/armv7-m/libg_nano.a(lib_a-lseekr.o)
                              /opt/gcc-arm-none-eabi-5_4-2016q3/bin/../lib/gcc/arm-none-eabi/5.4.1/../../../../arm-none-eabi/lib/armv7-m/libg_nano.a(lib_a-stdio.o) (_lseek_r)
/opt/gcc-arm-none-eabi-5_4-2016q3/bin/../lib/gcc/arm-none-eabi/5.4.1/../../../../arm-none-eabi/lib/armv7-m/libg_nano.a(lib_a-memchr-stub.o)
                              /opt/gcc-arm-none-eabi-5_4-2016q3/bin/../lib/gcc/arm-none-eabi/5.4.1/../../../../arm-none-eabi/lib/armv7-m/libg_nano.a(lib_a-nano-vfprintf.o) (memchr)
/opt/gcc-arm-none-eabi-5_4-2016q3/bin/../lib/gcc/arm-none-eabi/5.4.1/../../../../arm-none-eabi/lib/armv7-m/libg_nano.a(lib_a-memmove.o)
                              /opt/gcc-arm-none-eabi-5_4-2016q3/bin/../lib/gcc/arm-none-eabi/5.4.1/../../../../arm-none-eabi/lib/armv7-m/libg_nano.a(lib_a-fvwrite.o) (memmove)
/opt/gcc-arm-none-eabi-5_4-2016q3/bin/../lib/gcc/arm-none-eabi/5.4.1/../../../../arm-none-eabi/lib/armv7-m/libg_nano.a(lib_a-mlock.o)
                              /opt/gcc-arm-none-eabi-5_4-2016q3/bin/../lib/gcc/arm-none-eabi/5.4.1/../../../../arm-none-eabi/lib/armv7-m/libg_nano.a(lib_a-nano-freer.o) (__malloc_lock)
/opt/gcc-arm-none-eabi-5_4-2016q3/bin/../lib/gcc/arm-none-eabi/5.4.1/../../../../arm-none-eabi/lib/armv7-m/libg_nano.a(lib_a-nano-reallocr.o)
                              /opt/gcc-arm-none-eabi-5_4-2016q3/bin/../lib/gcc/arm-none-eabi/5.4.1/../../../../arm-none-eabi/lib/armv7-m/libg_nano.a(lib_a-fvwrite.o) (_realloc_r)
/opt/gcc-arm-none-eabi-5_4-2016q3/bin/../lib/gcc/arm-none-eabi/5.4.1/../../../../arm-none-eabi/lib/armv7-m/libg_nano.a(lib_a-readr.o)
                              /opt/gcc-arm-none-eabi-5_4-2016q3/bin/../lib/gcc/arm-none-eabi/5.4.1/../../../../arm-none-eabi/lib/armv7-m/libg_nano.a(lib_a-stdio.o) (_read_r)
/opt/gcc-arm-none-eabi-5_4-2016q3/bin/../lib/gcc/arm-none-eabi/5.4.1/../../../../arm-none-eabi/lib/armv7-m/libg_nano.a(lib_a-reent.o)
                              /opt/gcc-arm-none-eabi-5_4-2016q3/bin/../lib/gcc/arm-none-eabi/5.4.1/../../../../arm-none-eabi/lib/armv7-m/libg_nano.a(lib_a-sbrkr.o) (errno)
/opt/gcc-arm-none-eabi-5_4-2016q3/bin/../lib/gcc/arm-none-eabi/5.4.1/../../../../arm-none-eabi/lib/armv7-m/libg_nano.a(lib_a-nano-msizer.o)
                              /opt/gcc-arm-none-eabi-5_4-2016q3/bin/../lib/gcc/arm-none-eabi/5.4.1/../../../../arm-none-eabi/lib/armv7-m/libg_nano.a(lib_a-nano-reallocr.o) (_malloc_usable_size_r)
/opt/gcc-arm-none-eabi-5_4-2016q3/bin/../lib/gcc/arm-none-eabi/5.4.1/../../../../arm-none-eabi/lib/armv7-m/libnosys.a(close.o)
                              /opt/gcc-arm-none-eabi-5_4-2016q3/bin/../lib/gcc/arm-none-eabi/5.4.1/../../../../arm-none-eabi/lib/armv7-m/libg_nano.a(lib_a-closer.o) (_close)
/opt/gcc-arm-none-eabi-5_4-2016q3/bin/../lib/gcc/arm-none-eabi/5.4.1/../../../../arm-none-eabi/lib/armv7-m/libnosys.a(fstat.o)
                              /opt/gcc-arm-none-eabi-5_4-2016q3/bin/../lib/gcc/arm-none-eabi/5.4.1/../../../../arm-none-eabi/lib/armv7-m/libg_nano.a(lib_a-fstatr.o) (_fstat)
/opt/gcc-arm-none-eabi-5_4-2016q3/bin/../lib/gcc/arm-none-eabi/5.4.1/../../../../arm-none-eabi/lib/armv7-m/libnosys.a(isatty.o)
                              /opt/gcc-arm-none-eabi-5_4-2016q3/bin/../lib/gcc/arm-none-eabi/5.4.1/../../../../arm-none-eabi/lib/armv7-m/libg_nano.a(lib_a-isattyr.o) (_isatty)
/opt/gcc-arm-none-eabi-5_4-2016q3/bin/../lib/gcc/arm-none-eabi/5.4.1/../../../../arm-none-eabi/lib/armv7-m/libnosys.a(lseek.o)
                              /opt/gcc-arm-none-eabi-5_4-2016q3/bin/../lib/gcc/arm-none-eabi/5.4.1/../../../../arm-none-eabi/lib/armv7-m/libg_nano.a(lib_a-lseekr.o) (_lseek)
/opt/gcc-arm-none-eabi-5_4-2016q3/bin/../lib/gcc/arm-none-eabi/5.4.1/../../../../arm-none-eabi/lib/armv7-m/libnosys.a(read.o)
                              /opt/gcc-arm-none-eabi-5_4-2016q3/bin/../lib/gcc/arm-none-eabi/5.4.1/../../../../arm-none-eabi/lib/armv7-m/libg_nano.a(lib_a-readr.o) (_read)
/opt/gcc-arm-none-eabi-5_4-2016q3/bin/../lib/gcc/arm-none-eabi/5.4.1/../../../../arm-none-eabi/lib/armv7-m/libnosys.a(sbrk.o)
                              /opt/gcc-arm-none-eabi-5_4-2016q3/bin/../lib/gcc/arm-none-eabi/5.4.1/../../../../arm-none-eabi/lib/armv7-m/libg_nano.a(lib_a-sbrkr.o) (_sbrk)
/opt/gcc-arm-none-eabi-5_4-2016q3/bin/../lib/gcc/arm-none-eabi/5.4.1/../../../../arm-none-eabi/lib/armv7-m/libnosys.a(write.o)
                              /opt/gcc-arm-none-eabi-5_4-2016q3/bin/../lib/gcc/arm-none-eabi/5.4.1/../../../../arm-none-eabi/lib/armv7-m/libg_nano.a(lib_a-writer.o) (_write)
/opt/gcc-arm-none-eabi-5_4-2016q3/bin/../lib/gcc/arm-none-eabi/5.4.1/../../../../arm-none-eabi/lib/armv7-m/libnosys.a(_exit.o)
                              /opt/gcc-arm-none-eabi-5_4-2016q3/bin/../lib/gcc/arm-none-eabi/5.4.1/../../../../arm-none-eabi/lib/armv7-m/libg_nano.a(lib_a-exit.o) (_exit)

Allocating common symbols
Common symbol       size              file

console_buffer      0x41              /home/huyong/Public/github/switft/build//libxxyyzz.a(cli_readline.o)
current_iphdr_src   0x4               /home/huyong/Public/github/switft/build//libxxyyzz.a(ip.o)
netif_list          0x4               /home/huyong/Public/github/switft/build//libxxyyzz.a(netif.o)
OSSchedLockNestingCtr
                    0x1               /home/huyong/Public/github/switft/build//libxxyyzz.a(os_var.o)
OS_AppTaskReturnHookPtr
                    0x4               /home/huyong/Public/github/switft/build//libxxyyzz.a(os_var.o)
SWIFT_UART6_Rev_Sem
                    0x28              /home/huyong/Public/github/switft/build//libxxyyzz.a(hw_beacon.o)
OSStatTaskTimeMax   0x4               /home/huyong/Public/github/switft/build//libxxyyzz.a(os_var.o)
OSStatTaskCtr       0x4               /home/huyong/Public/github/switft/build//libxxyyzz.a(os_var.o)
OSTaskRegNextAvailID
                    0x1               /home/huyong/Public/github/switft/build//libxxyyzz.a(os_var.o)
RX_Frame_Descriptor
                    0xc               /home/huyong/Public/github/switft/build//libxxyyzz.a(stm32f2x7_eth.o)
ACUDevInfo          0x314             /home/huyong/Public/github/switft/build/main.o
OSRunning           0x1               /home/huyong/Public/github/switft/build//libxxyyzz.a(os_var.o)
OSRdyList           0x2f4             /home/huyong/Public/github/switft/build//libxxyyzz.a(os_var.o)
TaskShellStk        0xc00             /home/huyong/Public/github/switft/build/main.o
tcp_active_pcbs_changed
                    0x1               /home/huyong/Public/github/switft/build//libxxyyzz.a(tcp.o)
tcp_active_pcbs     0x4               /home/huyong/Public/github/switft/build//libxxyyzz.a(tcp.o)
udp_pcbs            0x4               /home/huyong/Public/github/switft/build//libxxyyzz.a(udp.o)
OSPrioHighRdy       0x1               /home/huyong/Public/github/switft/build//libxxyyzz.a(os_var.o)
errno               0x4               /opt/gcc-arm-none-eabi-5_4-2016q3/bin/../lib/gcc/arm-none-eabi/5.4.1/../../../../arm-none-eabi/lib/armv7-m/libg_nano.a(lib_a-reent.o)
OSStatTaskRdy       0x1               /home/huyong/Public/github/switft/build//libxxyyzz.a(os_var.o)
current_netif       0x4               /home/huyong/Public/github/switft/build//libxxyyzz.a(ip.o)
OSSemDbgListPtr     0x4               /home/huyong/Public/github/switft/build//libxxyyzz.a(os_var.o)
SWIFT_UART6_Buff    0xc               /home/huyong/Public/github/switft/build//libxxyyzz.a(hw_beacon.o)
OS_AppTaskCreateHookPtr
                    0x4               /home/huyong/Public/github/switft/build//libxxyyzz.a(os_var.o)
OSCfg_StatTaskStk   0x200             /home/huyong/Public/github/switft/build//libxxyyzz.a(os_cfg_app.o)
tcp_ticks           0x4               /home/huyong/Public/github/switft/build//libxxyyzz.a(tcp.o)
tcp_listen_pcbs     0x4               /home/huyong/Public/github/switft/build//libxxyyzz.a(tcp.o)
DMARxDescToGet      0x4               /home/huyong/Public/github/switft/build//libxxyyzz.a(stm32f2x7_eth.o)
OSCfg_TickWheel     0x80              /home/huyong/Public/github/switft/build//libxxyyzz.a(os_cfg_app.o)
SWIFTUART6Buff      0x80              /home/huyong/Public/github/switft/build//libxxyyzz.a(hw_beacon.o)
OSPrioCur           0x1               /home/huyong/Public/github/switft/build//libxxyyzz.a(os_var.o)
current_iphdr_dest  0x4               /home/huyong/Public/github/switft/build//libxxyyzz.a(ip.o)
OSTickTaskTCB       0xc4              /home/huyong/Public/github/switft/build//libxxyyzz.a(os_var.o)
TaskSatelliteTrackTCB
                    0xc4              /home/huyong/Public/github/switft/build/main.o
OSTmrTickCtr        0x4               /home/huyong/Public/github/switft/build//libxxyyzz.a(os_var.o)
OSSchedLockTimeBegin
                    0x4               /home/huyong/Public/github/switft/build//libxxyyzz.a(os_var.o)
Beacon2MCU_Sem      0x28              /home/huyong/Public/github/switft/build//libxxyyzz.a(hw_beacon.o)
OSTCBCurPtr         0x4               /home/huyong/Public/github/switft/build//libxxyyzz.a(os_var.o)
OSCfg_MsgPool       0x320             /home/huyong/Public/github/switft/build//libxxyyzz.a(os_cfg_app.o)
OSQQty              0x2               /home/huyong/Public/github/switft/build//libxxyyzz.a(os_var.o)
OSStatTaskCPUUsageMax
                    0x2               /home/huyong/Public/github/switft/build//libxxyyzz.a(os_var.o)
OSPrioSaved         0x1               /home/huyong/Public/github/switft/build//libxxyyzz.a(os_var.o)
TaskPolarElecCoderTCB
                    0xc4              /home/huyong/Public/github/switft/build/main.o
OSTCBHighRdyPtr     0x4               /home/huyong/Public/github/switft/build//libxxyyzz.a(os_var.o)
OSSchedLockTimeMaxCur
                    0x4               /home/huyong/Public/github/switft/build//libxxyyzz.a(os_var.o)
CPU_TS_TmrFreq_Hz   0x4               /home/huyong/Public/github/switft/build//libxxyyzz.a(cpu_core.o)
DMATxDescToSet      0x4               /home/huyong/Public/github/switft/build//libxxyyzz.a(stm32f2x7_eth.o)
OSTaskDbgListPtr    0x4               /home/huyong/Public/github/switft/build//libxxyyzz.a(os_var.o)
LwIP_task_priopity_stask
                    0x3               /home/huyong/Public/github/switft/build//libxxyyzz.a(sys_arch.o)
OSTmrTaskTimeMax    0x4               /home/huyong/Public/github/switft/build//libxxyyzz.a(os_var.o)
OS_AppTaskDelHookPtr
                    0x4               /home/huyong/Public/github/switft/build//libxxyyzz.a(os_var.o)
tcp_tmp_pcb         0x4               /home/huyong/Public/github/switft/build//libxxyyzz.a(tcp.o)
OS_AppTimeTickHookPtr
                    0x4               /home/huyong/Public/github/switft/build//libxxyyzz.a(os_var.o)
TaskEthRelinkTCB    0xc4              /home/huyong/Public/github/switft/build/main.o
Mem_PoolHeap        0x48              /home/huyong/Public/github/switft/build//libxxyyzz.a(lib_mem.o)
TaskShellTCB        0xc4              /home/huyong/Public/github/switft/build/main.o
TaskSatGradientTrackStk
                    0x800             /home/huyong/Public/github/switft/build/main.o
OSStatTaskCPUUsage  0x2               /home/huyong/Public/github/switft/build//libxxyyzz.a(os_var.o)
OSTaskCtxSwCtr      0x4               /home/huyong/Public/github/switft/build//libxxyyzz.a(os_var.o)
TaskAntennaRecordGotoStk
                    0xa00             /home/huyong/Public/github/switft/build/main.o
OSIntNestingCtr     0x1               /home/huyong/Public/github/switft/build//libxxyyzz.a(os_var.o)
tcp_input_pcb       0x4               /home/huyong/Public/github/switft/build//libxxyyzz.a(tcp_in.o)
LwIP_task_TCB       0x24c             /home/huyong/Public/github/switft/build//libxxyyzz.a(sys_arch.o)
OSTaskQty           0x2               /home/huyong/Public/github/switft/build//libxxyyzz.a(os_var.o)
OS_CPU_ExceptStkBase
                    0x4               /home/huyong/Public/github/switft/build//libxxyyzz.a(os_cpu_c.o)
OSTmrTaskTCB        0xc4              /home/huyong/Public/github/switft/build//libxxyyzz.a(os_var.o)
OSMsgPool           0xc               /home/huyong/Public/github/switft/build//libxxyyzz.a(os_var.o)
OSIdleTaskTCB       0xc4              /home/huyong/Public/github/switft/build//libxxyyzz.a(os_var.o)
DMATxDscrTab        0xa0              /home/huyong/Public/github/switft/build//libxxyyzz.a(stm32f2x7_eth.o)
current_header      0x4               /home/huyong/Public/github/switft/build//libxxyyzz.a(ip.o)
Task_Run_Flag       0x3               /home/huyong/Public/github/switft/build/main.o
OSQDbgListPtr       0x4               /home/huyong/Public/github/switft/build//libxxyyzz.a(os_var.o)
Rx_Buff             0x1dc4            /home/huyong/Public/github/switft/build//libxxyyzz.a(stm32f2x7_eth.o)
OSSemQty            0x2               /home/huyong/Public/github/switft/build//libxxyyzz.a(os_var.o)
tcp_bound_pcbs      0x4               /home/huyong/Public/github/switft/build//libxxyyzz.a(tcp.o)
OSMemDbgListPtr     0x4               /home/huyong/Public/github/switft/build//libxxyyzz.a(os_var.o)
OSSchedRoundRobinDfltTimeQuanta
                    0x4               /home/huyong/Public/github/switft/build//libxxyyzz.a(os_var.o)
OSCfg_TmrTaskStk    0x200             /home/huyong/Public/github/switft/build//libxxyyzz.a(os_cfg_app.o)
TaskCabrageElecCoderTCB
                    0xc4              /home/huyong/Public/github/switft/build/main.o
TaskAntennaRecordGotoTCB
                    0xc4              /home/huyong/Public/github/switft/build/main.o
OS_AppIdleTaskHookPtr
                    0x4               /home/huyong/Public/github/switft/build//libxxyyzz.a(os_var.o)
OSStatTaskCtrMax    0x4               /home/huyong/Public/github/switft/build//libxxyyzz.a(os_var.o)
OptLogInfo          0x20              /home/huyong/Public/github/switft/build/main.o
Mem_Heap            0x2400            /home/huyong/Public/github/switft/build//libxxyyzz.a(lib_mem.o)
Frame_Rx_index      0x4               /home/huyong/Public/github/switft/build//libxxyyzz.a(stm32f2x7_eth.o)
OSTickCtr           0x4               /home/huyong/Public/github/switft/build//libxxyyzz.a(os_var.o)
OS_AppTaskSwHookPtr
                    0x4               /home/huyong/Public/github/switft/build//libxxyyzz.a(os_var.o)
OSCfg_TmrWheel      0x80              /home/huyong/Public/github/switft/build//libxxyyzz.a(os_cfg_app.o)
OSTmrQty            0x2               /home/huyong/Public/github/switft/build//libxxyyzz.a(os_var.o)
OSCfg_ISRStk        0x400             /home/huyong/Public/github/switft/build//libxxyyzz.a(os_cfg_app.o)
TaskCabrageElecCoderStk
                    0x400             /home/huyong/Public/github/switft/build/main.o
DMA_RX_FRAME_infos  0x4               /home/huyong/Public/github/switft/build//libxxyyzz.a(stm32f2x7_eth.o)
OSIdleTaskCtr       0x4               /home/huyong/Public/github/switft/build//libxxyyzz.a(os_var.o)
DMARxDscrTab        0xa0              /home/huyong/Public/github/switft/build//libxxyyzz.a(stm32f2x7_eth.o)
TaskMonitorTCB      0xc4              /home/huyong/Public/github/switft/build/main.o
OSStatTaskCtrRun    0x4               /home/huyong/Public/github/switft/build//libxxyyzz.a(os_var.o)
OS_AppStatTaskHookPtr
                    0x4               /home/huyong/Public/github/switft/build//libxxyyzz.a(os_var.o)
OSCfg_TickTaskStk   0x200             /home/huyong/Public/github/switft/build//libxxyyzz.a(os_cfg_app.o)
Mem_PoolTbl         0x4               /home/huyong/Public/github/switft/build//libxxyyzz.a(lib_mem.o)
TaskMonitorStk      0x1000            /home/huyong/Public/github/switft/build/main.o
OSFlagQty           0x2               /home/huyong/Public/github/switft/build//libxxyyzz.a(os_var.o)
OSFlagDbgListPtr    0x4               /home/huyong/Public/github/switft/build//libxxyyzz.a(os_var.o)
OSSchedLockTimeMax  0x4               /home/huyong/Public/github/switft/build//libxxyyzz.a(os_var.o)
LwIP_Task_Stk       0x3c00            /home/huyong/Public/github/switft/build//libxxyyzz.a(sys_arch.o)
OSStatResetFlag     0x1               /home/huyong/Public/github/switft/build//libxxyyzz.a(os_var.o)
OSMemQty            0x2               /home/huyong/Public/github/switft/build//libxxyyzz.a(os_var.o)
USART_RX_BUF        0x80              /home/huyong/Public/github/switft/build//libxxyyzz.a(hw_beacon.o)
OSMutexQty          0x2               /home/huyong/Public/github/switft/build//libxxyyzz.a(os_var.o)
TaskPolarElecCoderStk
                    0x400             /home/huyong/Public/github/switft/build/main.o
OSStatTaskTCB       0xc4              /home/huyong/Public/github/switft/build//libxxyyzz.a(os_var.o)
tcp_tw_pcbs         0x4               /home/huyong/Public/github/switft/build//libxxyyzz.a(tcp.o)
OSPrioTbl           0x8               /home/huyong/Public/github/switft/build//libxxyyzz.a(os_prio.o)
OSTmrDbgListPtr     0x4               /home/huyong/Public/github/switft/build//libxxyyzz.a(os_var.o)
__stdout            0x68              /home/huyong/Public/github/switft/build//libxxyyzz.a(hw_beacon.o)
OSTickTaskTimeMax   0x4               /home/huyong/Public/github/switft/build//libxxyyzz.a(os_var.o)
xnetif              0x30              /home/huyong/Public/github/switft/build//libxxyyzz.a(lwip.o)
TaskStartStk        0x1000            /home/huyong/Public/github/switft/build/main.o
TaskBeaconTCB       0xc4              /home/huyong/Public/github/switft/build/main.o
TaskStartTCB        0xc4              /home/huyong/Public/github/switft/build/main.o
TaskBeaconStk       0x400             /home/huyong/Public/github/switft/build/main.o
OSTmrUpdateCnt      0x4               /home/huyong/Public/github/switft/build//libxxyyzz.a(os_var.o)
netif_default       0x4               /home/huyong/Public/github/switft/build//libxxyyzz.a(netif.o)
WarnLogInfo         0x20              /home/huyong/Public/github/switft/build/main.o
OSSchedRoundRobinEn
                    0x1               /home/huyong/Public/github/switft/build//libxxyyzz.a(os_var.o)
OSMutexDbgListPtr   0x4               /home/huyong/Public/github/switft/build//libxxyyzz.a(os_var.o)
TaskEthRelinkStk    0x400             /home/huyong/Public/github/switft/build/main.o
OSTmrUpdateCtr      0x4               /home/huyong/Public/github/switft/build//libxxyyzz.a(os_var.o)
TaskSatGradientTrackTCB
                    0xc4              /home/huyong/Public/github/switft/build/main.o
ram_heap            0x414             /home/huyong/Public/github/switft/build//libxxyyzz.a(mem.o)
SWIFT_UART6_Send_Sem
                    0x28              /home/huyong/Public/github/switft/build//libxxyyzz.a(hw_beacon.o)
TaskPositionElecCoderStk
                    0x400             /home/huyong/Public/github/switft/build/main.o
OSCfg_IdleTaskStk   0x200             /home/huyong/Public/github/switft/build//libxxyyzz.a(os_cfg_app.o)
Tx_Buff             0x1dc4            /home/huyong/Public/github/switft/build//libxxyyzz.a(stm32f2x7_eth.o)
CPU_Name            0x10              /home/huyong/Public/github/switft/build//libxxyyzz.a(cpu_core.o)
TaskSatelliteTrackStk
                    0x800             /home/huyong/Public/github/switft/build/main.o
TaskPositionElecCoderTCB
                    0xc4              /home/huyong/Public/github/switft/build/main.o

Discarded input sections

 .text          0x00000000        0x0 /opt/gcc-arm-none-eabi-5_4-2016q3/bin/../lib/gcc/arm-none-eabi/5.4.1/armv7-m/crti.o
 .data          0x00000000        0x0 /opt/gcc-arm-none-eabi-5_4-2016q3/bin/../lib/gcc/arm-none-eabi/5.4.1/armv7-m/crti.o
 .bss           0x00000000        0x0 /opt/gcc-arm-none-eabi-5_4-2016q3/bin/../lib/gcc/arm-none-eabi/5.4.1/armv7-m/crti.o
 .data          0x00000000        0x4 /opt/gcc-arm-none-eabi-5_4-2016q3/bin/../lib/gcc/arm-none-eabi/5.4.1/armv7-m/crtbegin.o
 .text          0x00000000       0x74 /opt/gcc-arm-none-eabi-5_4-2016q3/bin/../lib/gcc/arm-none-eabi/5.4.1/../../../../arm-none-eabi/lib/armv7-m/crt0.o
 .data          0x00000000        0x0 /opt/gcc-arm-none-eabi-5_4-2016q3/bin/../lib/gcc/arm-none-eabi/5.4.1/../../../../arm-none-eabi/lib/armv7-m/crt0.o
 .bss           0x00000000        0x0 /opt/gcc-arm-none-eabi-5_4-2016q3/bin/../lib/gcc/arm-none-eabi/5.4.1/../../../../arm-none-eabi/lib/armv7-m/crt0.o
 .ARM.extab     0x00000000        0x0 /opt/gcc-arm-none-eabi-5_4-2016q3/bin/../lib/gcc/arm-none-eabi/5.4.1/../../../../arm-none-eabi/lib/armv7-m/crt0.o
 .ARM.exidx     0x00000000        0x8 /opt/gcc-arm-none-eabi-5_4-2016q3/bin/../lib/gcc/arm-none-eabi/5.4.1/../../../../arm-none-eabi/lib/armv7-m/crt0.o
 .ARM.attributes
                0x00000000       0x1b /opt/gcc-arm-none-eabi-5_4-2016q3/bin/../lib/gcc/arm-none-eabi/5.4.1/../../../../arm-none-eabi/lib/armv7-m/crt0.o
 .text          0x00000000       0x14 /home/huyong/Public/github/switft/build/startup_stm32f2xx.o
 .data          0x00000000        0x0 /home/huyong/Public/github/switft/build/startup_stm32f2xx.o
 .bss           0x00000000        0x0 /home/huyong/Public/github/switft/build/startup_stm32f2xx.o
 .bss           0x00000000        0x0 /home/huyong/Public/github/switft/build/system_stm32f2xx.o
 .data          0x00000000        0x0 /home/huyong/Public/github/switft/build/main.o
 .bss           0x00000000        0x0 /home/huyong/Public/github/switft/build/main.o
 .data          0x00000000        0x0 /home/huyong/Public/github/switft/build//libxxyyzz.a(app_shell.o)
 .bss           0x00000000        0x0 /home/huyong/Public/github/switft/build//libxxyyzz.a(app_shell.o)
 .data          0x00000000       0x10 /home/huyong/Public/github/switft/build//libxxyyzz.a(bsp.o)
 .bss           0x00000000        0x0 /home/huyong/Public/github/switft/build//libxxyyzz.a(bsp.o)
 .rodata        0x00000000       0x18 /home/huyong/Public/github/switft/build//libxxyyzz.a(bsp.o)
 .data          0x00000000        0x0 /home/huyong/Public/github/switft/build//libxxyyzz.a(bsp_delay.o)
 .bss           0x00000000        0x0 /home/huyong/Public/github/switft/build//libxxyyzz.a(bsp_delay.o)
 .data          0x00000000        0x0 /home/huyong/Public/github/switft/build//libxxyyzz.a(bsp_int.o)
 .data          0x00000000        0x0 /home/huyong/Public/github/switft/build//libxxyyzz.a(cli.o)
 .bss           0x00000000        0x0 /home/huyong/Public/github/switft/build//libxxyyzz.a(cli.o)
 .data          0x00000000        0x0 /home/huyong/Public/github/switft/build//libxxyyzz.a(cli_simple.o)
 .data          0x00000000        0x0 /home/huyong/Public/github/switft/build//libxxyyzz.a(cmd_d.o)
 .bss           0x00000000        0x0 /home/huyong/Public/github/switft/build//libxxyyzz.a(cmd_d.o)
 .data          0x00000000        0x0 /home/huyong/Public/github/switft/build//libxxyyzz.a(cmd_help.o)
 .bss           0x00000000        0x0 /home/huyong/Public/github/switft/build//libxxyyzz.a(cmd_help.o)
 .data          0x00000000        0x0 /home/huyong/Public/github/switft/build//libxxyyzz.a(cmd_m.o)
 .bss           0x00000000        0x0 /home/huyong/Public/github/switft/build//libxxyyzz.a(cmd_m.o)
 .data          0x00000000        0x0 /home/huyong/Public/github/switft/build//libxxyyzz.a(cmd_reset.o)
 .bss           0x00000000        0x0 /home/huyong/Public/github/switft/build//libxxyyzz.a(cmd_reset.o)
 .data          0x00000000        0x0 /home/huyong/Public/github/switft/build//libxxyyzz.a(cmd_ver.o)
 .bss           0x00000000        0x0 /home/huyong/Public/github/switft/build//libxxyyzz.a(cmd_ver.o)
 .data          0x00000000        0x0 /home/huyong/Public/github/switft/build//libxxyyzz.a(command.o)
 .data          0x00000000        0x0 /home/huyong/Public/github/switft/build//libxxyyzz.a(console.o)
 .data          0x00000000        0x0 /home/huyong/Public/github/switft/build//libxxyyzz.a(cpu_a.o)
 .bss           0x00000000        0x0 /home/huyong/Public/github/switft/build//libxxyyzz.a(cpu_a.o)
 .data          0x00000000        0x0 /home/huyong/Public/github/switft/build//libxxyyzz.a(cpu_c.o)
 .bss           0x00000000        0x0 /home/huyong/Public/github/switft/build//libxxyyzz.a(cpu_c.o)
 .data          0x00000000        0x0 /home/huyong/Public/github/switft/build//libxxyyzz.a(cpu_core.o)
 .bss           0x00000000        0x0 /home/huyong/Public/github/switft/build//libxxyyzz.a(cpu_core.o)
 .data          0x00000000        0x0 /home/huyong/Public/github/switft/build//libxxyyzz.a(hw_beacon.o)
 .data          0x00000000        0x0 /home/huyong/Public/github/switft/build//libxxyyzz.a(hw_led.o)
 .bss           0x00000000        0x0 /home/huyong/Public/github/switft/build//libxxyyzz.a(hw_led.o)
 .data          0x00000000        0x0 /home/huyong/Public/github/switft/build//libxxyyzz.a(lib_mem.o)
 .bss           0x00000000        0x0 /home/huyong/Public/github/switft/build//libxxyyzz.a(lib_mem.o)
 .data          0x00000000        0x0 /home/huyong/Public/github/switft/build//libxxyyzz.a(lib_mem_a.o)
 .bss           0x00000000        0x0 /home/huyong/Public/github/switft/build//libxxyyzz.a(lib_mem_a.o)
 .data          0x00000000        0x0 /home/huyong/Public/github/switft/build//libxxyyzz.a(lib_str.o)
 .bss           0x00000000        0x0 /home/huyong/Public/github/switft/build//libxxyyzz.a(lib_str.o)
 .data          0x00000000        0x0 /home/huyong/Public/github/switft/build//libxxyyzz.a(lwip.o)
 .bss           0x00000000        0x0 /home/huyong/Public/github/switft/build//libxxyyzz.a(lwip.o)
 .data          0x00000000        0x0 /home/huyong/Public/github/switft/build//libxxyyzz.a(netif.o)
 .data          0x00000000        0x0 /home/huyong/Public/github/switft/build//libxxyyzz.a(os_cfg_app.o)
 .bss           0x00000000        0x0 /home/huyong/Public/github/switft/build//libxxyyzz.a(os_cfg_app.o)
 .data          0x00000000        0x0 /home/huyong/Public/github/switft/build//libxxyyzz.a(os_core.o)
 .bss           0x00000000        0x0 /home/huyong/Public/github/switft/build//libxxyyzz.a(os_core.o)
 .data          0x00000000        0x0 /home/huyong/Public/github/switft/build//libxxyyzz.a(os_cpu_a.o)
 .bss           0x00000000        0x0 /home/huyong/Public/github/switft/build//libxxyyzz.a(os_cpu_a.o)
 .data          0x00000000        0x0 /home/huyong/Public/github/switft/build//libxxyyzz.a(os_cpu_c.o)
 .bss           0x00000000        0x0 /home/huyong/Public/github/switft/build//libxxyyzz.a(os_cpu_c.o)
 .data          0x00000000        0x0 /home/huyong/Public/github/switft/build//libxxyyzz.a(os_dbg.o)
 .bss           0x00000000        0x0 /home/huyong/Public/github/switft/build//libxxyyzz.a(os_dbg.o)
 .rodata        0x00000000      0x16b /home/huyong/Public/github/switft/build//libxxyyzz.a(os_dbg.o)
 .data          0x00000000        0x0 /home/huyong/Public/github/switft/build//libxxyyzz.a(os_flag.o)
 .bss           0x00000000        0x0 /home/huyong/Public/github/switft/build//libxxyyzz.a(os_flag.o)
 .data          0x00000000        0x0 /home/huyong/Public/github/switft/build//libxxyyzz.a(os_mem.o)
 .bss           0x00000000        0x0 /home/huyong/Public/github/switft/build//libxxyyzz.a(os_mem.o)
 .data          0x00000000        0x0 /home/huyong/Public/github/switft/build//libxxyyzz.a(os_msg.o)
 .bss           0x00000000        0x0 /home/huyong/Public/github/switft/build//libxxyyzz.a(os_msg.o)
 .data          0x00000000        0x0 /home/huyong/Public/github/switft/build//libxxyyzz.a(os_mutex.o)
 .bss           0x00000000        0x0 /home/huyong/Public/github/switft/build//libxxyyzz.a(os_mutex.o)
 .data          0x00000000        0x0 /home/huyong/Public/github/switft/build//libxxyyzz.a(os_prio.o)
 .bss           0x00000000        0x0 /home/huyong/Public/github/switft/build//libxxyyzz.a(os_prio.o)
 .data          0x00000000        0x0 /home/huyong/Public/github/switft/build//libxxyyzz.a(os_q.o)
 .bss           0x00000000        0x0 /home/huyong/Public/github/switft/build//libxxyyzz.a(os_q.o)
 .data          0x00000000        0x0 /home/huyong/Public/github/switft/build//libxxyyzz.a(os_sem.o)
 .bss           0x00000000        0x0 /home/huyong/Public/github/switft/build//libxxyyzz.a(os_sem.o)
 .data          0x00000000        0x0 /home/huyong/Public/github/switft/build//libxxyyzz.a(os_stat.o)
 .bss           0x00000000        0x0 /home/huyong/Public/github/switft/build//libxxyyzz.a(os_stat.o)
 .data          0x00000000        0x0 /home/huyong/Public/github/switft/build//libxxyyzz.a(os_task.o)
 .bss           0x00000000        0x0 /home/huyong/Public/github/switft/build//libxxyyzz.a(os_task.o)
 .data          0x00000000        0x0 /home/huyong/Public/github/switft/build//libxxyyzz.a(os_tick.o)
 .bss           0x00000000        0x0 /home/huyong/Public/github/switft/build//libxxyyzz.a(os_tick.o)
 .data          0x00000000        0x0 /home/huyong/Public/github/switft/build//libxxyyzz.a(os_time.o)
 .bss           0x00000000        0x0 /home/huyong/Public/github/switft/build//libxxyyzz.a(os_time.o)
 .data          0x00000000        0x0 /home/huyong/Public/github/switft/build//libxxyyzz.a(os_tmr.o)
 .bss           0x00000000        0x0 /home/huyong/Public/github/switft/build//libxxyyzz.a(os_tmr.o)
 .text          0x00000000        0x0 /home/huyong/Public/github/switft/build//libxxyyzz.a(os_var.o)
 .data          0x00000000        0x0 /home/huyong/Public/github/switft/build//libxxyyzz.a(os_var.o)
 .bss           0x00000000        0x0 /home/huyong/Public/github/switft/build//libxxyyzz.a(os_var.o)
 .data          0x00000000        0x0 /home/huyong/Public/github/switft/build//libxxyyzz.a(stm32f2xx_exti.o)
 .bss           0x00000000        0x0 /home/huyong/Public/github/switft/build//libxxyyzz.a(stm32f2xx_exti.o)
 .data          0x00000000        0x0 /home/huyong/Public/github/switft/build//libxxyyzz.a(stm32f2xx_fsmc.o)
 .bss           0x00000000        0x0 /home/huyong/Public/github/switft/build//libxxyyzz.a(stm32f2xx_fsmc.o)
 .data          0x00000000        0x0 /home/huyong/Public/github/switft/build//libxxyyzz.a(stm32f2xx_gpio.o)
 .bss           0x00000000        0x0 /home/huyong/Public/github/switft/build//libxxyyzz.a(stm32f2xx_gpio.o)
 .bss           0x00000000        0x0 /home/huyong/Public/github/switft/build//libxxyyzz.a(stm32f2xx_rcc.o)
 .data          0x00000000        0x0 /home/huyong/Public/github/switft/build//libxxyyzz.a(stm32f2xx_usart.o)
 .bss           0x00000000        0x0 /home/huyong/Public/github/switft/build//libxxyyzz.a(stm32f2xx_usart.o)
 .data          0x00000000        0x0 /home/huyong/Public/github/switft/build//libxxyyzz.a(tcp_out.o)
 .bss           0x00000000        0x0 /home/huyong/Public/github/switft/build//libxxyyzz.a(tcp_out.o)
 .data          0x00000000        0x0 /home/huyong/Public/github/switft/build//libxxyyzz.a(tcpip.o)
 .data          0x00000000        0x0 /home/huyong/Public/github/switft/build//libxxyyzz.a(timers.o)
 .data          0x00000000        0x0 /home/huyong/Public/github/switft/build//libxxyyzz.a(udpecho.o)
 .data          0x00000000        0x0 /home/huyong/Public/github/switft/build//libxxyyzz.a(api_lib.o)
 .bss           0x00000000        0x0 /home/huyong/Public/github/switft/build//libxxyyzz.a(api_lib.o)
 .data          0x00000000        0x0 /home/huyong/Public/github/switft/build//libxxyyzz.a(api_msg.o)
 .bss           0x00000000        0x0 /home/huyong/Public/github/switft/build//libxxyyzz.a(api_msg.o)
 .data          0x00000000        0x0 /home/huyong/Public/github/switft/build//libxxyyzz.a(bsp_gpio.o)
 .bss           0x00000000        0x0 /home/huyong/Public/github/switft/build//libxxyyzz.a(bsp_gpio.o)
 .data          0x00000000        0x0 /home/huyong/Public/github/switft/build//libxxyyzz.a(bsp_os.o)
 .bss           0x00000000        0x0 /home/huyong/Public/github/switft/build//libxxyyzz.a(bsp_os.o)
 .data          0x00000000        0x0 /home/huyong/Public/github/switft/build//libxxyyzz.a(bsp_uart.o)
 .bss           0x00000000        0x0 /home/huyong/Public/github/switft/build//libxxyyzz.a(bsp_uart.o)
 .data          0x00000000        0x0 /home/huyong/Public/github/switft/build//libxxyyzz.a(cli_readline.o)
 .bss           0x00000000        0x0 /home/huyong/Public/github/switft/build//libxxyyzz.a(cli_readline.o)
 .data          0x00000000        0x0 /home/huyong/Public/github/switft/build//libxxyyzz.a(def.o)
 .bss           0x00000000        0x0 /home/huyong/Public/github/switft/build//libxxyyzz.a(def.o)
 .data          0x00000000        0x0 /home/huyong/Public/github/switft/build//libxxyyzz.a(etharp.o)
 .data          0x00000000        0x0 /home/huyong/Public/github/switft/build//libxxyyzz.a(ethernetif.o)
 .bss           0x00000000        0x0 /home/huyong/Public/github/switft/build//libxxyyzz.a(ethernetif.o)
 .data          0x00000000        0x0 /home/huyong/Public/github/switft/build//libxxyyzz.a(inet_chksum.o)
 .bss           0x00000000        0x0 /home/huyong/Public/github/switft/build//libxxyyzz.a(inet_chksum.o)
 .data          0x00000000        0x0 /home/huyong/Public/github/switft/build//libxxyyzz.a(init.o)
 .bss           0x00000000        0x0 /home/huyong/Public/github/switft/build//libxxyyzz.a(init.o)
 .data          0x00000000        0x0 /home/huyong/Public/github/switft/build//libxxyyzz.a(ip.o)
 .data          0x00000000        0x0 /home/huyong/Public/github/switft/build//libxxyyzz.a(ip_addr.o)
 .data          0x00000000        0x0 /home/huyong/Public/github/switft/build//libxxyyzz.a(ip_frag.o)
 .data          0x00000000        0x0 /home/huyong/Public/github/switft/build//libxxyyzz.a(lib_ascii.o)
 .bss           0x00000000        0x0 /home/huyong/Public/github/switft/build//libxxyyzz.a(lib_ascii.o)
 .data          0x00000000        0x0 /home/huyong/Public/github/switft/build//libxxyyzz.a(mem.o)
 .data          0x00000000        0x0 /home/huyong/Public/github/switft/build//libxxyyzz.a(memp.o)
 .data          0x00000000        0x0 /home/huyong/Public/github/switft/build//libxxyyzz.a(netbuf.o)
 .bss           0x00000000        0x0 /home/huyong/Public/github/switft/build//libxxyyzz.a(netbuf.o)
 .data          0x00000000        0x0 /home/huyong/Public/github/switft/build//libxxyyzz.a(pbuf.o)
 .bss           0x00000000        0x0 /home/huyong/Public/github/switft/build//libxxyyzz.a(pbuf.o)
 .data          0x00000000        0x0 /home/huyong/Public/github/switft/build//libxxyyzz.a(raw.o)
 .data          0x00000000        0x0 /home/huyong/Public/github/switft/build//libxxyyzz.a(sockets.o)
 .data          0x00000000        0x0 /home/huyong/Public/github/switft/build//libxxyyzz.a(stm32f2x7_eth.o)
 .bss           0x00000000        0x0 /home/huyong/Public/github/switft/build//libxxyyzz.a(stm32f2x7_eth.o)
 .data          0x00000000        0x0 /home/huyong/Public/github/switft/build//libxxyyzz.a(stm32f2xx_syscfg.o)
 .bss           0x00000000        0x0 /home/huyong/Public/github/switft/build//libxxyyzz.a(stm32f2xx_syscfg.o)
 .data          0x00000000        0x0 /home/huyong/Public/github/switft/build//libxxyyzz.a(sys_arch.o)
 .data          0x00000000        0x0 /home/huyong/Public/github/switft/build//libxxyyzz.a(tcp_in.o)
 .bss           0x00000000        0x0 /home/huyong/Public/github/switft/build//libxxyyzz.a(udp.o)
 .data          0x00000000        0x0 /home/huyong/Public/github/switft/build//libxxyyzz.a(app_tool.o)
 .bss           0x00000000        0x0 /home/huyong/Public/github/switft/build//libxxyyzz.a(app_tool.o)
 .data          0x00000000        0x0 /home/huyong/Public/github/switft/build//libxxyyzz.a(icmp.o)
 .bss           0x00000000        0x0 /home/huyong/Public/github/switft/build//libxxyyzz.a(icmp.o)
 .text          0x00000000        0x0 /opt/gcc-arm-none-eabi-5_4-2016q3/bin/../lib/gcc/arm-none-eabi/5.4.1/../../../../arm-none-eabi/lib/armv7-m/libg_nano.a(lib_a-exit.o)
 .data          0x00000000        0x0 /opt/gcc-arm-none-eabi-5_4-2016q3/bin/../lib/gcc/arm-none-eabi/5.4.1/../../../../arm-none-eabi/lib/armv7-m/libg_nano.a(lib_a-exit.o)
 .bss           0x00000000        0x0 /opt/gcc-arm-none-eabi-5_4-2016q3/bin/../lib/gcc/arm-none-eabi/5.4.1/../../../../arm-none-eabi/lib/armv7-m/libg_nano.a(lib_a-exit.o)
 .text.exit     0x00000000       0x28 /opt/gcc-arm-none-eabi-5_4-2016q3/bin/../lib/gcc/arm-none-eabi/5.4.1/../../../../arm-none-eabi/lib/armv7-m/libg_nano.a(lib_a-exit.o)
 .debug_frame   0x00000000       0x28 /opt/gcc-arm-none-eabi-5_4-2016q3/bin/../lib/gcc/arm-none-eabi/5.4.1/../../../../arm-none-eabi/lib/armv7-m/libg_nano.a(lib_a-exit.o)
 .ARM.attributes
                0x00000000       0x2d /opt/gcc-arm-none-eabi-5_4-2016q3/bin/../lib/gcc/arm-none-eabi/5.4.1/../../../../arm-none-eabi/lib/armv7-m/libg_nano.a(lib_a-exit.o)
 .text          0x00000000        0x0 /opt/gcc-arm-none-eabi-5_4-2016q3/bin/../lib/gcc/arm-none-eabi/5.4.1/../../../../arm-none-eabi/lib/armv7-m/libg_nano.a(lib_a-impure.o)
 .data          0x00000000        0x0 /opt/gcc-arm-none-eabi-5_4-2016q3/bin/../lib/gcc/arm-none-eabi/5.4.1/../../../../arm-none-eabi/lib/armv7-m/libg_nano.a(lib_a-impure.o)
 .bss           0x00000000        0x0 /opt/gcc-arm-none-eabi-5_4-2016q3/bin/../lib/gcc/arm-none-eabi/5.4.1/../../../../arm-none-eabi/lib/armv7-m/libg_nano.a(lib_a-impure.o)
 .text          0x00000000        0x0 /opt/gcc-arm-none-eabi-5_4-2016q3/bin/../lib/gcc/arm-none-eabi/5.4.1/../../../../arm-none-eabi/lib/armv7-m/libg_nano.a(lib_a-init.o)
 .data          0x00000000        0x0 /opt/gcc-arm-none-eabi-5_4-2016q3/bin/../lib/gcc/arm-none-eabi/5.4.1/../../../../arm-none-eabi/lib/armv7-m/libg_nano.a(lib_a-init.o)
 .bss           0x00000000        0x0 /opt/gcc-arm-none-eabi-5_4-2016q3/bin/../lib/gcc/arm-none-eabi/5.4.1/../../../../arm-none-eabi/lib/armv7-m/libg_nano.a(lib_a-init.o)
 .text.__libc_init_array
                0x00000000       0x4c /opt/gcc-arm-none-eabi-5_4-2016q3/bin/../lib/gcc/arm-none-eabi/5.4.1/../../../../arm-none-eabi/lib/armv7-m/libg_nano.a(lib_a-init.o)
 .debug_frame   0x00000000       0x2c /opt/gcc-arm-none-eabi-5_4-2016q3/bin/../lib/gcc/arm-none-eabi/5.4.1/../../../../arm-none-eabi/lib/armv7-m/libg_nano.a(lib_a-init.o)
 .ARM.attributes
                0x00000000       0x2d /opt/gcc-arm-none-eabi-5_4-2016q3/bin/../lib/gcc/arm-none-eabi/5.4.1/../../../../arm-none-eabi/lib/armv7-m/libg_nano.a(lib_a-init.o)
 .text          0x00000000        0x0 /opt/gcc-arm-none-eabi-5_4-2016q3/bin/../lib/gcc/arm-none-eabi/5.4.1/../../../../arm-none-eabi/lib/armv7-m/libg_nano.a(lib_a-isblank.o)
 .data          0x00000000        0x0 /opt/gcc-arm-none-eabi-5_4-2016q3/bin/../lib/gcc/arm-none-eabi/5.4.1/../../../../arm-none-eabi/lib/armv7-m/libg_nano.a(lib_a-isblank.o)
 .bss           0x00000000        0x0 /opt/gcc-arm-none-eabi-5_4-2016q3/bin/../lib/gcc/arm-none-eabi/5.4.1/../../../../arm-none-eabi/lib/armv7-m/libg_nano.a(lib_a-isblank.o)
 .text          0x00000000        0x0 /opt/gcc-arm-none-eabi-5_4-2016q3/bin/../lib/gcc/arm-none-eabi/5.4.1/../../../../arm-none-eabi/lib/armv7-m/libg_nano.a(lib_a-locale.o)
 .data          0x00000000        0x0 /opt/gcc-arm-none-eabi-5_4-2016q3/bin/../lib/gcc/arm-none-eabi/5.4.1/../../../../arm-none-eabi/lib/armv7-m/libg_nano.a(lib_a-locale.o)
 .bss           0x00000000        0x0 /opt/gcc-arm-none-eabi-5_4-2016q3/bin/../lib/gcc/arm-none-eabi/5.4.1/../../../../arm-none-eabi/lib/armv7-m/libg_nano.a(lib_a-locale.o)
 .text._setlocale_r
                0x00000000       0x38 /opt/gcc-arm-none-eabi-5_4-2016q3/bin/../lib/gcc/arm-none-eabi/5.4.1/../../../../arm-none-eabi/lib/armv7-m/libg_nano.a(lib_a-locale.o)
 .text.__locale_mb_cur_max
                0x00000000        0xc /opt/gcc-arm-none-eabi-5_4-2016q3/bin/../lib/gcc/arm-none-eabi/5.4.1/../../../../arm-none-eabi/lib/armv7-m/libg_nano.a(lib_a-locale.o)
 .text.setlocale
                0x00000000       0x10 /opt/gcc-arm-none-eabi-5_4-2016q3/bin/../lib/gcc/arm-none-eabi/5.4.1/../../../../arm-none-eabi/lib/armv7-m/libg_nano.a(lib_a-locale.o)
 .bss._PathLocale
                0x00000000        0x4 /opt/gcc-arm-none-eabi-5_4-2016q3/bin/../lib/gcc/arm-none-eabi/5.4.1/../../../../arm-none-eabi/lib/armv7-m/libg_nano.a(lib_a-locale.o)
 .text          0x00000000        0x0 /opt/gcc-arm-none-eabi-5_4-2016q3/bin/../lib/gcc/arm-none-eabi/5.4.1/../../../../arm-none-eabi/lib/armv7-m/libg_nano.a(lib_a-mbtowc_r.o)
 .data          0x00000000        0x0 /opt/gcc-arm-none-eabi-5_4-2016q3/bin/../lib/gcc/arm-none-eabi/5.4.1/../../../../arm-none-eabi/lib/armv7-m/libg_nano.a(lib_a-mbtowc_r.o)
 .bss           0x00000000        0x0 /opt/gcc-arm-none-eabi-5_4-2016q3/bin/../lib/gcc/arm-none-eabi/5.4.1/../../../../arm-none-eabi/lib/armv7-m/libg_nano.a(lib_a-mbtowc_r.o)
 .text._mbtowc_r
                0x00000000       0x24 /opt/gcc-arm-none-eabi-5_4-2016q3/bin/../lib/gcc/arm-none-eabi/5.4.1/../../../../arm-none-eabi/lib/armv7-m/libg_nano.a(lib_a-mbtowc_r.o)
 .text          0x00000000        0x0 /opt/gcc-arm-none-eabi-5_4-2016q3/bin/../lib/gcc/arm-none-eabi/5.4.1/../../../../arm-none-eabi/lib/armv7-m/libg_nano.a(lib_a-memcmp.o)
 .data          0x00000000        0x0 /opt/gcc-arm-none-eabi-5_4-2016q3/bin/../lib/gcc/arm-none-eabi/5.4.1/../../../../arm-none-eabi/lib/armv7-m/libg_nano.a(lib_a-memcmp.o)
 .bss           0x00000000        0x0 /opt/gcc-arm-none-eabi-5_4-2016q3/bin/../lib/gcc/arm-none-eabi/5.4.1/../../../../arm-none-eabi/lib/armv7-m/libg_nano.a(lib_a-memcmp.o)
 .text          0x00000000        0x0 /opt/gcc-arm-none-eabi-5_4-2016q3/bin/../lib/gcc/arm-none-eabi/5.4.1/../../../../arm-none-eabi/lib/armv7-m/libg_nano.a(lib_a-memcpy-stub.o)
 .data          0x00000000        0x0 /opt/gcc-arm-none-eabi-5_4-2016q3/bin/../lib/gcc/arm-none-eabi/5.4.1/../../../../arm-none-eabi/lib/armv7-m/libg_nano.a(lib_a-memcpy-stub.o)
 .bss           0x00000000        0x0 /opt/gcc-arm-none-eabi-5_4-2016q3/bin/../lib/gcc/arm-none-eabi/5.4.1/../../../../arm-none-eabi/lib/armv7-m/libg_nano.a(lib_a-memcpy-stub.o)
 .text          0x00000000        0x0 /opt/gcc-arm-none-eabi-5_4-2016q3/bin/../lib/gcc/arm-none-eabi/5.4.1/../../../../arm-none-eabi/lib/armv7-m/libg_nano.a(lib_a-memset.o)
 .data          0x00000000        0x0 /opt/gcc-arm-none-eabi-5_4-2016q3/bin/../lib/gcc/arm-none-eabi/5.4.1/../../../../arm-none-eabi/lib/armv7-m/libg_nano.a(lib_a-memset.o)
 .bss           0x00000000        0x0 /opt/gcc-arm-none-eabi-5_4-2016q3/bin/../lib/gcc/arm-none-eabi/5.4.1/../../../../arm-none-eabi/lib/armv7-m/libg_nano.a(lib_a-memset.o)
 .text          0x00000000        0x0 /opt/gcc-arm-none-eabi-5_4-2016q3/bin/../lib/gcc/arm-none-eabi/5.4.1/../../../../arm-none-eabi/lib/armv7-m/libg_nano.a(lib_a-printf.o)
 .data          0x00000000        0x0 /opt/gcc-arm-none-eabi-5_4-2016q3/bin/../lib/gcc/arm-none-eabi/5.4.1/../../../../arm-none-eabi/lib/armv7-m/libg_nano.a(lib_a-printf.o)
 .bss           0x00000000        0x0 /opt/gcc-arm-none-eabi-5_4-2016q3/bin/../lib/gcc/arm-none-eabi/5.4.1/../../../../arm-none-eabi/lib/armv7-m/libg_nano.a(lib_a-printf.o)
 .text._printf_r
                0x00000000       0x28 /opt/gcc-arm-none-eabi-5_4-2016q3/bin/../lib/gcc/arm-none-eabi/5.4.1/../../../../arm-none-eabi/lib/armv7-m/libg_nano.a(lib_a-printf.o)
 .text          0x00000000        0x0 /opt/gcc-arm-none-eabi-5_4-2016q3/bin/../lib/gcc/arm-none-eabi/5.4.1/../../../../arm-none-eabi/lib/armv7-m/libg_nano.a(lib_a-putc.o)
 .data          0x00000000        0x0 /opt/gcc-arm-none-eabi-5_4-2016q3/bin/../lib/gcc/arm-none-eabi/5.4.1/../../../../arm-none-eabi/lib/armv7-m/libg_nano.a(lib_a-putc.o)
 .bss           0x00000000        0x0 /opt/gcc-arm-none-eabi-5_4-2016q3/bin/../lib/gcc/arm-none-eabi/5.4.1/../../../../arm-none-eabi/lib/armv7-m/libg_nano.a(lib_a-putc.o)
 .text          0x00000000        0x0 /opt/gcc-arm-none-eabi-5_4-2016q3/bin/../lib/gcc/arm-none-eabi/5.4.1/../../../../arm-none-eabi/lib/armv7-m/libg_nano.a(lib_a-puts.o)
 .data          0x00000000        0x0 /opt/gcc-arm-none-eabi-5_4-2016q3/bin/../lib/gcc/arm-none-eabi/5.4.1/../../../../arm-none-eabi/lib/armv7-m/libg_nano.a(lib_a-puts.o)
 .bss           0x00000000        0x0 /opt/gcc-arm-none-eabi-5_4-2016q3/bin/../lib/gcc/arm-none-eabi/5.4.1/../../../../arm-none-eabi/lib/armv7-m/libg_nano.a(lib_a-puts.o)
 .data          0x00000000        0x0 /opt/gcc-arm-none-eabi-5_4-2016q3/bin/../lib/gcc/arm-none-eabi/5.4.1/../../../../arm-none-eabi/lib/armv7-m/libg_nano.a(lib_a-strcmp.o)
 .bss           0x00000000        0x0 /opt/gcc-arm-none-eabi-5_4-2016q3/bin/../lib/gcc/arm-none-eabi/5.4.1/../../../../arm-none-eabi/lib/armv7-m/libg_nano.a(lib_a-strcmp.o)
 .text          0x00000000        0x0 /opt/gcc-arm-none-eabi-5_4-2016q3/bin/../lib/gcc/arm-none-eabi/5.4.1/../../../../arm-none-eabi/lib/armv7-m/libg_nano.a(lib_a-strcpy.o)
 .data          0x00000000        0x0 /opt/gcc-arm-none-eabi-5_4-2016q3/bin/../lib/gcc/arm-none-eabi/5.4.1/../../../../arm-none-eabi/lib/armv7-m/libg_nano.a(lib_a-strcpy.o)
 .bss           0x00000000        0x0 /opt/gcc-arm-none-eabi-5_4-2016q3/bin/../lib/gcc/arm-none-eabi/5.4.1/../../../../arm-none-eabi/lib/armv7-m/libg_nano.a(lib_a-strcpy.o)
 .text          0x00000000        0x0 /opt/gcc-arm-none-eabi-5_4-2016q3/bin/../lib/gcc/arm-none-eabi/5.4.1/../../../../arm-none-eabi/lib/armv7-m/libg_nano.a(lib_a-strlcpy.o)
 .data          0x00000000        0x0 /opt/gcc-arm-none-eabi-5_4-2016q3/bin/../lib/gcc/arm-none-eabi/5.4.1/../../../../arm-none-eabi/lib/armv7-m/libg_nano.a(lib_a-strlcpy.o)
 .bss           0x00000000        0x0 /opt/gcc-arm-none-eabi-5_4-2016q3/bin/../lib/gcc/arm-none-eabi/5.4.1/../../../../arm-none-eabi/lib/armv7-m/libg_nano.a(lib_a-strlcpy.o)
 .data          0x00000000        0x0 /opt/gcc-arm-none-eabi-5_4-2016q3/bin/../lib/gcc/arm-none-eabi/5.4.1/../../../../arm-none-eabi/lib/armv7-m/libg_nano.a(lib_a-strlen.o)
 .bss           0x00000000        0x0 /opt/gcc-arm-none-eabi-5_4-2016q3/bin/../lib/gcc/arm-none-eabi/5.4.1/../../../../arm-none-eabi/lib/armv7-m/libg_nano.a(lib_a-strlen.o)
 .text          0x00000000        0x0 /opt/gcc-arm-none-eabi-5_4-2016q3/bin/../lib/gcc/arm-none-eabi/5.4.1/../../../../arm-none-eabi/lib/armv7-m/libg_nano.a(lib_a-strncmp.o)
 .data          0x00000000        0x0 /opt/gcc-arm-none-eabi-5_4-2016q3/bin/../lib/gcc/arm-none-eabi/5.4.1/../../../../arm-none-eabi/lib/armv7-m/libg_nano.a(lib_a-strncmp.o)
 .bss           0x00000000        0x0 /opt/gcc-arm-none-eabi-5_4-2016q3/bin/../lib/gcc/arm-none-eabi/5.4.1/../../../../arm-none-eabi/lib/armv7-m/libg_nano.a(lib_a-strncmp.o)
 .text          0x00000000        0x0 /opt/gcc-arm-none-eabi-5_4-2016q3/bin/../lib/gcc/arm-none-eabi/5.4.1/../../../../arm-none-eabi/lib/armv7-m/libg_nano.a(lib_a-strtoul.o)
 .data          0x00000000        0x0 /opt/gcc-arm-none-eabi-5_4-2016q3/bin/../lib/gcc/arm-none-eabi/5.4.1/../../../../arm-none-eabi/lib/armv7-m/libg_nano.a(lib_a-strtoul.o)
 .bss           0x00000000        0x0 /opt/gcc-arm-none-eabi-5_4-2016q3/bin/../lib/gcc/arm-none-eabi/5.4.1/../../../../arm-none-eabi/lib/armv7-m/libg_nano.a(lib_a-strtoul.o)
 .text._strtoul_r
                0x00000000       0x24 /opt/gcc-arm-none-eabi-5_4-2016q3/bin/../lib/gcc/arm-none-eabi/5.4.1/../../../../arm-none-eabi/lib/armv7-m/libg_nano.a(lib_a-strtoul.o)
 .text.strtoul_l
                0x00000000       0x1c /opt/gcc-arm-none-eabi-5_4-2016q3/bin/../lib/gcc/arm-none-eabi/5.4.1/../../../../arm-none-eabi/lib/armv7-m/libg_nano.a(lib_a-strtoul.o)
 .text          0x00000000        0x0 /opt/gcc-arm-none-eabi-5_4-2016q3/bin/../lib/gcc/arm-none-eabi/5.4.1/../../../../arm-none-eabi/lib/armv7-m/libg_nano.a(lib_a-wbuf.o)
 .data          0x00000000        0x0 /opt/gcc-arm-none-eabi-5_4-2016q3/bin/../lib/gcc/arm-none-eabi/5.4.1/../../../../arm-none-eabi/lib/armv7-m/libg_nano.a(lib_a-wbuf.o)
 .bss           0x00000000        0x0 /opt/gcc-arm-none-eabi-5_4-2016q3/bin/../lib/gcc/arm-none-eabi/5.4.1/../../../../arm-none-eabi/lib/armv7-m/libg_nano.a(lib_a-wbuf.o)
 .text.__swbuf  0x00000000       0x10 /opt/gcc-arm-none-eabi-5_4-2016q3/bin/../lib/gcc/arm-none-eabi/5.4.1/../../../../arm-none-eabi/lib/armv7-m/libg_nano.a(lib_a-wbuf.o)
 .text          0x00000000        0x0 /opt/gcc-arm-none-eabi-5_4-2016q3/bin/../lib/gcc/arm-none-eabi/5.4.1/../../../../arm-none-eabi/lib/armv7-m/libg_nano.a(lib_a-wctomb_r.o)
 .data          0x00000000        0x0 /opt/gcc-arm-none-eabi-5_4-2016q3/bin/../lib/gcc/arm-none-eabi/5.4.1/../../../../arm-none-eabi/lib/armv7-m/libg_nano.a(lib_a-wctomb_r.o)
 .bss           0x00000000        0x0 /opt/gcc-arm-none-eabi-5_4-2016q3/bin/../lib/gcc/arm-none-eabi/5.4.1/../../../../arm-none-eabi/lib/armv7-m/libg_nano.a(lib_a-wctomb_r.o)
 .text._wctomb_r
                0x00000000       0x24 /opt/gcc-arm-none-eabi-5_4-2016q3/bin/../lib/gcc/arm-none-eabi/5.4.1/../../../../arm-none-eabi/lib/armv7-m/libg_nano.a(lib_a-wctomb_r.o)
 .text          0x00000000        0x0 /opt/gcc-arm-none-eabi-5_4-2016q3/bin/../lib/gcc/arm-none-eabi/5.4.1/../../../../arm-none-eabi/lib/armv7-m/libg_nano.a(lib_a-wsetup.o)
 .data          0x00000000        0x0 /opt/gcc-arm-none-eabi-5_4-2016q3/bin/../lib/gcc/arm-none-eabi/5.4.1/../../../../arm-none-eabi/lib/armv7-m/libg_nano.a(lib_a-wsetup.o)
 .bss           0x00000000        0x0 /opt/gcc-arm-none-eabi-5_4-2016q3/bin/../lib/gcc/arm-none-eabi/5.4.1/../../../../arm-none-eabi/lib/armv7-m/libg_nano.a(lib_a-wsetup.o)
 .text          0x00000000        0x0 /opt/gcc-arm-none-eabi-5_4-2016q3/bin/../lib/gcc/arm-none-eabi/5.4.1/../../../../arm-none-eabi/lib/armv7-m/libg_nano.a(lib_a-ctype_.o)
 .data          0x00000000        0x0 /opt/gcc-arm-none-eabi-5_4-2016q3/bin/../lib/gcc/arm-none-eabi/5.4.1/../../../../arm-none-eabi/lib/armv7-m/libg_nano.a(lib_a-ctype_.o)
 .bss           0x00000000        0x0 /opt/gcc-arm-none-eabi-5_4-2016q3/bin/../lib/gcc/arm-none-eabi/5.4.1/../../../../arm-none-eabi/lib/armv7-m/libg_nano.a(lib_a-ctype_.o)
 .text          0x00000000        0x0 /opt/gcc-arm-none-eabi-5_4-2016q3/bin/../lib/gcc/arm-none-eabi/5.4.1/../../../../arm-none-eabi/lib/armv7-m/libg_nano.a(lib_a-fflush.o)
 .data          0x00000000        0x0 /opt/gcc-arm-none-eabi-5_4-2016q3/bin/../lib/gcc/arm-none-eabi/5.4.1/../../../../arm-none-eabi/lib/armv7-m/libg_nano.a(lib_a-fflush.o)
 .bss           0x00000000        0x0 /opt/gcc-arm-none-eabi-5_4-2016q3/bin/../lib/gcc/arm-none-eabi/5.4.1/../../../../arm-none-eabi/lib/armv7-m/libg_nano.a(lib_a-fflush.o)
 .text.fflush   0x00000000       0x24 /opt/gcc-arm-none-eabi-5_4-2016q3/bin/../lib/gcc/arm-none-eabi/5.4.1/../../../../arm-none-eabi/lib/armv7-m/libg_nano.a(lib_a-fflush.o)
 .text          0x00000000        0x0 /opt/gcc-arm-none-eabi-5_4-2016q3/bin/../lib/gcc/arm-none-eabi/5.4.1/../../../../arm-none-eabi/lib/armv7-m/libg_nano.a(lib_a-findfp.o)
 .data          0x00000000        0x0 /opt/gcc-arm-none-eabi-5_4-2016q3/bin/../lib/gcc/arm-none-eabi/5.4.1/../../../../arm-none-eabi/lib/armv7-m/libg_nano.a(lib_a-findfp.o)
 .bss           0x00000000        0x0 /opt/gcc-arm-none-eabi-5_4-2016q3/bin/../lib/gcc/arm-none-eabi/5.4.1/../../../../arm-none-eabi/lib/armv7-m/libg_nano.a(lib_a-findfp.o)
 .text.__fp_unlock
                0x00000000        0x4 /opt/gcc-arm-none-eabi-5_4-2016q3/bin/../lib/gcc/arm-none-eabi/5.4.1/../../../../arm-none-eabi/lib/armv7-m/libg_nano.a(lib_a-findfp.o)
 .text.__fp_lock
                0x00000000        0x4 /opt/gcc-arm-none-eabi-5_4-2016q3/bin/../lib/gcc/arm-none-eabi/5.4.1/../../../../arm-none-eabi/lib/armv7-m/libg_nano.a(lib_a-findfp.o)
 .text._cleanup
                0x00000000        0xc /opt/gcc-arm-none-eabi-5_4-2016q3/bin/../lib/gcc/arm-none-eabi/5.4.1/../../../../arm-none-eabi/lib/armv7-m/libg_nano.a(lib_a-findfp.o)
 .text.__sfp_lock_acquire
                0x00000000        0x2 /opt/gcc-arm-none-eabi-5_4-2016q3/bin/../lib/gcc/arm-none-eabi/5.4.1/../../../../arm-none-eabi/lib/armv7-m/libg_nano.a(lib_a-findfp.o)
 .text.__sfp_lock_release
                0x00000000        0x2 /opt/gcc-arm-none-eabi-5_4-2016q3/bin/../lib/gcc/arm-none-eabi/5.4.1/../../../../arm-none-eabi/lib/armv7-m/libg_nano.a(lib_a-findfp.o)
 .text.__sinit_lock_acquire
                0x00000000        0x2 /opt/gcc-arm-none-eabi-5_4-2016q3/bin/../lib/gcc/arm-none-eabi/5.4.1/../../../../arm-none-eabi/lib/armv7-m/libg_nano.a(lib_a-findfp.o)
 .text.__sinit_lock_release
                0x00000000        0x2 /opt/gcc-arm-none-eabi-5_4-2016q3/bin/../lib/gcc/arm-none-eabi/5.4.1/../../../../arm-none-eabi/lib/armv7-m/libg_nano.a(lib_a-findfp.o)
 .text.__fp_lock_all
                0x00000000       0x14 /opt/gcc-arm-none-eabi-5_4-2016q3/bin/../lib/gcc/arm-none-eabi/5.4.1/../../../../arm-none-eabi/lib/armv7-m/libg_nano.a(lib_a-findfp.o)
 .text.__fp_unlock_all
                0x00000000       0x14 /opt/gcc-arm-none-eabi-5_4-2016q3/bin/../lib/gcc/arm-none-eabi/5.4.1/../../../../arm-none-eabi/lib/armv7-m/libg_nano.a(lib_a-findfp.o)
 .text          0x00000000        0x0 /opt/gcc-arm-none-eabi-5_4-2016q3/bin/../lib/gcc/arm-none-eabi/5.4.1/../../../../arm-none-eabi/lib/armv7-m/libg_nano.a(lib_a-fwalk.o)
 .data          0x00000000        0x0 /opt/gcc-arm-none-eabi-5_4-2016q3/bin/../lib/gcc/arm-none-eabi/5.4.1/../../../../arm-none-eabi/lib/armv7-m/libg_nano.a(lib_a-fwalk.o)
 .bss           0x00000000        0x0 /opt/gcc-arm-none-eabi-5_4-2016q3/bin/../lib/gcc/arm-none-eabi/5.4.1/../../../../arm-none-eabi/lib/armv7-m/libg_nano.a(lib_a-fwalk.o)
 .text._fwalk   0x00000000       0x38 /opt/gcc-arm-none-eabi-5_4-2016q3/bin/../lib/gcc/arm-none-eabi/5.4.1/../../../../arm-none-eabi/lib/armv7-m/libg_nano.a(lib_a-fwalk.o)
 .text          0x00000000        0x0 /opt/gcc-arm-none-eabi-5_4-2016q3/bin/../lib/gcc/arm-none-eabi/5.4.1/../../../../arm-none-eabi/lib/armv7-m/libg_nano.a(lib_a-makebuf.o)
 .data          0x00000000        0x0 /opt/gcc-arm-none-eabi-5_4-2016q3/bin/../lib/gcc/arm-none-eabi/5.4.1/../../../../arm-none-eabi/lib/armv7-m/libg_nano.a(lib_a-makebuf.o)
 .bss           0x00000000        0x0 /opt/gcc-arm-none-eabi-5_4-2016q3/bin/../lib/gcc/arm-none-eabi/5.4.1/../../../../arm-none-eabi/lib/armv7-m/libg_nano.a(lib_a-makebuf.o)
 .text          0x00000000        0x0 /opt/gcc-arm-none-eabi-5_4-2016q3/bin/../lib/gcc/arm-none-eabi/5.4.1/../../../../arm-none-eabi/lib/armv7-m/libg_nano.a(lib_a-nano-freer.o)
 .data          0x00000000        0x0 /opt/gcc-arm-none-eabi-5_4-2016q3/bin/../lib/gcc/arm-none-eabi/5.4.1/../../../../arm-none-eabi/lib/armv7-m/libg_nano.a(lib_a-nano-freer.o)
 .bss           0x00000000        0x0 /opt/gcc-arm-none-eabi-5_4-2016q3/bin/../lib/gcc/arm-none-eabi/5.4.1/../../../../arm-none-eabi/lib/armv7-m/libg_nano.a(lib_a-nano-freer.o)
 .text          0x00000000        0x0 /opt/gcc-arm-none-eabi-5_4-2016q3/bin/../lib/gcc/arm-none-eabi/5.4.1/../../../../arm-none-eabi/lib/armv7-m/libg_nano.a(lib_a-nano-mallocr.o)
 .data          0x00000000        0x0 /opt/gcc-arm-none-eabi-5_4-2016q3/bin/../lib/gcc/arm-none-eabi/5.4.1/../../../../arm-none-eabi/lib/armv7-m/libg_nano.a(lib_a-nano-mallocr.o)
 .bss           0x00000000        0x0 /opt/gcc-arm-none-eabi-5_4-2016q3/bin/../lib/gcc/arm-none-eabi/5.4.1/../../../../arm-none-eabi/lib/armv7-m/libg_nano.a(lib_a-nano-mallocr.o)
 .text          0x00000000        0x0 /opt/gcc-arm-none-eabi-5_4-2016q3/bin/../lib/gcc/arm-none-eabi/5.4.1/../../../../arm-none-eabi/lib/armv7-m/libg_nano.a(lib_a-nano-vfprintf.o)
 .data          0x00000000        0x0 /opt/gcc-arm-none-eabi-5_4-2016q3/bin/../lib/gcc/arm-none-eabi/5.4.1/../../../../arm-none-eabi/lib/armv7-m/libg_nano.a(lib_a-nano-vfprintf.o)
 .bss           0x00000000        0x0 /opt/gcc-arm-none-eabi-5_4-2016q3/bin/../lib/gcc/arm-none-eabi/5.4.1/../../../../arm-none-eabi/lib/armv7-m/libg_nano.a(lib_a-nano-vfprintf.o)
 .text.__sprint_r
                0x00000000       0x1a /opt/gcc-arm-none-eabi-5_4-2016q3/bin/../lib/gcc/arm-none-eabi/5.4.1/../../../../arm-none-eabi/lib/armv7-m/libg_nano.a(lib_a-nano-vfprintf.o)
 .text.vfprintf
                0x00000000       0x14 /opt/gcc-arm-none-eabi-5_4-2016q3/bin/../lib/gcc/arm-none-eabi/5.4.1/../../../../arm-none-eabi/lib/armv7-m/libg_nano.a(lib_a-nano-vfprintf.o)
 .text          0x00000000        0x0 /opt/gcc-arm-none-eabi-5_4-2016q3/bin/../lib/gcc/arm-none-eabi/5.4.1/../../../../arm-none-eabi/lib/armv7-m/libg_nano.a(lib_a-nano-vfprintf_i.o)
 .data          0x00000000        0x0 /opt/gcc-arm-none-eabi-5_4-2016q3/bin/../lib/gcc/arm-none-eabi/5.4.1/../../../../arm-none-eabi/lib/armv7-m/libg_nano.a(lib_a-nano-vfprintf_i.o)
 .bss           0x00000000        0x0 /opt/gcc-arm-none-eabi-5_4-2016q3/bin/../lib/gcc/arm-none-eabi/5.4.1/../../../../arm-none-eabi/lib/armv7-m/libg_nano.a(lib_a-nano-vfprintf_i.o)
 .text          0x00000000        0x0 /opt/gcc-arm-none-eabi-5_4-2016q3/bin/../lib/gcc/arm-none-eabi/5.4.1/../../../../arm-none-eabi/lib/armv7-m/libg_nano.a(lib_a-sbrkr.o)
 .data          0x00000000        0x0 /opt/gcc-arm-none-eabi-5_4-2016q3/bin/../lib/gcc/arm-none-eabi/5.4.1/../../../../arm-none-eabi/lib/armv7-m/libg_nano.a(lib_a-sbrkr.o)
 .bss           0x00000000        0x0 /opt/gcc-arm-none-eabi-5_4-2016q3/bin/../lib/gcc/arm-none-eabi/5.4.1/../../../../arm-none-eabi/lib/armv7-m/libg_nano.a(lib_a-sbrkr.o)
 .text          0x00000000        0x0 /opt/gcc-arm-none-eabi-5_4-2016q3/bin/../lib/gcc/arm-none-eabi/5.4.1/../../../../arm-none-eabi/lib/armv7-m/libg_nano.a(lib_a-stdio.o)
 .data          0x00000000        0x0 /opt/gcc-arm-none-eabi-5_4-2016q3/bin/../lib/gcc/arm-none-eabi/5.4.1/../../../../arm-none-eabi/lib/armv7-m/libg_nano.a(lib_a-stdio.o)
 .bss           0x00000000        0x0 /opt/gcc-arm-none-eabi-5_4-2016q3/bin/../lib/gcc/arm-none-eabi/5.4.1/../../../../arm-none-eabi/lib/armv7-m/libg_nano.a(lib_a-stdio.o)
 .text.__seofread
                0x00000000        0x4 /opt/gcc-arm-none-eabi-5_4-2016q3/bin/../lib/gcc/arm-none-eabi/5.4.1/../../../../arm-none-eabi/lib/armv7-m/libg_nano.a(lib_a-stdio.o)
 .text          0x00000000        0x0 /opt/gcc-arm-none-eabi-5_4-2016q3/bin/../lib/gcc/arm-none-eabi/5.4.1/../../../../arm-none-eabi/lib/armv7-m/libg_nano.a(lib_a-writer.o)
 .data          0x00000000        0x0 /opt/gcc-arm-none-eabi-5_4-2016q3/bin/../lib/gcc/arm-none-eabi/5.4.1/../../../../arm-none-eabi/lib/armv7-m/libg_nano.a(lib_a-writer.o)
 .bss           0x00000000        0x0 /opt/gcc-arm-none-eabi-5_4-2016q3/bin/../lib/gcc/arm-none-eabi/5.4.1/../../../../arm-none-eabi/lib/armv7-m/libg_nano.a(lib_a-writer.o)
 .text          0x00000000        0x0 /opt/gcc-arm-none-eabi-5_4-2016q3/bin/../lib/gcc/arm-none-eabi/5.4.1/../../../../arm-none-eabi/lib/armv7-m/libg_nano.a(lib_a-closer.o)
 .data          0x00000000        0x0 /opt/gcc-arm-none-eabi-5_4-2016q3/bin/../lib/gcc/arm-none-eabi/5.4.1/../../../../arm-none-eabi/lib/armv7-m/libg_nano.a(lib_a-closer.o)
 .bss           0x00000000        0x0 /opt/gcc-arm-none-eabi-5_4-2016q3/bin/../lib/gcc/arm-none-eabi/5.4.1/../../../../arm-none-eabi/lib/armv7-m/libg_nano.a(lib_a-closer.o)
 .text          0x00000000        0x0 /opt/gcc-arm-none-eabi-5_4-2016q3/bin/../lib/gcc/arm-none-eabi/5.4.1/../../../../arm-none-eabi/lib/armv7-m/libg_nano.a(lib_a-fstatr.o)
 .data          0x00000000        0x0 /opt/gcc-arm-none-eabi-5_4-2016q3/bin/../lib/gcc/arm-none-eabi/5.4.1/../../../../arm-none-eabi/lib/armv7-m/libg_nano.a(lib_a-fstatr.o)
 .bss           0x00000000        0x0 /opt/gcc-arm-none-eabi-5_4-2016q3/bin/../lib/gcc/arm-none-eabi/5.4.1/../../../../arm-none-eabi/lib/armv7-m/libg_nano.a(lib_a-fstatr.o)
 .text          0x00000000        0x0 /opt/gcc-arm-none-eabi-5_4-2016q3/bin/../lib/gcc/arm-none-eabi/5.4.1/../../../../arm-none-eabi/lib/armv7-m/libg_nano.a(lib_a-fvwrite.o)
 .data          0x00000000        0x0 /opt/gcc-arm-none-eabi-5_4-2016q3/bin/../lib/gcc/arm-none-eabi/5.4.1/../../../../arm-none-eabi/lib/armv7-m/libg_nano.a(lib_a-fvwrite.o)
 .bss           0x00000000        0x0 /opt/gcc-arm-none-eabi-5_4-2016q3/bin/../lib/gcc/arm-none-eabi/5.4.1/../../../../arm-none-eabi/lib/armv7-m/libg_nano.a(lib_a-fvwrite.o)
 .text.__sfvwrite_r
                0x00000000      0x294 /opt/gcc-arm-none-eabi-5_4-2016q3/bin/../lib/gcc/arm-none-eabi/5.4.1/../../../../arm-none-eabi/lib/armv7-m/libg_nano.a(lib_a-fvwrite.o)
 .debug_frame   0x00000000       0x3c /opt/gcc-arm-none-eabi-5_4-2016q3/bin/../lib/gcc/arm-none-eabi/5.4.1/../../../../arm-none-eabi/lib/armv7-m/libg_nano.a(lib_a-fvwrite.o)
 .ARM.attributes
                0x00000000       0x2d /opt/gcc-arm-none-eabi-5_4-2016q3/bin/../lib/gcc/arm-none-eabi/5.4.1/../../../../arm-none-eabi/lib/armv7-m/libg_nano.a(lib_a-fvwrite.o)
 .text          0x00000000        0x0 /opt/gcc-arm-none-eabi-5_4-2016q3/bin/../lib/gcc/arm-none-eabi/5.4.1/../../../../arm-none-eabi/lib/armv7-m/libg_nano.a(lib_a-isattyr.o)
 .data          0x00000000        0x0 /opt/gcc-arm-none-eabi-5_4-2016q3/bin/../lib/gcc/arm-none-eabi/5.4.1/../../../../arm-none-eabi/lib/armv7-m/libg_nano.a(lib_a-isattyr.o)
 .bss           0x00000000        0x0 /opt/gcc-arm-none-eabi-5_4-2016q3/bin/../lib/gcc/arm-none-eabi/5.4.1/../../../../arm-none-eabi/lib/armv7-m/libg_nano.a(lib_a-isattyr.o)
 .text          0x00000000        0x0 /opt/gcc-arm-none-eabi-5_4-2016q3/bin/../lib/gcc/arm-none-eabi/5.4.1/../../../../arm-none-eabi/lib/armv7-m/libg_nano.a(lib_a-lseekr.o)
 .data          0x00000000        0x0 /opt/gcc-arm-none-eabi-5_4-2016q3/bin/../lib/gcc/arm-none-eabi/5.4.1/../../../../arm-none-eabi/lib/armv7-m/libg_nano.a(lib_a-lseekr.o)
 .bss           0x00000000        0x0 /opt/gcc-arm-none-eabi-5_4-2016q3/bin/../lib/gcc/arm-none-eabi/5.4.1/../../../../arm-none-eabi/lib/armv7-m/libg_nano.a(lib_a-lseekr.o)
 .text          0x00000000        0x0 /opt/gcc-arm-none-eabi-5_4-2016q3/bin/../lib/gcc/arm-none-eabi/5.4.1/../../../../arm-none-eabi/lib/armv7-m/libg_nano.a(lib_a-memchr-stub.o)
 .data          0x00000000        0x0 /opt/gcc-arm-none-eabi-5_4-2016q3/bin/../lib/gcc/arm-none-eabi/5.4.1/../../../../arm-none-eabi/lib/armv7-m/libg_nano.a(lib_a-memchr-stub.o)
 .bss           0x00000000        0x0 /opt/gcc-arm-none-eabi-5_4-2016q3/bin/../lib/gcc/arm-none-eabi/5.4.1/../../../../arm-none-eabi/lib/armv7-m/libg_nano.a(lib_a-memchr-stub.o)
 .text          0x00000000        0x0 /opt/gcc-arm-none-eabi-5_4-2016q3/bin/../lib/gcc/arm-none-eabi/5.4.1/../../../../arm-none-eabi/lib/armv7-m/libg_nano.a(lib_a-memmove.o)
 .data          0x00000000        0x0 /opt/gcc-arm-none-eabi-5_4-2016q3/bin/../lib/gcc/arm-none-eabi/5.4.1/../../../../arm-none-eabi/lib/armv7-m/libg_nano.a(lib_a-memmove.o)
 .bss           0x00000000        0x0 /opt/gcc-arm-none-eabi-5_4-2016q3/bin/../lib/gcc/arm-none-eabi/5.4.1/../../../../arm-none-eabi/lib/armv7-m/libg_nano.a(lib_a-memmove.o)
 .text.memmove  0x00000000       0x36 /opt/gcc-arm-none-eabi-5_4-2016q3/bin/../lib/gcc/arm-none-eabi/5.4.1/../../../../arm-none-eabi/lib/armv7-m/libg_nano.a(lib_a-memmove.o)
 .debug_frame   0x00000000       0x28 /opt/gcc-arm-none-eabi-5_4-2016q3/bin/../lib/gcc/arm-none-eabi/5.4.1/../../../../arm-none-eabi/lib/armv7-m/libg_nano.a(lib_a-memmove.o)
 .ARM.attributes
                0x00000000       0x2d /opt/gcc-arm-none-eabi-5_4-2016q3/bin/../lib/gcc/arm-none-eabi/5.4.1/../../../../arm-none-eabi/lib/armv7-m/libg_nano.a(lib_a-memmove.o)
 .text          0x00000000        0x0 /opt/gcc-arm-none-eabi-5_4-2016q3/bin/../lib/gcc/arm-none-eabi/5.4.1/../../../../arm-none-eabi/lib/armv7-m/libg_nano.a(lib_a-mlock.o)
 .data          0x00000000        0x0 /opt/gcc-arm-none-eabi-5_4-2016q3/bin/../lib/gcc/arm-none-eabi/5.4.1/../../../../arm-none-eabi/lib/armv7-m/libg_nano.a(lib_a-mlock.o)
 .bss           0x00000000        0x0 /opt/gcc-arm-none-eabi-5_4-2016q3/bin/../lib/gcc/arm-none-eabi/5.4.1/../../../../arm-none-eabi/lib/armv7-m/libg_nano.a(lib_a-mlock.o)
 .text          0x00000000        0x0 /opt/gcc-arm-none-eabi-5_4-2016q3/bin/../lib/gcc/arm-none-eabi/5.4.1/../../../../arm-none-eabi/lib/armv7-m/libg_nano.a(lib_a-nano-reallocr.o)
 .data          0x00000000        0x0 /opt/gcc-arm-none-eabi-5_4-2016q3/bin/../lib/gcc/arm-none-eabi/5.4.1/../../../../arm-none-eabi/lib/armv7-m/libg_nano.a(lib_a-nano-reallocr.o)
 .bss           0x00000000        0x0 /opt/gcc-arm-none-eabi-5_4-2016q3/bin/../lib/gcc/arm-none-eabi/5.4.1/../../../../arm-none-eabi/lib/armv7-m/libg_nano.a(lib_a-nano-reallocr.o)
 .text._realloc_r
                0x00000000       0x4c /opt/gcc-arm-none-eabi-5_4-2016q3/bin/../lib/gcc/arm-none-eabi/5.4.1/../../../../arm-none-eabi/lib/armv7-m/libg_nano.a(lib_a-nano-reallocr.o)
 .debug_frame   0x00000000       0x3c /opt/gcc-arm-none-eabi-5_4-2016q3/bin/../lib/gcc/arm-none-eabi/5.4.1/../../../../arm-none-eabi/lib/armv7-m/libg_nano.a(lib_a-nano-reallocr.o)
 .ARM.attributes
                0x00000000       0x2d /opt/gcc-arm-none-eabi-5_4-2016q3/bin/../lib/gcc/arm-none-eabi/5.4.1/../../../../arm-none-eabi/lib/armv7-m/libg_nano.a(lib_a-nano-reallocr.o)
 .text          0x00000000        0x0 /opt/gcc-arm-none-eabi-5_4-2016q3/bin/../lib/gcc/arm-none-eabi/5.4.1/../../../../arm-none-eabi/lib/armv7-m/libg_nano.a(lib_a-readr.o)
 .data          0x00000000        0x0 /opt/gcc-arm-none-eabi-5_4-2016q3/bin/../lib/gcc/arm-none-eabi/5.4.1/../../../../arm-none-eabi/lib/armv7-m/libg_nano.a(lib_a-readr.o)
 .bss           0x00000000        0x0 /opt/gcc-arm-none-eabi-5_4-2016q3/bin/../lib/gcc/arm-none-eabi/5.4.1/../../../../arm-none-eabi/lib/armv7-m/libg_nano.a(lib_a-readr.o)
 .text          0x00000000        0x0 /opt/gcc-arm-none-eabi-5_4-2016q3/bin/../lib/gcc/arm-none-eabi/5.4.1/../../../../arm-none-eabi/lib/armv7-m/libg_nano.a(lib_a-reent.o)
 .data          0x00000000        0x0 /opt/gcc-arm-none-eabi-5_4-2016q3/bin/../lib/gcc/arm-none-eabi/5.4.1/../../../../arm-none-eabi/lib/armv7-m/libg_nano.a(lib_a-reent.o)
 .bss           0x00000000        0x0 /opt/gcc-arm-none-eabi-5_4-2016q3/bin/../lib/gcc/arm-none-eabi/5.4.1/../../../../arm-none-eabi/lib/armv7-m/libg_nano.a(lib_a-reent.o)
 .text.cleanup_glue
                0x00000000       0x1a /opt/gcc-arm-none-eabi-5_4-2016q3/bin/../lib/gcc/arm-none-eabi/5.4.1/../../../../arm-none-eabi/lib/armv7-m/libg_nano.a(lib_a-reent.o)
 .text._reclaim_reent
                0x00000000       0xb4 /opt/gcc-arm-none-eabi-5_4-2016q3/bin/../lib/gcc/arm-none-eabi/5.4.1/../../../../arm-none-eabi/lib/armv7-m/libg_nano.a(lib_a-reent.o)
 .text          0x00000000        0x0 /opt/gcc-arm-none-eabi-5_4-2016q3/bin/../lib/gcc/arm-none-eabi/5.4.1/../../../../arm-none-eabi/lib/armv7-m/libg_nano.a(lib_a-nano-msizer.o)
 .data          0x00000000        0x0 /opt/gcc-arm-none-eabi-5_4-2016q3/bin/../lib/gcc/arm-none-eabi/5.4.1/../../../../arm-none-eabi/lib/armv7-m/libg_nano.a(lib_a-nano-msizer.o)
 .bss           0x00000000        0x0 /opt/gcc-arm-none-eabi-5_4-2016q3/bin/../lib/gcc/arm-none-eabi/5.4.1/../../../../arm-none-eabi/lib/armv7-m/libg_nano.a(lib_a-nano-msizer.o)
 .text._malloc_usable_size_r
                0x00000000       0x14 /opt/gcc-arm-none-eabi-5_4-2016q3/bin/../lib/gcc/arm-none-eabi/5.4.1/../../../../arm-none-eabi/lib/armv7-m/libg_nano.a(lib_a-nano-msizer.o)
 .debug_frame   0x00000000       0x20 /opt/gcc-arm-none-eabi-5_4-2016q3/bin/../lib/gcc/arm-none-eabi/5.4.1/../../../../arm-none-eabi/lib/armv7-m/libg_nano.a(lib_a-nano-msizer.o)
 .ARM.attributes
                0x00000000       0x2d /opt/gcc-arm-none-eabi-5_4-2016q3/bin/../lib/gcc/arm-none-eabi/5.4.1/../../../../arm-none-eabi/lib/armv7-m/libg_nano.a(lib_a-nano-msizer.o)
 .text          0x00000000        0x0 /opt/gcc-arm-none-eabi-5_4-2016q3/bin/../lib/gcc/arm-none-eabi/5.4.1/../../../../arm-none-eabi/lib/armv7-m/libnosys.a(close.o)
 .data          0x00000000        0x0 /opt/gcc-arm-none-eabi-5_4-2016q3/bin/../lib/gcc/arm-none-eabi/5.4.1/../../../../arm-none-eabi/lib/armv7-m/libnosys.a(close.o)
 .bss           0x00000000        0x0 /opt/gcc-arm-none-eabi-5_4-2016q3/bin/../lib/gcc/arm-none-eabi/5.4.1/../../../../arm-none-eabi/lib/armv7-m/libnosys.a(close.o)
 .text          0x00000000        0x0 /opt/gcc-arm-none-eabi-5_4-2016q3/bin/../lib/gcc/arm-none-eabi/5.4.1/../../../../arm-none-eabi/lib/armv7-m/libnosys.a(fstat.o)
 .data          0x00000000        0x0 /opt/gcc-arm-none-eabi-5_4-2016q3/bin/../lib/gcc/arm-none-eabi/5.4.1/../../../../arm-none-eabi/lib/armv7-m/libnosys.a(fstat.o)
 .bss           0x00000000        0x0 /opt/gcc-arm-none-eabi-5_4-2016q3/bin/../lib/gcc/arm-none-eabi/5.4.1/../../../../arm-none-eabi/lib/armv7-m/libnosys.a(fstat.o)
 .text          0x00000000        0x0 /opt/gcc-arm-none-eabi-5_4-2016q3/bin/../lib/gcc/arm-none-eabi/5.4.1/../../../../arm-none-eabi/lib/armv7-m/libnosys.a(isatty.o)
 .data          0x00000000        0x0 /opt/gcc-arm-none-eabi-5_4-2016q3/bin/../lib/gcc/arm-none-eabi/5.4.1/../../../../arm-none-eabi/lib/armv7-m/libnosys.a(isatty.o)
 .bss           0x00000000        0x0 /opt/gcc-arm-none-eabi-5_4-2016q3/bin/../lib/gcc/arm-none-eabi/5.4.1/../../../../arm-none-eabi/lib/armv7-m/libnosys.a(isatty.o)
 .text          0x00000000        0x0 /opt/gcc-arm-none-eabi-5_4-2016q3/bin/../lib/gcc/arm-none-eabi/5.4.1/../../../../arm-none-eabi/lib/armv7-m/libnosys.a(lseek.o)
 .data          0x00000000        0x0 /opt/gcc-arm-none-eabi-5_4-2016q3/bin/../lib/gcc/arm-none-eabi/5.4.1/../../../../arm-none-eabi/lib/armv7-m/libnosys.a(lseek.o)
 .bss           0x00000000        0x0 /opt/gcc-arm-none-eabi-5_4-2016q3/bin/../lib/gcc/arm-none-eabi/5.4.1/../../../../arm-none-eabi/lib/armv7-m/libnosys.a(lseek.o)
 .text          0x00000000        0x0 /opt/gcc-arm-none-eabi-5_4-2016q3/bin/../lib/gcc/arm-none-eabi/5.4.1/../../../../arm-none-eabi/lib/armv7-m/libnosys.a(read.o)
 .data          0x00000000        0x0 /opt/gcc-arm-none-eabi-5_4-2016q3/bin/../lib/gcc/arm-none-eabi/5.4.1/../../../../arm-none-eabi/lib/armv7-m/libnosys.a(read.o)
 .bss           0x00000000        0x0 /opt/gcc-arm-none-eabi-5_4-2016q3/bin/../lib/gcc/arm-none-eabi/5.4.1/../../../../arm-none-eabi/lib/armv7-m/libnosys.a(read.o)
 .text          0x00000000        0x0 /opt/gcc-arm-none-eabi-5_4-2016q3/bin/../lib/gcc/arm-none-eabi/5.4.1/../../../../arm-none-eabi/lib/armv7-m/libnosys.a(sbrk.o)
 .data          0x00000000        0x0 /opt/gcc-arm-none-eabi-5_4-2016q3/bin/../lib/gcc/arm-none-eabi/5.4.1/../../../../arm-none-eabi/lib/armv7-m/libnosys.a(sbrk.o)
 .bss           0x00000000        0x0 /opt/gcc-arm-none-eabi-5_4-2016q3/bin/../lib/gcc/arm-none-eabi/5.4.1/../../../../arm-none-eabi/lib/armv7-m/libnosys.a(sbrk.o)
 .text          0x00000000        0x0 /opt/gcc-arm-none-eabi-5_4-2016q3/bin/../lib/gcc/arm-none-eabi/5.4.1/../../../../arm-none-eabi/lib/armv7-m/libnosys.a(write.o)
 .data          0x00000000        0x0 /opt/gcc-arm-none-eabi-5_4-2016q3/bin/../lib/gcc/arm-none-eabi/5.4.1/../../../../arm-none-eabi/lib/armv7-m/libnosys.a(write.o)
 .bss           0x00000000        0x0 /opt/gcc-arm-none-eabi-5_4-2016q3/bin/../lib/gcc/arm-none-eabi/5.4.1/../../../../arm-none-eabi/lib/armv7-m/libnosys.a(write.o)
 .text          0x00000000        0x0 /opt/gcc-arm-none-eabi-5_4-2016q3/bin/../lib/gcc/arm-none-eabi/5.4.1/../../../../arm-none-eabi/lib/armv7-m/libnosys.a(_exit.o)
 .data          0x00000000        0x0 /opt/gcc-arm-none-eabi-5_4-2016q3/bin/../lib/gcc/arm-none-eabi/5.4.1/../../../../arm-none-eabi/lib/armv7-m/libnosys.a(_exit.o)
 .bss           0x00000000        0x0 /opt/gcc-arm-none-eabi-5_4-2016q3/bin/../lib/gcc/arm-none-eabi/5.4.1/../../../../arm-none-eabi/lib/armv7-m/libnosys.a(_exit.o)
 .text._exit    0x00000000        0x4 /opt/gcc-arm-none-eabi-5_4-2016q3/bin/../lib/gcc/arm-none-eabi/5.4.1/../../../../arm-none-eabi/lib/armv7-m/libnosys.a(_exit.o)
 .debug_frame   0x00000000       0x20 /opt/gcc-arm-none-eabi-5_4-2016q3/bin/../lib/gcc/arm-none-eabi/5.4.1/../../../../arm-none-eabi/lib/armv7-m/libnosys.a(_exit.o)
 .ARM.attributes
                0x00000000       0x2d /opt/gcc-arm-none-eabi-5_4-2016q3/bin/../lib/gcc/arm-none-eabi/5.4.1/../../../../arm-none-eabi/lib/armv7-m/libnosys.a(_exit.o)
 .text          0x00000000        0x0 /opt/gcc-arm-none-eabi-5_4-2016q3/bin/../lib/gcc/arm-none-eabi/5.4.1/armv7-m/crtend.o
 .data          0x00000000        0x0 /opt/gcc-arm-none-eabi-5_4-2016q3/bin/../lib/gcc/arm-none-eabi/5.4.1/armv7-m/crtend.o
 .bss           0x00000000        0x0 /opt/gcc-arm-none-eabi-5_4-2016q3/bin/../lib/gcc/arm-none-eabi/5.4.1/armv7-m/crtend.o
 .eh_frame      0x00000000        0x4 /opt/gcc-arm-none-eabi-5_4-2016q3/bin/../lib/gcc/arm-none-eabi/5.4.1/armv7-m/crtend.o
 .jcr           0x00000000        0x4 /opt/gcc-arm-none-eabi-5_4-2016q3/bin/../lib/gcc/arm-none-eabi/5.4.1/armv7-m/crtend.o
 .ARM.attributes
                0x00000000       0x2d /opt/gcc-arm-none-eabi-5_4-2016q3/bin/../lib/gcc/arm-none-eabi/5.4.1/armv7-m/crtend.o
 .text          0x00000000        0x0 /opt/gcc-arm-none-eabi-5_4-2016q3/bin/../lib/gcc/arm-none-eabi/5.4.1/armv7-m/crtn.o
 .data          0x00000000        0x0 /opt/gcc-arm-none-eabi-5_4-2016q3/bin/../lib/gcc/arm-none-eabi/5.4.1/armv7-m/crtn.o
 .bss           0x00000000        0x0 /opt/gcc-arm-none-eabi-5_4-2016q3/bin/../lib/gcc/arm-none-eabi/5.4.1/armv7-m/crtn.o

Memory Configuration

Name             Origin             Length             Attributes
FLASH            0x08000000         0x00080000         xr
RAM              0x20000000         0x00020000         xrw
MEMORY_B1        0x60000000         0x00000000         xr
*default*        0x00000000         0xffffffff

Linker script and memory map

LOAD /opt/gcc-arm-none-eabi-5_4-2016q3/bin/../lib/gcc/arm-none-eabi/5.4.1/armv7-m/crti.o
LOAD /opt/gcc-arm-none-eabi-5_4-2016q3/bin/../lib/gcc/arm-none-eabi/5.4.1/armv7-m/crtbegin.o
LOAD /opt/gcc-arm-none-eabi-5_4-2016q3/bin/../lib/gcc/arm-none-eabi/5.4.1/../../../../arm-none-eabi/lib/armv7-m/crt0.o
LOAD /home/huyong/Public/github/switft/build/startup_stm32f2xx.o
LOAD /home/huyong/Public/github/switft/build/system_stm32f2xx.o
LOAD /home/huyong/Public/github/switft/build/main.o
LOAD /home/huyong/Public/github/switft/build//libxxyyzz.a
START GROUP
LOAD /opt/gcc-arm-none-eabi-5_4-2016q3/bin/../lib/gcc/arm-none-eabi/5.4.1/armv7-m/libgcc.a
LOAD /opt/gcc-arm-none-eabi-5_4-2016q3/bin/../lib/gcc/arm-none-eabi/5.4.1/../../../../arm-none-eabi/lib/armv7-m/libg_nano.a
LOAD /opt/gcc-arm-none-eabi-5_4-2016q3/bin/../lib/gcc/arm-none-eabi/5.4.1/../../../../arm-none-eabi/lib/armv7-m/libc_nano.a
END GROUP
START GROUP
LOAD /opt/gcc-arm-none-eabi-5_4-2016q3/bin/../lib/gcc/arm-none-eabi/5.4.1/armv7-m/libgcc.a
LOAD /opt/gcc-arm-none-eabi-5_4-2016q3/bin/../lib/gcc/arm-none-eabi/5.4.1/../../../../arm-none-eabi/lib/armv7-m/libc_nano.a
LOAD /opt/gcc-arm-none-eabi-5_4-2016q3/bin/../lib/gcc/arm-none-eabi/5.4.1/../../../../arm-none-eabi/lib/armv7-m/libnosys.a
END GROUP
START GROUP
LOAD /opt/gcc-arm-none-eabi-5_4-2016q3/bin/../lib/gcc/arm-none-eabi/5.4.1/armv7-m/libgcc.a
LOAD /opt/gcc-arm-none-eabi-5_4-2016q3/bin/../lib/gcc/arm-none-eabi/5.4.1/../../../../arm-none-eabi/lib/armv7-m/libc_nano.a
LOAD /opt/gcc-arm-none-eabi-5_4-2016q3/bin/../lib/gcc/arm-none-eabi/5.4.1/../../../../arm-none-eabi/lib/armv7-m/libnosys.a
END GROUP
LOAD /opt/gcc-arm-none-eabi-5_4-2016q3/bin/../lib/gcc/arm-none-eabi/5.4.1/armv7-m/crtend.o
LOAD /opt/gcc-arm-none-eabi-5_4-2016q3/bin/../lib/gcc/arm-none-eabi/5.4.1/armv7-m/crtn.o
                0x20020000                _estack = 0x20020000
                0x00002048                _Min_Heap_Size = 0x2048
                0x00002048                _Min_Stack_Size = 0x2048

.isr_vector     0x08000000      0x184
                0x08000000                . = ALIGN (0x4)
 *(.isr_vector)
 .isr_vector    0x08000000      0x184 /home/huyong/Public/github/switft/build/startup_stm32f2xx.o
                0x08000000                g_pfnVectors
                0x08000184                . = ALIGN (0x4)

.text           0x08000184    0x187e8
                0x08000184                . = ALIGN (0x4)
 *(.text)
 .text          0x08000184       0x5c /opt/gcc-arm-none-eabi-5_4-2016q3/bin/../lib/gcc/arm-none-eabi/5.4.1/armv7-m/crtbegin.o
 .text          0x080001e0      0x15c /home/huyong/Public/github/switft/build/system_stm32f2xx.o
                0x080001e0                SystemInit
                0x080002c0                SystemCoreClockUpdate
 .text          0x0800033c      0x200 /home/huyong/Public/github/switft/build/main.o
                0x08000448                TaskSatelliteTrackDel
                0x0800046c                TaskSatelliteTrackCreate
                0x080004b4                TaskAntennaRecordGotoDel
                0x080004c0                TaskAntennaRecordGotoCreate
                0x080004cc                TaskSatGradientTrackDel
                0x080004f0                TaskSatGradientTrackCreate
                0x08000538                AppObjCreate
 .text          0x0800053c       0x28 /home/huyong/Public/github/switft/build//libxxyyzz.a(app_shell.o)
                0x0800053c                APP_Shell_Init
 .text          0x08000564      0x634 /home/huyong/Public/github/switft/build//libxxyyzz.a(bsp.o)
                0x08000564                BSP_Init
                0x08000574                BSP_RNG_Read
                0x080005bc                BSP_CPU_ClkFreq
                0x080005d0                BSP_CPU_TickInit
                0x080005f4                BSP_PSRAM_Init
                0x080008a8                BSP_SRAM_Init
                0x08000b28                BSP_SoftReset
                0x08000b50                CPU_TS_TmrInit
                0x08000b8c                CPU_TS_TmrRd
 .text          0x08000b98       0x74 /home/huyong/Public/github/switft/build//libxxyyzz.a(bsp_delay.o)
                0x08000b98                BSP_Delay_ms
                0x08000bd4                BSP_Delay_s
                0x08000c08                BSP_Delay_us
 .text          0x08000c0c      0x2a0 /home/huyong/Public/github/switft/build//libxxyyzz.a(bsp_int.o)
                0x08000c40                BSP_IntClr
                0x08000c44                BSP_IntDis
                0x08000c54                BSP_IntDisAll
                0x08000c58                BSP_IntEn
                0x08000c68                BSP_IntVectSet
                0x08000c8c                BSP_IntPrioSet
                0x08000cb4                BSP_IntInit
                0x08000cd8                BSP_IntHandlerWWDG
                0x08000cdc                BSP_IntHandlerPVD
                0x08000ce0                BSP_IntHandlerTAMPER
                0x08000ce4                BSP_IntHandlerRTC
                0x08000ce8                BSP_IntHandlerFLASH
                0x08000cec                BSP_IntHandlerRCC
                0x08000cf0                BSP_IntHandlerEXTI0
                0x08000cf4                BSP_IntHandlerEXTI1
                0x08000cf8                BSP_IntHandlerEXTI2
                0x08000cfc                BSP_IntHandlerEXTI3
                0x08000d00                BSP_IntHandlerEXTI4
                0x08000d04                BSP_IntHandlerDMA1_CH1
                0x08000d08                BSP_IntHandlerDMA1_CH2
                0x08000d0c                BSP_IntHandlerDMA1_CH3
                0x08000d10                BSP_IntHandlerDMA1_CH4
                0x08000d14                BSP_IntHandlerDMA1_CH5
                0x08000d18                BSP_IntHandlerDMA1_CH6
                0x08000d1c                BSP_IntHandlerDMA1_CH7
                0x08000d20                BSP_IntHandlerADC1_2
                0x08000d24                BSP_IntHandlerCAN1_TX
                0x08000d28                BSP_IntHandlerCAN1_RX0
                0x08000d2c                BSP_IntHandlerCAN1_RX1
                0x08000d30                BSP_IntHandlerCAN1_SCE
                0x08000d34                BSP_IntHandlerEXTI9_5
                0x08000d38                BSP_IntHandlerTIM1_BRK
                0x08000d3c                BSP_IntHandlerTIM1_UP
                0x08000d40                BSP_IntHandlerTIM1_TRG_COM
                0x08000d44                BSP_IntHandlerTIM1_CC
                0x08000d48                BSP_IntHandlerTIM2
                0x08000d4c                BSP_IntHandlerTIM3
                0x08000d50                BSP_IntHandlerTIM4
                0x08000d54                BSP_IntHandlerI2C1_EV
                0x08000d58                BSP_IntHandlerI2C1_ER
                0x08000d5c                BSP_IntHandlerI2C2_EV
                0x08000d60                BSP_IntHandlerI2C2_ER
                0x08000d64                BSP_IntHandlerSPI1
                0x08000d68                BSP_IntHandlerSPI2
                0x08000d6c                BSP_IntHandlerUSART1
                0x08000d70                BSP_IntHandlerUSART2
                0x08000d74                BSP_IntHandlerUSART3
                0x08000d78                BSP_IntHandlerEXTI15_10
                0x08000d7c                BSP_IntHandlerRTCAlarm
                0x08000d80                BSP_IntHandlerUSBWakeUp
                0x08000d84                BSP_IntHandlerTIM8_BRK_TIM12
                0x08000d88                BSP_IntHandlerTIM8_UP_TIM13
                0x08000d8c                BSP_IntHandlerTIM8_TRG_COM_TIM14
                0x08000d90                BSP_IntHandlerTIM8_CC
                0x08000d94                BSP_IntHandlerDMA1_STREAM7
                0x08000d98                BSP_IntHandlerFSMC
                0x08000d9c                BSP_IntHandlerSDIO
                0x08000da0                BSP_IntHandlerTIM5
                0x08000da4                BSP_IntHandlerSPI3
                0x08000da8                BSP_IntHandlerUSART4
                0x08000dac                BSP_IntHandlerUSART5
                0x08000db0                BSP_IntHandlerTIM6
                0x08000db4                BSP_IntHandlerTIM7
                0x08000db8                BSP_IntHandlerDMA2_CH1
                0x08000dbc                BSP_IntHandlerDMA2_CH2
                0x08000dc0                BSP_IntHandlerDMA2_CH3
                0x08000dc4                BSP_IntHandlerDMA2_CH4
                0x08000dc8                BSP_IntHandlerDMA2_CH5
                0x08000dcc                BSP_IntHandlerETH
                0x08000dd0                BSP_IntHandlerETHWakeup
                0x08000dd4                BSP_IntHandlerCAN2_TX
                0x08000dd8                BSP_IntHandlerCAN2_RX0
                0x08000ddc                BSP_IntHandlerCAN2_RX1
                0x08000de0                BSP_IntHandlerCAN2_SCE
                0x08000de4                BSP_IntHandlerOTG
                0x08000de8                BSP_IntHandlerDMA2_CH6
                0x08000dec                BSP_IntHandlerDMA2_CH7
                0x08000df0                BSP_IntHandlerDMA2_CH8
                0x08000df4                BSP_IntHandlerUSART6
                0x08000df8                BSP_IntHandlerI2C3_EV
                0x08000dfc                BSP_IntHandlerI2C3_ER
                0x08000e00                BSP_IntHandlerOTG_HS_EP1_OUT
                0x08000e04                BSP_IntHandlerOTG_HS_EP1_IN
                0x08000e08                BSP_IntHandlerOTG_HS_WKUP
                0x08000e0c                BSP_IntHandlerOTG_HS
                0x08000e10                BSP_IntHandlerDCMI
                0x08000e14                BSP_IntHandlerCRYP
                0x08000e18                BSP_IntHandlerHASH_RNG
                0x08000e1c                BSP_EXTI_15_10_IntHandler
 .text          0x08000eac        0xc /home/huyong/Public/github/switft/build//libxxyyzz.a(cli.o)
                0x08000eac                run_command_repeatable
                0x08000eb0                cli_loop
                0x08000eb4                cli_init
 .text          0x08000eb8      0x2e4 /home/huyong/Public/github/switft/build//libxxyyzz.a(cli_simple.o)
                0x08000eb8                cli_simple_parse_line
                0x08000f20                cli_simple_process_macros
                0x08001038                cli_simple_run_command
                0x08001100                cli_simple_loop
                0x08001150                cli_simple_run_command_list
 .text          0x0800119c       0x64 /home/huyong/Public/github/switft/build//libxxyyzz.a(cmd_d.o)
                0x080011d0                cmd_d_init
 .text          0x08001200       0x80 /home/huyong/Public/github/switft/build//libxxyyzz.a(cmd_help.o)
                0x08001230                cmd_help_init
 .text          0x08001280       0x60 /home/huyong/Public/github/switft/build//libxxyyzz.a(cmd_m.o)
                0x080012b0                cmd_m_init
 .text          0x080012e0       0x44 /home/huyong/Public/github/switft/build//libxxyyzz.a(cmd_reset.o)
                0x080012e0                do_reset
                0x080012f4                cmd_reset_init
 .text          0x08001324       0x78 /home/huyong/Public/github/switft/build//libxxyyzz.a(cmd_ver.o)
                0x0800136c                cmd_ver_init
 .text          0x0800139c      0x2ac /home/huyong/Public/github/switft/build//libxxyyzz.a(command.o)
                0x0800139c                cmd_entry_start
                0x080013a4                cmd_entry_count
                0x080013a8                cmd_register
                0x080013e4                find_cmd_tbl
                0x08001450                find_cmd
                0x0800145c                cmd_usage
                0x080014a0                _do_help
                0x08001538                cmd_auto_complete
                0x080015c8                cmd_process
                0x08001628                cmd_process_error
 .text          0x08001648      0x124 /home/huyong/Public/github/switft/build//libxxyyzz.a(console.o)
                0x08001648                cgetc
                0x0800164c                ctstc
                0x08001650                cputc
                0x08001668                cputs
                0x0800167c                ctrlc
                0x080016a8                confirm_yesno
                0x08001744                disable_ctrlc
                0x08001754                had_ctrlc
                0x08001760                clear_ctrlc
 .text          0x0800176c       0x34 /home/huyong/Public/github/switft/build//libxxyyzz.a(cpu_a.o)
                0x0800176c                CPU_IntDis
                0x08001770                CPU_IntEn
                0x08001774                CPU_SR_Save
                0x0800177c                CPU_SR_Restore
                0x08001782                CPU_WaitForInt
                0x08001786                CPU_WaitForExcept
                0x0800178a                CPU_CntLeadZeros
                0x08001790                CPU_CntTrailZeros
                0x0800179a                CPU_RevBits
 .text          0x080017a0      0x4bc /home/huyong/Public/github/switft/build//libxxyyzz.a(cpu_c.o)
                0x080017a0                CPU_BitBandClr
                0x080017d4                CPU_BitBandSet
                0x08001808                CPU_IntSrcDis
                0x080018e4                CPU_IntSrcEn
                0x080019c0                CPU_IntSrcPendClr
                0x08001a2c                CPU_IntSrcPrioSet
                0x08001b44                CPU_IntSrcPrioGet
 .text          0x08001c5c      0x1e4 /home/huyong/Public/github/switft/build//libxxyyzz.a(cpu_core.o)
                0x08001c5c                CPU_SW_Exception
                0x08001c60                CPU_NameClr
                0x08001c80                CPU_Init
                0x08001c98                CPU_NameGet
                0x08001ccc                CPU_NameSet
                0x08001d10                CPU_TS_Get32
                0x08001d14                CPU_TS_Update
                0x08001d18                CPU_TS_TmrFreqGet
                0x08001d34                CPU_TS_TmrFreqSet
                0x08001d40                CPU_CntLeadZeros08
                0x08001d4c                CPU_CntLeadZeros16
                0x08001d58                CPU_CntLeadZeros32
                0x08001d5c                CPU_CntLeadZeros64
                0x08001dfc                CPU_CntTrailZeros08
                0x08001e08                CPU_CntTrailZeros16
                0x08001e14                CPU_CntTrailZeros32
                0x08001e20                CPU_CntTrailZeros64
 .text          0x08001e40      0x1e0 /home/huyong/Public/github/switft/build//libxxyyzz.a(hw_beacon.o)
                0x08001e40                SWIFT_UART6_IntHandler
                0x08001e9c                _sys_exit
                0x08001ea0                fputc
                0x08001eb4                fgetc
                0x08001ed0                SWIFT_UART6_Init
                0x08001fa0                SWIFT_UART6_INT_Switch
                0x08001fac                SWIFT_UART6_SendBuff
                0x08001fdc                SWIFT_UART6_RecvBuff
                0x08001ff4                SWIFT_USART6_GETC
                0x08002010                SWIFT_USART6_TSTC
 .text          0x08002020       0x74 /home/huyong/Public/github/switft/build//libxxyyzz.a(hw_led.o)
                0x08002020                HW_LED_Init
                0x0800204c                HW_LED1_OFF
                0x08002058                HW_LED2_OFF
                0x08002064                HW_LED1_ON
                0x08002070                HW_LED2_ON
                0x0800207c                HW_LED1_Flick
                0x08002088                HW_LED2_Flick
 .text          0x08002094      0xc10 /home/huyong/Public/github/switft/build//libxxyyzz.a(lib_mem.o)
                0x080021d4                Mem_Init
                0x0800221c                Mem_Clr
                0x08002228                Mem_Set
                0x08002230                Mem_Move
                0x080022e8                Mem_Cmp
                0x08002390                Mem_HeapAlloc
                0x08002478                Mem_SegGetSizeRem
                0x08002510                Mem_HeapGetSizeRem
                0x08002520                Mem_PoolClr
                0x08002578                Mem_PoolCreate
                0x08002948                Mem_PoolBlkGetNbrAvail
                0x08002990                Mem_PoolBlkGet
                0x08002a2c                Mem_PoolBlkGetUsedAtIx
                0x08002a9c                Mem_PoolBlkFree
                0x08002bac                Mem_PoolBlkIxGet
 .text          0x08002ca4      0x220 /home/huyong/Public/github/switft/build//libxxyyzz.a(lib_mem_a.o)
                0x08002ca4                Mem_Copy
 .text          0x08002ec4      0x7e4 /home/huyong/Public/github/switft/build//libxxyyzz.a(lib_str.o)
                0x08003294                Str_Len
                0x080032b8                Str_Len_N
                0x080032e8                Str_Copy_N
                0x0800332c                Str_Copy
                0x08003334                Str_Cat
                0x08003344                Str_Cat_N
                0x08003358                Str_Cmp_N
                0x080033c8                Str_Cmp
                0x080033d0                Str_CmpIgnoreCase_N
                0x0800348c                Str_CmpIgnoreCase
                0x08003494                Str_Char_N
                0x080034cc                Str_Char
                0x080034d8                Str_Char_Last_N
                0x0800352c                Str_Char_Last
                0x08003538                Str_Char_Replace
                0x08003558                Str_Char_Replace_N
                0x0800357c                Str_Str_N
                0x08003610                Str_Str
                0x08003618                Str_FmtNbr_Int32U
                0x08003638                Str_FmtNbr_Int32S
                0x08003660                Str_ParseNbr_Int32U
                0x08003674                Str_ParseNbr_Int32S
 .text          0x080036a8       0xc4 /home/huyong/Public/github/switft/build//libxxyyzz.a(lwip.o)
                0x080036a8                LwIP_SendSem
                0x080036c0                LWIP_Init
                0x08003720                LWIP_NetworkConfigChange
                0x0800374c                LWIP_MACConfigChange
 .text          0x0800376c      0x23c /home/huyong/Public/github/switft/build//libxxyyzz.a(netif.o)
                0x0800376c                netif_init
                0x08003770                netif_find
                0x080037b0                netif_set_ipaddr
                0x08003818                netif_set_addr
                0x08003834                netif_add
                0x080038c0                netif_set_gw
                0x080038c8                netif_set_netmask
                0x080038d0                netif_set_default
                0x080038dc                netif_set_up
                0x08003900                netif_set_down
                0x0800391c                netif_remove
                0x08003970                netif_set_link_up
                0x08003994                netif_set_link_down
 .text          0x080039a8        0x4 /home/huyong/Public/github/switft/build//libxxyyzz.a(os_cfg_app.o)
                0x080039a8                OSCfg_Init
 .text          0x080039ac      0xe44 /home/huyong/Public/github/switft/build//libxxyyzz.a(os_core.o)
                0x080039ac                OS_IdleTask
                0x08003a70                OSIntEnter
                0x08003a90                OSIntExit
                0x08003b28                OSSched
                0x08003b40                OSSchedLock
                0x08003bac                OSSchedUnlock
                0x08003c20                OSSchedRoundRobinCfg
                0x08003c74                OSStart
                0x08003ccc                OSVersion
                0x08003cd8                OS_IdleTaskInit
                0x08003d30                OSInit
                0x08003ec4                OS_PendDataInit
                0x08003efc                OS_PendDbgNameAdd
                0x08003f40                OS_PendDbgNameRemove
                0x08003f5c                OS_PendListInit
                0x08003f68                OS_PendListInsertHead
                0x08003f8c                OS_PendListInsertPrio
                0x08003fe8                OS_PendListChangePrio
                0x08004044                OS_PendListRemove
                0x080040ac                OS_PendListRemove1
                0x080040e0                OS_PendObjDel1
                0x08004114                OS_PendAbort1
                0x08004118                OS_Post1
                0x08004150                OS_RdyListInit
                0x08004170                OS_RdyListInsert
                0x080041ec                OS_RdyListInsertHead
                0x08004228                OS_RdyListInsertTail
                0x08004264                OS_RdyListMoveHeadToTail
                0x0800429c                OSSchedRoundRobinYield
                0x0800434c                OS_RdyListRemove
                0x080043b4                OS_SchedLockTimeMeasStart
                0x080043d4                OS_SchedLockTimeMeasStop
                0x080043e4                OS_SchedRoundRobin
                0x0800444c                OS_TaskBlock
                0x08004488                OS_Pend
                0x08004524                OS_TaskRdy
                0x08004540                OS_PendAbort
                0x08004614                OS_PendObjDel
                0x080046e0                OS_Post
 .text          0x080047f0       0x84 /home/huyong/Public/github/switft/build//libxxyyzz.a(os_cpu_a.o)
                0x080047f0                OSStartHighRdy
                0x08004810                OS_CPU_PendSVHandler
 .text          0x08004874      0x1d4 /home/huyong/Public/github/switft/build//libxxyyzz.a(os_cpu_c.o)
                0x08004874                OSIdleTaskHook
                0x08004884                OSInitHook
                0x080048c4                OSStatTaskHook
                0x080048d4                OSTaskCreateHook
                0x080048e4                OSTaskDelHook
                0x080048f4                OSTaskReturnHook
                0x08004904                OSTaskStkInit
                0x08004988                OSTaskSwHook
                0x080049e0                OSTimeTickHook
                0x080049f0                OS_CPU_SysTickHandler
                0x08004a14                OS_CPU_SysTickInit
 .text          0x08004a48        0x4 /home/huyong/Public/github/switft/build//libxxyyzz.a(os_dbg.o)
                0x08004a48                OS_Dbg_Init
 .text          0x08004a4c      0x594 /home/huyong/Public/github/switft/build//libxxyyzz.a(os_flag.o)
                0x08004a4c                OSFlagCreate
                0x08004acc                OSFlagPend
                0x08004d78                OSFlagPendGetFlagsRdy
                0x08004db0                OS_FlagBlock
                0x08004dd4                OS_FlagClr
                0x08004df0                OS_FlagInit
                0x08004e08                OS_FlagDbgListAdd
                0x08004e2c                OS_FlagDbgListRemove
                0x08004e58                OS_FlagTaskRdy
                0x08004ea8                OS_FlagPost
                0x08004f84                OSFlagPost
 .text          0x08004fe0      0x18c /home/huyong/Public/github/switft/build//libxxyyzz.a(os_mem.o)
                0x08004fe0                OSMemCreate
                0x080050b8                OSMemGet
                0x080050f4                OSMemPut
                0x0800513c                OS_MemDbgListAdd
                0x08005154                OS_MemInit
 .text          0x0800516c      0x1b4 /home/huyong/Public/github/switft/build//libxxyyzz.a(os_msg.o)
                0x0800516c                OS_MsgPoolInit
                0x080051e8                OS_MsgQFreeAll
                0x0800521c                OS_MsgQInit
                0x0800522c                OS_MsgQGet
                0x08005288                OS_MsgQPut
 .text          0x08005320      0x460 /home/huyong/Public/github/switft/build//libxxyyzz.a(os_mutex.o)
                0x08005320                OSMutexCreate
                0x080053a4                OSMutexPend
                0x080055c4                OSMutexPost
                0x080056ec                OS_MutexClr
                0x08005718                OS_MutexDbgListAdd
                0x0800573c                OS_MutexDbgListRemove
                0x08005768                OS_MutexInit
 .text          0x08005780       0x84 /home/huyong/Public/github/switft/build//libxxyyzz.a(os_prio.o)
                0x08005780                OS_PrioInit
                0x08005790                OS_PrioGetHighest
                0x080057b8                OS_PrioInsert
                0x080057dc                OS_PrioRemove
 .text          0x08005804      0x610 /home/huyong/Public/github/switft/build//libxxyyzz.a(os_q.o)
                0x08005804                OSQCreate
                0x08005898                OSQFlush
                0x080058f0                OSQPend
                0x08005a6c                OSQPendAbort
                0x08005b34                OS_QClr
                0x08005b68                OSQDel
                0x08005c90                OS_QDbgListAdd
                0x08005cb4                OS_QDbgListRemove
                0x08005ce0                OS_QInit
                0x08005cf8                OS_QPost
                0x08005d7c                OSQPost
 .text          0x08005e14      0x5dc /home/huyong/Public/github/switft/build//libxxyyzz.a(os_sem.o)
                0x08005e14                OSSemCreate
                0x08005e94                OSSemDel
                0x08005fe0                OSSemPend
                0x08006160                OSSemPendAbort
                0x08006228                OSSemSet
                0x08006280                OS_SemClr
                0x0800629c                OS_SemDbgListAdd
                0x080062c0                OS_SemDbgListRemove
                0x080062ec                OS_SemInit
                0x08006304                OS_SemPost
                0x08006390                OSSemPost
 .text          0x080063f0      0x468 /home/huyong/Public/github/switft/build//libxxyyzz.a(os_stat.o)
                0x080063f0                OSStatReset
                0x080064b0                OS_StatTask
                0x080066f4                OSStatTaskCPUUsageInit
                0x080067a8                OS_StatTaskInit
 .text          0x08006858      0xe60 /home/huyong/Public/github/switft/build//libxxyyzz.a(os_task.o)
                0x08006858                OSTaskChangePrio
                0x08006928                OSTaskQFlush
                0x08006974                OSTaskQPend
                0x08006b14                OSTaskRegGet
                0x08006b44                OSTaskRegGetID
                0x08006b74                OSTaskRegSet
                0x08006ba4                OSTaskSemPend
                0x08006d04                OSTaskSemPendAbort
                0x08006d9c                OSTaskSemSet
                0x08006dd8                OSTaskStkChk
                0x08006e80                OSTaskTimeQuantaSet
                0x08006ed4                OS_TaskDbgListAdd
                0x08006ef0                OS_TaskDbgListRemove
                0x08006f30                OS_TaskInit
                0x08006f54                OS_TaskInitTCB
                0x0800700c                OSTaskCreate
                0x08007290                OSTaskDel
                0x080072bc                OS_TaskQPost
                0x08007360                OSTaskQPost
                0x080073ac                OS_TaskResume
                0x0800745c                OSTaskResume
                0x080074a8                OS_TaskReturn
                0x080074d0                OS_TaskSemPost
                0x080075a0                OSTaskSemPost
                0x080075d0                OS_TaskSuspend
                0x08007688                OSTaskSuspend
 .text          0x080076b8      0x3b0 /home/huyong/Public/github/switft/build//libxxyyzz.a(os_tick.o)
                0x080076b8                OS_TickTaskInit
                0x08007778                OS_TickListInit
                0x080077a8                OS_TickListInsert
                0x080078b4                OS_TickListRemove
                0x080078ec                OS_TickListResetPeak
                0x08007914                OS_TickListUpdate
                0x08007a3c                OS_TickTask
 .text          0x08007a68      0x264 /home/huyong/Public/github/switft/build//libxxyyzz.a(os_time.o)
                0x08007a68                OSTimeDly
                0x08007b04                OSTimeDlyHMSM
                0x08007c38                OSTimeGet
                0x08007c54                OSTimeSet
                0x08007c70                OSTimeTick
 .text          0x08007ccc      0x6c4 /home/huyong/Public/github/switft/build//libxxyyzz.a(os_tmr.o)
                0x08007ccc                OSTmrCreate
                0x08007d98                OSTmrRemainGet
                0x08007e60                OSTmrStateGet
                0x08007ebc                OS_TmrClr
                0x08007ee8                OS_TmrDbgListAdd
                0x08007f00                OS_TmrDbgListRemove
                0x08007f2c                OS_TmrInit
                0x08008034                OS_TmrLink
                0x080080e0                OS_TmrResetPeak
                0x08008108                OS_TmrUnlink
                0x08008160                OSTmrStart
                0x080081fc                OSTmrStop
                0x080082e4                OS_TmrTask
 .text          0x08008390      0x100 /home/huyong/Public/github/switft/build//libxxyyzz.a(stm32f2xx_exti.o)
                0x08008390                EXTI_DeInit
                0x080083ac                EXTI_Init
                0x08008428                EXTI_StructInit
                0x08008438                EXTI_GenerateSWInterrupt
                0x08008448                EXTI_GetFlagStatus
                0x0800845c                EXTI_ClearFlag
                0x08008468                EXTI_GetITStatus
                0x08008484                EXTI_ClearITPendingBit
 .text          0x08008490      0x470 /home/huyong/Public/github/switft/build//libxxyyzz.a(stm32f2xx_fsmc.o)
                0x08008490                FSMC_NORSRAMDeInit
                0x080084bc                FSMC_NORSRAMInit
                0x0800856c                FSMC_NORSRAMStructInit
                0x080085bc                FSMC_NORSRAMCmd
                0x080085dc                FSMC_NANDDeInit
                0x08008600                FSMC_NANDInit
                0x0800866c                FSMC_NANDStructInit
                0x0800869c                FSMC_NANDCmd
                0x080086d0                FSMC_NANDECCCmd
                0x08008704                FSMC_GetECC
                0x08008718                FSMC_PCCARDDeInit
                0x08008734                FSMC_PCCARDInit
                0x0800879c                FSMC_PCCARDStructInit
                0x080087cc                FSMC_PCCARDCmd
                0x080087ec                FSMC_ITConfig
                0x08008840                FSMC_GetFlagStatus
                0x0800886c                FSMC_ClearFlag
                0x0800889c                FSMC_GetITStatus
                0x080088d0                FSMC_ClearITPendingBit
 .text          0x08008900      0x264 /home/huyong/Public/github/switft/build//libxxyyzz.a(stm32f2xx_gpio.o)
                0x08008900                GPIO_DeInit
                0x08008a18                GPIO_Init
                0x08008abc                GPIO_StructInit
                0x08008ad0                GPIO_PinLockConfig
                0x08008af4                GPIO_ReadInputDataBit
                0x08008b00                GPIO_ReadInputData
                0x08008b08                GPIO_ReadOutputDataBit
                0x08008b14                GPIO_ReadOutputData
                0x08008b1c                GPIO_SetBits
                0x08008b20                GPIO_ResetBits
                0x08008b24                GPIO_WriteBit
                0x08008b30                GPIO_Write
                0x08008b34                GPIO_ToggleBits
                0x08008b3c                GPIO_PinAFConfig
 .text          0x08008b64      0x4c8 /home/huyong/Public/github/switft/build//libxxyyzz.a(stm32f2xx_rcc.o)
                0x08008b64                RCC_DeInit
                0x08008b98                RCC_HSEConfig
                0x08008ba8                RCC_WaitForHSEStartUp
                0x08008bdc                RCC_AdjustHSICalibrationValue
                0x08008bf0                RCC_HSICmd
                0x08008bfc                RCC_LSEConfig
                0x08008c1c                RCC_LSICmd
                0x08008c28                RCC_PLLConfig
                0x08008c4c                RCC_PLLCmd
                0x08008c58                RCC_PLLI2SConfig
                0x08008c6c                RCC_PLLI2SCmd
                0x08008c78                RCC_ClockSecuritySystemCmd
                0x08008c84                RCC_MCO1Config
                0x08008c98                RCC_MCO2Config
                0x08008cac                RCC_SYSCLKConfig
                0x08008cc0                RCC_GetSYSCLKSource
                0x08008cd0                RCC_HCLKConfig
                0x08008ce4                RCC_PCLK1Config
                0x08008cf8                RCC_PCLK2Config
                0x08008d0c                RCC_GetClocksFreq
                0x08008db4                RCC_RTCCLKConfig
                0x08008de4                RCC_RTCCLKCmd
                0x08008df0                RCC_BackupResetCmd
                0x08008dfc                RCC_I2SCLKConfig
                0x08008e08                RCC_AHB1PeriphClockCmd
                0x08008e24                RCC_AHB2PeriphClockCmd
                0x08008e40                RCC_AHB3PeriphClockCmd
                0x08008e5c                RCC_APB1PeriphClockCmd
                0x08008e78                RCC_APB2PeriphClockCmd
                0x08008e94                RCC_AHB1PeriphResetCmd
                0x08008eb0                RCC_AHB2PeriphResetCmd
                0x08008ecc                RCC_AHB3PeriphResetCmd
                0x08008ee8                RCC_APB1PeriphResetCmd
                0x08008f04                RCC_APB2PeriphResetCmd
                0x08008f20                RCC_AHB1PeriphClockLPModeCmd
                0x08008f3c                RCC_AHB2PeriphClockLPModeCmd
                0x08008f58                RCC_AHB3PeriphClockLPModeCmd
                0x08008f74                RCC_APB1PeriphClockLPModeCmd
                0x08008f90                RCC_APB2PeriphClockLPModeCmd
                0x08008fac                RCC_ITConfig
                0x08008fc8                RCC_GetFlagStatus
                0x08008ffc                RCC_ClearFlag
                0x0800900c                RCC_GetITStatus
                0x08009020                RCC_ClearITPendingBit
 .text          0x0800902c      0x430 /home/huyong/Public/github/switft/build//libxxyyzz.a(stm32f2xx_usart.o)
                0x0800902c                USART_DeInit
                0x080090f4                USART_Init
                0x080091bc                USART_StructInit
                0x080091d4                USART_ClockInit
                0x080091f8                USART_ClockStructInit
                0x08009204                USART_Cmd
                0x08009220                USART_SetPrescaler
                0x08009234                USART_OverSampling8Cmd
                0x08009250                USART_OneBitMethodCmd
                0x0800926c                USART_SendData
                0x08009274                USART_ReceiveData
                0x0800927c                USART_SetAddress
                0x08009294                USART_ReceiverWakeUpCmd
                0x080092b0                USART_WakeUpConfig
                0x080092c8                USART_LINBreakDetectLengthConfig
                0x080092e0                USART_LINCmd
                0x080092fc                USART_SendBreak
                0x08009308                USART_HalfDuplexCmd
                0x08009324                USART_SetGuardTime
                0x08009338                USART_SmartCardCmd
                0x08009354                USART_SmartCardNACKCmd
                0x08009370                USART_IrDAConfig
                0x08009388                USART_IrDACmd
                0x080093a4                USART_DMACmd
                0x080093b8                USART_ITConfig
                0x080093f0                USART_GetFlagStatus
                0x080093fc                USART_ClearFlag
                0x08009404                USART_GetITStatus
                0x0800944c                USART_ClearITPendingBit
 .text          0x0800945c      0xfe8 /home/huyong/Public/github/switft/build//libxxyyzz.a(tcp.o)
                0x080094c4                tcp_init
                0x080094c8                tcp_bind
                0x08009564                tcp_listen_with_backlog
                0x0800962c                tcp_update_rcv_ann_wnd
                0x08009688                tcp_recved
                0x08009704                tcp_connect
                0x08009860                tcp_seg_free
                0x0800987c                tcp_segs_free
                0x080098d4                tcp_slowtmr
                0x08009d2c                tcp_setprio
                0x08009d30                tcp_arg
                0x08009d34                tcp_recv
                0x08009d64                tcp_sent
                0x08009d94                tcp_err
                0x08009dc8                tcp_accept
                0x08009dcc                tcp_poll
                0x08009e08                tcp_pcb_purge
                0x08009e18                tcp_pcb_remove
                0x0800a068                tcp_close
                0x0800a07c                tcp_recv_null
                0x0800a0b0                tcp_process_refused_data
                0x0800a110                tcp_fasttmr
                0x0800a180                tcp_tmr
                0x0800a1a4                tcp_shutdown
                0x0800a1f4                tcp_abandon
                0x0800a2c8                tcp_abort
                0x0800a2d0                tcp_alloc
                0x0800a3f4                tcp_new
                0x0800a3fc                tcp_next_iss
                0x0800a414                tcp_eff_send_mss
                0x0800a434                tcp_debug_state_str
 .text          0x0800a444      0xe8c /home/huyong/Public/github/switft/build//libxxyyzz.a(tcp_out.o)
                0x0800a5f4                tcp_write
                0x0800ab5c                tcp_enqueue_flags
                0x0800acbc                tcp_send_fin
                0x0800ad04                tcp_send_empty_ack
                0x0800ad60                tcp_output
                0x0800b044                tcp_rst
                0x0800b100                tcp_rexmit_rto
                0x0800b134                tcp_rexmit
                0x0800b188                tcp_rexmit_fast
                0x0800b1d4                tcp_keepalive
                0x0800b228                tcp_zero_window_probe
 .text          0x0800b2d0      0x2d4 /home/huyong/Public/github/switft/build//libxxyyzz.a(tcpip.o)
                0x0800b388                tcpip_input
                0x0800b3d4                tcpip_callback_with_block
                0x0800b42c                tcpip_timeout
                0x0800b46c                tcpip_untimeout
                0x0800b4a8                tcpip_apimsg
                0x0800b4e4                tcpip_callbackmsg_new
                0x0800b4fc                tcpip_callbackmsg_delete
                0x0800b504                tcpip_trycallback
                0x0800b528                tcpip_init
                0x0800b584                pbuf_free_callback
                0x0800b594                mem_free_callback
 .text          0x0800b5a4      0x210 /home/huyong/Public/github/switft/build//libxxyyzz.a(timers.o)
                0x0800b5a4                sys_timeout
                0x0800b62c                tcp_timer_needed
                0x0800b6a0                sys_timeouts_init
                0x0800b700                sys_untimeout
                0x0800b748                sys_timeouts_mbox_fetch
 .text          0x0800b7b4       0xe4 /home/huyong/Public/github/switft/build//libxxyyzz.a(udpecho.o)
                0x0800b844                udpecho_init
                0x0800b868                APP_UDP_Sendto
 .text          0x0800b898      0x794 /home/huyong/Public/github/switft/build//libxxyyzz.a(api_lib.o)
                0x0800ba1c                netconn_new_with_proto_and_callback
                0x0800bad8                netconn_delete
                0x0800bb00                netconn_getaddr
                0x0800bb88                netconn_bind
                0x0800bbe0                netconn_connect
                0x0800bc38                netconn_disconnect
                0x0800bc88                netconn_listen_with_backlog
                0x0800bcd8                netconn_accept
                0x0800bd94                netconn_recv_tcp_pbuf
                0x0800bdc4                netconn_recv
                0x0800beac                netconn_recved
                0x0800bedc                netconn_send
                0x0800bf30                netconn_sendto
                0x0800bf44                netconn_write_partly
                0x0800c014                netconn_close
                0x0800c018                netconn_shutdown
 .text          0x0800c02c     0x11e8 /home/huyong/Public/github/switft/build//libxxyyzz.a(api_msg.o)
                0x0800c8e0                do_newconn
                0x0800c978                netconn_alloc
                0x0800c9e4                netconn_free
                0x0800cbc4                do_delconn
                0x0800ccd4                do_bind
                0x0800cd60                do_connect
                0x0800ce4c                do_disconnect
                0x0800ce80                do_listen
                0x0800cf38                do_send
                0x0800cfd4                do_recv
                0x0800d020                do_write
                0x0800d0b0                do_getaddr
                0x0800d16c                do_close
 .text          0x0800d214      0x35c /home/huyong/Public/github/switft/build//libxxyyzz.a(bsp_eth.o)
                0x0800d214                ETH_IRQHandler
                0x0800d244                BSP_ETH_GetCurrentTxBuffer
                0x0800d250                BSP_ETH_IsRxPktValid
                0x0800d25c                Eth_Link_PHYITConfig
                0x0800d294                Eth_Link_EXTIConfig
                0x0800d2ec                Eth_Link_ITHandler
                0x0800d310                BSP_InitEth
                0x0800d36c                ETH_GPIO_Config
                0x0800d444                ETH_MACDMA_Config
                0x0800d4dc                ETH_BSP_Config
                0x0800d50c                ETH_MACaddr_Config
                0x0800d514                BSP_ETH_ReleaseDescriptor
                0x0800d560                BSP_ETH_GetDescriptorStatus
 .text          0x0800d570       0x90 /home/huyong/Public/github/switft/build//libxxyyzz.a(bsp_gpio.o)
                0x0800d570                BSP_GPIO_PortClkSwitch
                0x0800d584                BSP_GPIO_Init
                0x0800d5f0                BSP_GPIO_PinWriteHigh
                0x0800d5f4                BSP_GPIO_PinWriteLow
                0x0800d5f8                BSP_GPIO_InputPinRead
                0x0800d5fc                BSP_GPIO_OutputPinRead
 .text          0x0800d600      0x228 /home/huyong/Public/github/switft/build//libxxyyzz.a(bsp_os.o)
                0x0800d600                BSP_OS_SemCreate
                0x0800d620                BSP_OS_SemWait
                0x0800d654                BSP_OS_SemPost
                0x0800d674                BSP_OS_TimeDlyMs
                0x0800d6b8                BSP_OS_Q_Creat
                0x0800d6d8                BSP_OS_Q_Post
                0x0800d6fc                BSP_OS_Q_Block_Pend
                0x0800d738                BSP_OS_Q_Flush
                0x0800d74c                BSP_OS_Q_Del
                0x0800d76c                BSP_OS_Q_NoBlock_Pend
                0x0800d7a0                BSP_OS_Sem_Creat
                0x0800d7c0                BSP_OS_Sem_Post
                0x0800d7e4                BSP_OS_Sem_Pend
                0x0800d808                BSP_OS_Sem_Del
 .text          0x0800d828      0x16c /home/huyong/Public/github/switft/build//libxxyyzz.a(bsp_uart.o)
                0x0800d828                BSP_UART_PortClkSwitch
                0x0800d890                BSP_UART_Init
                0x0800d958                BSP_UART_Send
                0x0800d980                BSP_UART_RCV
                0x0800d984                BSP_UART_TST
 .text          0x0800d994      0x204 /home/huyong/Public/github/switft/build//libxxyyzz.a(cli_readline.o)
                0x0800da34                cli_readline_into_buffer
                0x0800db80                cli_readline
 .text          0x0800db98       0x18 /home/huyong/Public/github/switft/build//libxxyyzz.a(def.o)
                0x0800db98                lwip_htons
                0x0800dba0                lwip_ntohs
                0x0800dba8                lwip_ntohl
                0x0800dbac                lwip_htonl
 .text          0x0800dbb0      0xa44 /home/huyong/Public/github/switft/build//libxxyyzz.a(etharp.o)
                0x0800e078                etharp_tmr
                0x0800e0e0                etharp_cleanup_netif
                0x0800e114                etharp_find_addr
                0x0800e170                etharp_query
                0x0800e2dc                etharp_output
                0x0800e42c                etharp_request
                0x0800e448                ethernet_input
 .text          0x0800e5f4      0x174 /home/huyong/Public/github/switft/build//libxxyyzz.a(ethernetif.o)
                0x0800e630                ethernetif_input
                0x0800e6c8                ethernetif_init
 .text          0x0800e768      0x240 /home/huyong/Public/github/switft/build//libxxyyzz.a(inet_chksum.o)
                0x0800e7e0                inet_chksum_pseudo
                0x0800e870                inet_chksum_pseudo_partial
                0x0800e948                inet_chksum
                0x0800e954                inet_chksum_pbuf
 .text          0x0800e9a8       0x28 /home/huyong/Public/github/switft/build//libxxyyzz.a(init.o)
                0x0800e9a8                lwip_init
 .text          0x0800e9d0      0x32c /home/huyong/Public/github/switft/build//libxxyyzz.a(ip.o)
                0x0800e9d0                ip_route
                0x0800ea10                ip_input
                0x0800eb70                ip_output_if
                0x0800eca0                ip_output
 .text          0x0800ecfc      0x2a0 /home/huyong/Public/github/switft/build//libxxyyzz.a(ip_addr.o)
                0x0800ecfc                ip4_addr_isbroadcast
                0x0800ed38                ip4_addr_netmask_valid
                0x0800ed64                ipaddr_aton
                0x0800eeb4                ipaddr_addr
                0x0800eed4                ipaddr_ntoa_r
                0x0800ef90                ipaddr_ntoa
 .text          0x0800ef9c      0x6e0 /home/huyong/Public/github/switft/build//libxxyyzz.a(ip_frag.o)
                0x0800f150                ip_reass_tmr
                0x0800f180                ip_reass
                0x0800f4f4                ip_frag
 .text          0x0800f67c      0x12c /home/huyong/Public/github/switft/build//libxxyyzz.a(lib_ascii.o)
                0x0800f67c                ASCII_IsAlpha
                0x0800f68c                ASCII_IsAlphaNum
                0x0800f6a8                ASCII_IsLower
                0x0800f6b4                ASCII_IsUpper
                0x0800f6c0                ASCII_IsDig
                0x0800f6cc                ASCII_IsDigOct
                0x0800f6d8                ASCII_IsDigHex
                0x0800f6f4                ASCII_IsBlank
                0x0800f704                ASCII_IsSpace
                0x0800f718                ASCII_IsPrint
                0x0800f724                ASCII_IsGraph
                0x0800f730                ASCII_IsPunct
                0x0800f754                ASCII_IsCtrl
                0x0800f764                ASCII_ToLower
                0x0800f774                ASCII_ToUpper
                0x0800f784                ASCII_Cmp
 .text          0x0800f7a8      0x478 /home/huyong/Public/github/switft/build//libxxyyzz.a(mem.o)
                0x0800f7a8                mem_init
                0x0800f810                BSP_mem_free
                0x0800f980                BSP_mem_trim
                0x0800fac4                BSP_mem_malloc
                0x0800fc04                mem_calloc
 .text          0x0800fc20      0x128 /home/huyong/Public/github/switft/build//libxxyyzz.a(memp.o)
                0x0800fc20                memp_init
                0x0800fc90                memp_malloc
                0x0800fcfc                memp_free
 .text          0x0800fd48      0x230 /home/huyong/Public/github/switft/build//libxxyyzz.a(netbuf.o)
                0x0800fd48                netbuf_new
                0x0800fd60                netbuf_delete
                0x0800fd84                netbuf_alloc
                0x0800fde0                netbuf_free
                0x0800fe10                netbuf_ref
                0x0800fe64                netbuf_chain
                0x0800feb0                netbuf_data
                0x0800ff1c                netbuf_next
                0x0800ff58                netbuf_first
 .text          0x0800ff78      0x948 /home/huyong/Public/github/switft/build//libxxyyzz.a(pbuf.o)
                0x0800ff78                pbuf_header
                0x08010028                pbuf_free
                0x080100d8                pbuf_alloc
                0x0801029c                pbuf_realloc
                0x08010374                pbuf_clen
                0x08010388                pbuf_ref
                0x080103a4                pbuf_cat
                0x08010424                pbuf_chain
                0x08010438                pbuf_dechain
                0x080104ac                pbuf_copy
                0x080105ec                pbuf_copy_partial
                0x08010694                pbuf_take
                0x08010750                pbuf_coalesce
                0x080107a0                pbuf_get_at
                0x080107c4                pbuf_memcmp
                0x0801083c                pbuf_memfind
                0x08010880                pbuf_strstr
 .text          0x080108c0      0x1c0 /home/huyong/Public/github/switft/build//libxxyyzz.a(raw.o)
                0x080108c0                raw_input
                0x08010938                raw_bind
                0x08010944                raw_connect
                0x08010950                raw_recv
                0x08010958                raw_sendto
                0x08010a10                raw_send
                0x08010a18                raw_remove
                0x08010a54                raw_new
 .text          0x08010a80     0x172c /home/huyong/Public/github/switft/build//libxxyyzz.a(sockets.o)
                0x08011158                lwip_socket_init
                0x0801115c                lwip_accept
                0x08011344                lwip_bind
                0x080113f8                lwip_close
                0x08011468                lwip_connect
                0x0801151c                lwip_listen
                0x080115a4                lwip_recvfrom
                0x08011850                lwip_read
                0x08011864                lwip_recv
                0x08011878                lwip_sendto
                0x080119b4                lwip_send
                0x08011a50                lwip_socket
                0x08011acc                lwip_write
                0x08011ad4                lwip_select
                0x08011e0c                lwip_shutdown
                0x08011e8c                lwip_getpeername
                0x08011e94                lwip_getsockname
                0x08011e9c                lwip_getsockopt
                0x08011fd8                lwip_setsockopt
                0x080120f4                lwip_ioctl
                0x0801215c                lwip_fcntl
 .text          0x080121ac      0xd2c /home/huyong/Public/github/switft/build//libxxyyzz.a(stm32f2x7_eth.o)
                0x080121ac                ETH_DeInit
                0x080121c8                ETH_StructInit
                0x08012274                ETH_Start
                0x080122a8                ETH_MACTransmissionCmd
                0x080122c4                ETH_MACReceptionCmd
                0x080122e0                ETH_GetFlowControlBusyStatus
                0x080122f0                ETH_InitiatePauseControlFrame
                0x08012300                ETH_BackPressureActivationCmd
                0x0801231c                ETH_GetMACITStatus
                0x08012330                ETH_GetMACFlagStatus
                0x08012334                ETH_MACITConfig
                0x0801234c                ETH_MACAddressConfig
                0x08012368                ETH_GetMACAddress
                0x08012394                ETH_MACAddressPerfectFilterCmd
                0x080123b0                ETH_MACAddressFilterConfig
                0x080123c8                ETH_MACAddressMaskBytesFilterConfig
                0x080123e0                ETH_Get_Received_Frame
                0x08012414                ETH_Get_Received_Frame_interrupt
                0x080124bc                ETH_Prepare_Transmit_Descriptors
                0x08012588                ETH_DMARxDescChainInit
                0x080125f4                ETH_CheckFrameReceived
                0x08012674                ETH_DMATxDescChainInit
                0x080126d0                ETH_GetDMATxDescFlagStatus
                0x080126dc                ETH_GetDMATxDescCollisionCount
                0x080126e4                ETH_SetDMATxDescOwnBit
                0x080126f0                ETH_DMATxDescTransmitITConfig
                0x08012704                ETH_DMATxDescFrameSegmentConfig
                0x0801270c                ETH_DMATxDescChecksumInsertionConfig
                0x08012714                ETH_DMATxDescCRCCmd
                0x08012728                ETH_DMATxDescSecondAddressChainedCmd
                0x0801273c                ETH_DMATxDescShortFramePaddingCmd
                0x08012750                ETH_DMATxDescBufferSizeConfig
                0x0801275c                ETH_GetDMARxDescFlagStatus
                0x08012768                ETH_GetDMAPTPRxDescExtendedFlagStatus
                0x08012774                ETH_SetDMARxDescOwnBit
                0x08012780                ETH_GetDMARxDescFrameLength
                0x08012788                ETH_DMARxDescReceiveITConfig
                0x0801279c                ETH_GetDMARxDescBufferSize
                0x080127b0                ETH_GetRxPktSize
                0x080127d4                ETH_EnhancedDescriptorCmd
                0x080127f0                ETH_SoftwareReset
                0x08012800                ETH_GetSoftwareResetStatus
                0x08012810                ETH_DMAClearFlag
                0x08012820                ETH_DMAITConfig
                0x08012844                ETH_GetDMAITStatus
                0x0801285c                ETH_GetDMAFlagStatus
                0x08012860                ETH_DMAClearITPendingBit
                0x08012870                ETH_GetTransmitProcessState
                0x08012884                ETH_GetReceiveProcessState
                0x08012898                ETH_FlushTransmitFIFO
                0x080128ac                ETH_GetFlushTransmitFIFOStatus
                0x080128c0                ETH_DMATransmissionCmd
                0x080128e0                ETH_DMAReceptionCmd
                0x08012900                ETH_GetDMAOverflowStatus
                0x08012914                ETH_GetRxOverflowMissedFrameCounter
                0x08012924                ETH_GetBufferUnavailableMissedFrameCounter
                0x08012930                ETH_GetCurrentTxDescStartAddress
                0x08012940                ETH_GetCurrentRxDescStartAddress
                0x08012950                ETH_GetCurrentTxBufferAddress
                0x08012960                ETH_GetCurrentRxBufferAddress
                0x08012970                ETH_ResumeDMATransmission
                0x08012980                ETH_ResumeDMAReception
                0x08012990                ETH_SetReceiveWatchdogTimer
                0x080129a0                ETH_ReadPHYRegister
                0x08012a00                ETH_WritePHYRegister
                0x08012a5c                ETH_Init
                0x08012ce0                ETH_PHYLoopBackCmd
                0x08012d0c                ETH_ResetWakeUpFrameFilterRegisterPointer
                0x08012d1c                ETH_SetWakeUpFrameFilterRegister
                0x08012d34                ETH_GlobalUnicastWakeUpCmd
                0x08012d50                ETH_GetPMTFlagStatus
                0x08012d64                ETH_WakeUpFrameDetectionCmd
                0x08012d80                ETH_MagicPacketDetectionCmd
                0x08012d9c                ETH_PowerDownCmd
                0x08012db8                ETH_MMCCounterFullPreset
                0x08012dcc                ETH_MMCCounterHalfPreset
                0x08012dec                ETH_MMCCounterFreezeCmd
                0x08012e0c                ETH_MMCResetOnReadCmd
                0x08012e2c                ETH_MMCCounterRolloverCmd
                0x08012e4c                ETH_MMCCountersReset
                0x08012e60                ETH_MMCITConfig
                0x08012ea0                ETH_GetMMCITStatus
                0x08012ecc                ETH_GetMMCRegister
 .text          0x08012ed8       0x7c /home/huyong/Public/github/switft/build//libxxyyzz.a(stm32f2xx_syscfg.o)
                0x08012ed8                SYSCFG_DeInit
                0x08012ef4                SYSCFG_MemoryRemapConfig
                0x08012f00                SYSCFG_EXTILineConfig
                0x08012f2c                SYSCFG_ETH_MediaInterfaceConfig
                0x08012f38                SYSCFG_CompensationCellCmd
                0x08012f44                SYSCFG_GetCompensationCellStatus
 .text          0x08012f54      0x47c /home/huyong/Public/github/switft/build//libxxyyzz.a(sys_arch.o)
                0x08012f54                sys_mbox_new
                0x08012f9c                sys_mbox_free
                0x08012ff0                sys_mbox_post
                0x0801304c                sys_mbox_trypost
                0x08013080                sys_arch_mbox_fetch
                0x080130c4                sys_mbox_valid
                0x080130e0                sys_mbox_set_invalid
                0x08013104                sys_sem_new
                0x08013140                sys_arch_sem_wait
                0x08013180                sys_sem_signal
                0x080131b4                sys_sem_free
                0x080131e8                sys_sem_valid
                0x08013204                sys_sem_set_invalid
                0x08013228                sys_init
                0x08013284                sys_thread_new
                0x080133bc                sys_msleep
 .text          0x080133d0     0x1010 /home/huyong/Public/github/switft/build//libxxyyzz.a(tcp_in.o)
                0x08013a9c                tcp_input
 .text          0x080143e0      0x49c /home/huyong/Public/github/switft/build//libxxyyzz.a(udp.o)
                0x080143e0                udp_init
                0x080143e4                udp_input
                0x0801457c                udp_bind
                0x08014654                udp_sendto_if
                0x08014780                udp_sendto
                0x080147ac                udp_send
                0x080147b8                udp_connect
                0x0801480c                udp_disconnect
                0x0801481c                udp_recv
                0x08014824                udp_remove
                0x08014860                udp_new
 .text          0x0801487c      0x140 /home/huyong/Public/github/switft/build//libxxyyzz.a(app_tool.o)
                0x0801487c                TOOL_CheckSum8BitGet
                0x08014898                TOOL_SysTickGet
                0x080148ac                TOOL_INT32Data2Bytebuff
                0x080148d4                TOOL_INT16Data2Bytebuff
                0x080148e4                TOOL_Bytebuff2INT32Data
                0x08014910                TOOL_Bytebuff2INT16Data
                0x08014934                TOOL_GetCPI_ID
                0x08014950                TOOL_DateTime2Bytebuff
 .text          0x080149bc      0x238 /home/huyong/Public/github/switft/build//libxxyyzz.a(icmp.o)
                0x08014a4c                icmp_input
                0x08014be4                icmp_dest_unreach
                0x08014bec                icmp_time_exceeded
 .text          0x08014bf4       0x14 /opt/gcc-arm-none-eabi-5_4-2016q3/bin/../lib/gcc/arm-none-eabi/5.4.1/../../../../arm-none-eabi/lib/armv7-m/libg_nano.a(lib_a-strcmp.o)
                0x08014bf4                strcmp
 .text          0x08014c08       0x10 /opt/gcc-arm-none-eabi-5_4-2016q3/bin/../lib/gcc/arm-none-eabi/5.4.1/../../../../arm-none-eabi/lib/armv7-m/libg_nano.a(lib_a-strlen.o)
                0x08014c08                strlen
 *(.text*)
 .text.Reset_Handler
                0x08014c18       0x44 /home/huyong/Public/github/switft/build/startup_stm32f2xx.o
                0x08014c18                Reset_Handler
 .text.Default_Handler
                0x08014c5c        0x2 /home/huyong/Public/github/switft/build/startup_stm32f2xx.o
                0x08014c5c                App_NMI_ISR
                0x08014c5c                App_MemFault_ISR
                0x08014c5c                App_Fault_ISR
                0x08014c5c                App_BusFault_ISR
                0x08014c5c                Default_Handler
                0x08014c5c                App_Reserved_ISR
                0x08014c5c                App_UsageFault_ISR
                0x08014c5c                App_Spurious_ISR
 *fill*         0x08014c5e        0x2 
 .text.startup  0x08014c60       0x5c /home/huyong/Public/github/switft/build/main.o
                0x08014c60                main
 .text.isblank  0x08014cbc       0x20 /opt/gcc-arm-none-eabi-5_4-2016q3/bin/../lib/gcc/arm-none-eabi/5.4.1/../../../../arm-none-eabi/lib/armv7-m/libg_nano.a(lib_a-isblank.o)
                0x08014cbc                isblank
 .text.__get_current_locale
                0x08014cdc       0x18 /opt/gcc-arm-none-eabi-5_4-2016q3/bin/../lib/gcc/arm-none-eabi/5.4.1/../../../../arm-none-eabi/lib/armv7-m/libg_nano.a(lib_a-locale.o)
 .text.__locale_ctype_ptr_l
                0x08014cf4        0x6 /opt/gcc-arm-none-eabi-5_4-2016q3/bin/../lib/gcc/arm-none-eabi/5.4.1/../../../../arm-none-eabi/lib/armv7-m/libg_nano.a(lib_a-locale.o)
                0x08014cf4                __locale_ctype_ptr_l
 *fill*         0x08014cfa        0x2 
 .text.__locale_ctype_ptr
                0x08014cfc       0x14 /opt/gcc-arm-none-eabi-5_4-2016q3/bin/../lib/gcc/arm-none-eabi/5.4.1/../../../../arm-none-eabi/lib/armv7-m/libg_nano.a(lib_a-locale.o)
                0x08014cfc                __locale_ctype_ptr
 .text.__ascii_mbtowc
                0x08014d10       0x24 /opt/gcc-arm-none-eabi-5_4-2016q3/bin/../lib/gcc/arm-none-eabi/5.4.1/../../../../arm-none-eabi/lib/armv7-m/libg_nano.a(lib_a-mbtowc_r.o)
                0x08014d10                __ascii_mbtowc
 .text.memcmp   0x08014d34       0x1e /opt/gcc-arm-none-eabi-5_4-2016q3/bin/../lib/gcc/arm-none-eabi/5.4.1/../../../../arm-none-eabi/lib/armv7-m/libg_nano.a(lib_a-memcmp.o)
                0x08014d34                memcmp
 .text.memcpy   0x08014d52       0x16 /opt/gcc-arm-none-eabi-5_4-2016q3/bin/../lib/gcc/arm-none-eabi/5.4.1/../../../../arm-none-eabi/lib/armv7-m/libg_nano.a(lib_a-memcpy-stub.o)
                0x08014d52                memcpy
 .text.memset   0x08014d68       0x10 /opt/gcc-arm-none-eabi-5_4-2016q3/bin/../lib/gcc/arm-none-eabi/5.4.1/../../../../arm-none-eabi/lib/armv7-m/libg_nano.a(lib_a-memset.o)
                0x08014d68                memset
 .text.printf   0x08014d78       0x30 /opt/gcc-arm-none-eabi-5_4-2016q3/bin/../lib/gcc/arm-none-eabi/5.4.1/../../../../arm-none-eabi/lib/armv7-m/libg_nano.a(lib_a-printf.o)
                0x08014d78                printf
                0x08014d78                iprintf
 .text._putc_r  0x08014da8       0x6c /opt/gcc-arm-none-eabi-5_4-2016q3/bin/../lib/gcc/arm-none-eabi/5.4.1/../../../../arm-none-eabi/lib/armv7-m/libg_nano.a(lib_a-putc.o)
                0x08014da8                _putc_r
 .text.putc     0x08014e14       0x10 /opt/gcc-arm-none-eabi-5_4-2016q3/bin/../lib/gcc/arm-none-eabi/5.4.1/../../../../arm-none-eabi/lib/armv7-m/libg_nano.a(lib_a-putc.o)
                0x08014e14                putc
 .text._puts_r  0x08014e24       0xb4 /opt/gcc-arm-none-eabi-5_4-2016q3/bin/../lib/gcc/arm-none-eabi/5.4.1/../../../../arm-none-eabi/lib/armv7-m/libg_nano.a(lib_a-puts.o)
                0x08014e24                _puts_r
 .text.puts     0x08014ed8       0x10 /opt/gcc-arm-none-eabi-5_4-2016q3/bin/../lib/gcc/arm-none-eabi/5.4.1/../../../../arm-none-eabi/lib/armv7-m/libg_nano.a(lib_a-puts.o)
                0x08014ed8                puts
 .text.strcpy   0x08014ee8       0x10 /opt/gcc-arm-none-eabi-5_4-2016q3/bin/../lib/gcc/arm-none-eabi/5.4.1/../../../../arm-none-eabi/lib/armv7-m/libg_nano.a(lib_a-strcpy.o)
                0x08014ee8                strcpy
 .text.strlcpy  0x08014ef8       0x2a /opt/gcc-arm-none-eabi-5_4-2016q3/bin/../lib/gcc/arm-none-eabi/5.4.1/../../../../arm-none-eabi/lib/armv7-m/libg_nano.a(lib_a-strlcpy.o)
                0x08014ef8                strlcpy
 .text.strncmp  0x08014f22       0x2a /opt/gcc-arm-none-eabi-5_4-2016q3/bin/../lib/gcc/arm-none-eabi/5.4.1/../../../../arm-none-eabi/lib/armv7-m/libg_nano.a(lib_a-strncmp.o)
                0x08014f22                strncmp
 .text._strtoul_l.isra.0
                0x08014f4c      0x102 /opt/gcc-arm-none-eabi-5_4-2016q3/bin/../lib/gcc/arm-none-eabi/5.4.1/../../../../arm-none-eabi/lib/armv7-m/libg_nano.a(lib_a-strtoul.o)
 *fill*         0x0801504e        0x2 
 .text.strtoul  0x08015050       0x2c /opt/gcc-arm-none-eabi-5_4-2016q3/bin/../lib/gcc/arm-none-eabi/5.4.1/../../../../arm-none-eabi/lib/armv7-m/libg_nano.a(lib_a-strtoul.o)
                0x08015050                strtoul
 .text.__swbuf_r
                0x0801507c       0xa8 /opt/gcc-arm-none-eabi-5_4-2016q3/bin/../lib/gcc/arm-none-eabi/5.4.1/../../../../arm-none-eabi/lib/armv7-m/libg_nano.a(lib_a-wbuf.o)
                0x0801507c                __swbuf_r
 .text.__ascii_wctomb
                0x08015124       0x1a /opt/gcc-arm-none-eabi-5_4-2016q3/bin/../lib/gcc/arm-none-eabi/5.4.1/../../../../arm-none-eabi/lib/armv7-m/libg_nano.a(lib_a-wctomb_r.o)
                0x08015124                __ascii_wctomb
 *fill*         0x0801513e        0x2 
 .text.__swsetup_r
                0x08015140       0xdc /opt/gcc-arm-none-eabi-5_4-2016q3/bin/../lib/gcc/arm-none-eabi/5.4.1/../../../../arm-none-eabi/lib/armv7-m/libg_nano.a(lib_a-wsetup.o)
                0x08015140                __swsetup_r
 .text.__sflush_r
                0x0801521c      0x10c /opt/gcc-arm-none-eabi-5_4-2016q3/bin/../lib/gcc/arm-none-eabi/5.4.1/../../../../arm-none-eabi/lib/armv7-m/libg_nano.a(lib_a-fflush.o)
                0x0801521c                __sflush_r
 .text._fflush_r
                0x08015328       0x54 /opt/gcc-arm-none-eabi-5_4-2016q3/bin/../lib/gcc/arm-none-eabi/5.4.1/../../../../arm-none-eabi/lib/armv7-m/libg_nano.a(lib_a-fflush.o)
                0x08015328                _fflush_r
 .text._cleanup_r
                0x0801537c        0xc /opt/gcc-arm-none-eabi-5_4-2016q3/bin/../lib/gcc/arm-none-eabi/5.4.1/../../../../arm-none-eabi/lib/armv7-m/libg_nano.a(lib_a-findfp.o)
                0x0801537c                _cleanup_r
 .text.std.isra.0
                0x08015388       0x48 /opt/gcc-arm-none-eabi-5_4-2016q3/bin/../lib/gcc/arm-none-eabi/5.4.1/../../../../arm-none-eabi/lib/armv7-m/libg_nano.a(lib_a-findfp.o)
 .text.__sfmoreglue
                0x080153d0       0x2c /opt/gcc-arm-none-eabi-5_4-2016q3/bin/../lib/gcc/arm-none-eabi/5.4.1/../../../../arm-none-eabi/lib/armv7-m/libg_nano.a(lib_a-findfp.o)
                0x080153d0                __sfmoreglue
 .text.__sinit  0x080153fc       0x60 /opt/gcc-arm-none-eabi-5_4-2016q3/bin/../lib/gcc/arm-none-eabi/5.4.1/../../../../arm-none-eabi/lib/armv7-m/libg_nano.a(lib_a-findfp.o)
                0x080153fc                __sinit
 .text.__sfp    0x0801545c       0x78 /opt/gcc-arm-none-eabi-5_4-2016q3/bin/../lib/gcc/arm-none-eabi/5.4.1/../../../../arm-none-eabi/lib/armv7-m/libg_nano.a(lib_a-findfp.o)
                0x0801545c                __sfp
 .text._fwalk_reent
                0x080154d4       0x3c /opt/gcc-arm-none-eabi-5_4-2016q3/bin/../lib/gcc/arm-none-eabi/5.4.1/../../../../arm-none-eabi/lib/armv7-m/libg_nano.a(lib_a-fwalk.o)
                0x080154d4                _fwalk_reent
 .text.__swhatbuf_r
                0x08015510       0x46 /opt/gcc-arm-none-eabi-5_4-2016q3/bin/../lib/gcc/arm-none-eabi/5.4.1/../../../../arm-none-eabi/lib/armv7-m/libg_nano.a(lib_a-makebuf.o)
                0x08015510                __swhatbuf_r
 *fill*         0x08015556        0x2 
 .text.__smakebuf_r
                0x08015558       0x78 /opt/gcc-arm-none-eabi-5_4-2016q3/bin/../lib/gcc/arm-none-eabi/5.4.1/../../../../arm-none-eabi/lib/armv7-m/libg_nano.a(lib_a-makebuf.o)
                0x08015558                __smakebuf_r
 .text._free_r  0x080155d0       0x98 /opt/gcc-arm-none-eabi-5_4-2016q3/bin/../lib/gcc/arm-none-eabi/5.4.1/../../../../arm-none-eabi/lib/armv7-m/libg_nano.a(lib_a-nano-freer.o)
                0x080155d0                _free_r
 .text._malloc_r
                0x08015668       0xbc /opt/gcc-arm-none-eabi-5_4-2016q3/bin/../lib/gcc/arm-none-eabi/5.4.1/../../../../arm-none-eabi/lib/armv7-m/libg_nano.a(lib_a-nano-mallocr.o)
                0x08015668                _malloc_r
 .text.__sfputc_r
                0x08015724       0x2c /opt/gcc-arm-none-eabi-5_4-2016q3/bin/../lib/gcc/arm-none-eabi/5.4.1/../../../../arm-none-eabi/lib/armv7-m/libg_nano.a(lib_a-nano-vfprintf.o)
 .text.__sfputs_r
                0x08015750       0x24 /opt/gcc-arm-none-eabi-5_4-2016q3/bin/../lib/gcc/arm-none-eabi/5.4.1/../../../../arm-none-eabi/lib/armv7-m/libg_nano.a(lib_a-nano-vfprintf.o)
                0x08015750                __sfputs_r
 .text._vfprintf_r
                0x08015774      0x238 /opt/gcc-arm-none-eabi-5_4-2016q3/bin/../lib/gcc/arm-none-eabi/5.4.1/../../../../arm-none-eabi/lib/armv7-m/libg_nano.a(lib_a-nano-vfprintf.o)
                0x08015774                _vfiprintf_r
                0x08015774                _vfprintf_r
 .text._printf_common
                0x080159ac       0xec /opt/gcc-arm-none-eabi-5_4-2016q3/bin/../lib/gcc/arm-none-eabi/5.4.1/../../../../arm-none-eabi/lib/armv7-m/libg_nano.a(lib_a-nano-vfprintf_i.o)
                0x080159ac                _printf_common
 .text._printf_i
                0x08015a98      0x24c /opt/gcc-arm-none-eabi-5_4-2016q3/bin/../lib/gcc/arm-none-eabi/5.4.1/../../../../arm-none-eabi/lib/armv7-m/libg_nano.a(lib_a-nano-vfprintf_i.o)
                0x08015a98                _printf_i
 .text._sbrk_r  0x08015ce4       0x20 /opt/gcc-arm-none-eabi-5_4-2016q3/bin/../lib/gcc/arm-none-eabi/5.4.1/../../../../arm-none-eabi/lib/armv7-m/libg_nano.a(lib_a-sbrkr.o)
                0x08015ce4                _sbrk_r
 .text.__sread  0x08015d04       0x22 /opt/gcc-arm-none-eabi-5_4-2016q3/bin/../lib/gcc/arm-none-eabi/5.4.1/../../../../arm-none-eabi/lib/armv7-m/libg_nano.a(lib_a-stdio.o)
                0x08015d04                __sread
 .text.__swrite
                0x08015d26       0x38 /opt/gcc-arm-none-eabi-5_4-2016q3/bin/../lib/gcc/arm-none-eabi/5.4.1/../../../../arm-none-eabi/lib/armv7-m/libg_nano.a(lib_a-stdio.o)
                0x08015d26                __swrite
 .text.__sseek  0x08015d5e       0x24 /opt/gcc-arm-none-eabi-5_4-2016q3/bin/../lib/gcc/arm-none-eabi/5.4.1/../../../../arm-none-eabi/lib/armv7-m/libg_nano.a(lib_a-stdio.o)
                0x08015d5e                __sseek
 .text.__sclose
                0x08015d82        0x8 /opt/gcc-arm-none-eabi-5_4-2016q3/bin/../lib/gcc/arm-none-eabi/5.4.1/../../../../arm-none-eabi/lib/armv7-m/libg_nano.a(lib_a-stdio.o)
                0x08015d82                __sclose
 *fill*         0x08015d8a        0x2 
 .text._write_r
                0x08015d8c       0x24 /opt/gcc-arm-none-eabi-5_4-2016q3/bin/../lib/gcc/arm-none-eabi/5.4.1/../../../../arm-none-eabi/lib/armv7-m/libg_nano.a(lib_a-writer.o)
                0x08015d8c                _write_r
 .text._close_r
                0x08015db0       0x20 /opt/gcc-arm-none-eabi-5_4-2016q3/bin/../lib/gcc/arm-none-eabi/5.4.1/../../../../arm-none-eabi/lib/armv7-m/libg_nano.a(lib_a-closer.o)
                0x08015db0                _close_r
 .text._fstat_r
                0x08015dd0       0x24 /opt/gcc-arm-none-eabi-5_4-2016q3/bin/../lib/gcc/arm-none-eabi/5.4.1/../../../../arm-none-eabi/lib/armv7-m/libg_nano.a(lib_a-fstatr.o)
                0x08015dd0                _fstat_r
 .text._isatty_r
                0x08015df4       0x20 /opt/gcc-arm-none-eabi-5_4-2016q3/bin/../lib/gcc/arm-none-eabi/5.4.1/../../../../arm-none-eabi/lib/armv7-m/libg_nano.a(lib_a-isattyr.o)
                0x08015df4                _isatty_r
 .text._lseek_r
                0x08015e14       0x24 /opt/gcc-arm-none-eabi-5_4-2016q3/bin/../lib/gcc/arm-none-eabi/5.4.1/../../../../arm-none-eabi/lib/armv7-m/libg_nano.a(lib_a-lseekr.o)
                0x08015e14                _lseek_r
 .text.memchr   0x08015e38       0x1c /opt/gcc-arm-none-eabi-5_4-2016q3/bin/../lib/gcc/arm-none-eabi/5.4.1/../../../../arm-none-eabi/lib/armv7-m/libg_nano.a(lib_a-memchr-stub.o)
                0x08015e38                memchr
 .text.__malloc_lock
                0x08015e54        0x2 /opt/gcc-arm-none-eabi-5_4-2016q3/bin/../lib/gcc/arm-none-eabi/5.4.1/../../../../arm-none-eabi/lib/armv7-m/libg_nano.a(lib_a-mlock.o)
                0x08015e54                __malloc_lock
 .text.__malloc_unlock
                0x08015e56        0x2 /opt/gcc-arm-none-eabi-5_4-2016q3/bin/../lib/gcc/arm-none-eabi/5.4.1/../../../../arm-none-eabi/lib/armv7-m/libg_nano.a(lib_a-mlock.o)
                0x08015e56                __malloc_unlock
 .text._read_r  0x08015e58       0x24 /opt/gcc-arm-none-eabi-5_4-2016q3/bin/../lib/gcc/arm-none-eabi/5.4.1/../../../../arm-none-eabi/lib/armv7-m/libg_nano.a(lib_a-readr.o)
                0x08015e58                _read_r
 .text._close   0x08015e7c       0x10 /opt/gcc-arm-none-eabi-5_4-2016q3/bin/../lib/gcc/arm-none-eabi/5.4.1/../../../../arm-none-eabi/lib/armv7-m/libnosys.a(close.o)
                0x08015e7c                _close
 .text._fstat   0x08015e8c       0x10 /opt/gcc-arm-none-eabi-5_4-2016q3/bin/../lib/gcc/arm-none-eabi/5.4.1/../../../../arm-none-eabi/lib/armv7-m/libnosys.a(fstat.o)
                0x08015e8c                _fstat
 .text._isatty  0x08015e9c       0x10 /opt/gcc-arm-none-eabi-5_4-2016q3/bin/../lib/gcc/arm-none-eabi/5.4.1/../../../../arm-none-eabi/lib/armv7-m/libnosys.a(isatty.o)
                0x08015e9c                _isatty
 .text._lseek   0x08015eac       0x10 /opt/gcc-arm-none-eabi-5_4-2016q3/bin/../lib/gcc/arm-none-eabi/5.4.1/../../../../arm-none-eabi/lib/armv7-m/libnosys.a(lseek.o)
                0x08015eac                _lseek
 .text._read    0x08015ebc       0x10 /opt/gcc-arm-none-eabi-5_4-2016q3/bin/../lib/gcc/arm-none-eabi/5.4.1/../../../../arm-none-eabi/lib/armv7-m/libnosys.a(read.o)
                0x08015ebc                _read
 .text._sbrk    0x08015ecc       0x1c /opt/gcc-arm-none-eabi-5_4-2016q3/bin/../lib/gcc/arm-none-eabi/5.4.1/../../../../arm-none-eabi/lib/armv7-m/libnosys.a(sbrk.o)
                0x08015ecc                _sbrk
 .text._write   0x08015ee8       0x10 /opt/gcc-arm-none-eabi-5_4-2016q3/bin/../lib/gcc/arm-none-eabi/5.4.1/../../../../arm-none-eabi/lib/armv7-m/libnosys.a(write.o)
                0x08015ee8                _write
 *(.rodata)
 .rodata        0x08015ef8      0x100 /home/huyong/Public/github/switft/build//libxxyyzz.a(cpu_core.o)
 .rodata        0x08015ff8       0x94 /home/huyong/Public/github/switft/build//libxxyyzz.a(lib_str.o)
 .rodata        0x0801608c       0xa4 /home/huyong/Public/github/switft/build//libxxyyzz.a(os_cfg_app.o)
                0x0801608c                OSCfg_DataSizeRAM
                0x08016090                OSCfg_TmrWheelSizeRAM
                0x08016094                OSCfg_TmrWheelSize
                0x08016098                OSCfg_TmrTaskStkSizeRAM
                0x0801609c                OSCfg_TmrTaskStkSize
                0x080160a0                OSCfg_TmrTaskStkLimit
                0x080160a4                OSCfg_TmrTaskStkBasePtr
                0x080160a8                OSCfg_TmrTaskRate_Hz
                0x080160ac                OSCfg_TmrTaskPrio
                0x080160b0                OSCfg_TickWheelSizeRAM
                0x080160b4                OSCfg_TickWheelSize
                0x080160b8                OSCfg_TickTaskStkSizeRAM
                0x080160bc                OSCfg_TickTaskStkSize
                0x080160c0                OSCfg_TickTaskStkLimit
                0x080160c4                OSCfg_TickTaskStkBasePtr
                0x080160c8                OSCfg_TickTaskPrio
                0x080160cc                OSCfg_TickRate_Hz
                0x080160d0                OSCfg_StkSizeMin
                0x080160d4                OSCfg_StatTaskStkSizeRAM
                0x080160d8                OSCfg_StatTaskStkSize
                0x080160dc                OSCfg_StatTaskStkLimit
                0x080160e0                OSCfg_StatTaskStkBasePtr
                0x080160e4                OSCfg_StatTaskRate_Hz
                0x080160e8                OSCfg_StatTaskPrio
                0x080160ec                OSCfg_MsgPoolBasePtr
                0x080160f0                OSCfg_MsgPoolSizeRAM
                0x080160f4                OSCfg_MsgPoolSize
                0x080160f8                OSCfg_ISRStkSizeRAM
                0x080160fc                OSCfg_ISRStkSize
                0x08016100                OSCfg_ISRStkBasePtr
                0x08016104                OSCfg_IntQTaskStkSizeRAM
                0x08016108                OSCfg_IntQTaskStkSize
                0x0801610c                OSCfg_IntQTaskStkLimit
                0x08016110                OSCfg_IntQTaskStkBasePtr
                0x08016114                OSCfg_IntQSizeRAM
                0x08016118                OSCfg_IntQSize
                0x0801611c                OSCfg_IntQBasePtr
                0x08016120                OSCfg_IdleTaskStkSizeRAM
                0x08016124                OSCfg_IdleTaskStkSize
                0x08016128                OSCfg_IdleTaskStkLimit
                0x0801612c                OSCfg_IdleTaskStkBasePtr
 .rodata        0x08016130       0x54 /home/huyong/Public/github/switft/build//libxxyyzz.a(tcp.o)
                0x08016130                tcp_pcb_lists
                0x08016140                tcp_persist_backoff
                0x08016148                tcp_backoff
                0x08016158                tcp_state_str
 .rodata        0x08016184        0xd /home/huyong/Public/github/switft/build//libxxyyzz.a(cli_readline.o)
 *fill*         0x08016191        0x3 
 .rodata        0x08016194        0xe /home/huyong/Public/github/switft/build//libxxyyzz.a(etharp.o)
                0x08016194                ethzero
                0x0801619c                ethbroadcast
 *fill*         0x080161a2        0x2 
 .rodata        0x080161a4        0x8 /home/huyong/Public/github/switft/build//libxxyyzz.a(ip_addr.o)
                0x080161a4                ip_addr_broadcast
                0x080161a8                ip_addr_any
 .rodata        0x080161ac       0x38 /home/huyong/Public/github/switft/build//libxxyyzz.a(memp.o)
 .rodata        0x080161e4       0x40 /home/huyong/Public/github/switft/build//libxxyyzz.a(sockets.o)
 .rodata        0x08016224        0x4 /home/huyong/Public/github/switft/build//libxxyyzz.a(sys_arch.o)
                0x08016224                pvNullPointer
 *(.rodata*)
 .rodata.str1.4
                0x08016228       0x42 /home/huyong/Public/github/switft/build/main.o
 *fill*         0x0801626a        0x2 
 .rodata.str1.4
                0x0801626c       0x51 /home/huyong/Public/github/switft/build//libxxyyzz.a(cli_simple.o)
 *fill*         0x080162bd        0x3 
 .rodata.str1.4
                0x080162c0       0x8c /home/huyong/Public/github/switft/build//libxxyyzz.a(cmd_d.o)
                                 0x94 (size before relaxing)
 .rodata.str1.4
                0x0801634c       0xa1 /home/huyong/Public/github/switft/build//libxxyyzz.a(cmd_help.o)
                                 0xa5 (size before relaxing)
 *fill*         0x080163ed        0x3 
 .rodata.str1.4
                0x080163f0        0x2 /home/huyong/Public/github/switft/build//libxxyyzz.a(cmd_m.o)
                                 0x80 (size before relaxing)
 *fill*         0x080163f2        0x2 
 .rodata.str1.4
                0x080163f4       0x39 /home/huyong/Public/github/switft/build//libxxyyzz.a(cmd_reset.o)
                                 0x3d (size before relaxing)
 *fill*         0x0801642d        0x3 
 .rodata.str1.4
                0x08016430       0x78 /home/huyong/Public/github/switft/build//libxxyyzz.a(cmd_ver.o)
                                 0xf8 (size before relaxing)
 .rodata.str1.4
                0x080164a8       0xe7 /home/huyong/Public/github/switft/build//libxxyyzz.a(command.o)
                                 0xff (size before relaxing)
 *fill*         0x0801658f        0x1 
 .rodata.str1.4
                0x08016590       0x15 /home/huyong/Public/github/switft/build//libxxyyzz.a(console.o)
 *fill*         0x080165a5        0x3 
 .rodata.str1.4
                0x080165a8       0x38 /home/huyong/Public/github/switft/build//libxxyyzz.a(hw_beacon.o)
 .rodata.str1.4
                0x080165e0       0x54 /home/huyong/Public/github/switft/build//libxxyyzz.a(netif.o)
 .rodata.str1.4
                0x08016634       0x25 /home/huyong/Public/github/switft/build//libxxyyzz.a(os_core.o)
                                 0x2a (size before relaxing)
 *fill*         0x08016659        0x3 
 .rodata.str1.4
                0x0801665c        0x6 /home/huyong/Public/github/switft/build//libxxyyzz.a(os_flag.o)
                                  0xa (size before relaxing)
 *fill*         0x08016662        0x2 
 .rodata.str1.4
                0x08016664        0x7 /home/huyong/Public/github/switft/build//libxxyyzz.a(os_mutex.o)
                                  0xb (size before relaxing)
 *fill*         0x0801666b        0x1 
 .rodata.str1.4
                0x0801666c        0x3 /home/huyong/Public/github/switft/build//libxxyyzz.a(os_q.o)
                                  0x7 (size before relaxing)
 *fill*         0x0801666f        0x1 
 .rodata.str1.4
                0x08016670        0x5 /home/huyong/Public/github/switft/build//libxxyyzz.a(os_sem.o)
                                  0x9 (size before relaxing)
 *fill*         0x08016675        0x3 
 .rodata.str1.4
                0x08016678       0x14 /home/huyong/Public/github/switft/build//libxxyyzz.a(os_stat.o)
 .rodata.str1.4
                0x0801668c        0x6 /home/huyong/Public/github/switft/build//libxxyyzz.a(os_task.o)
                                  0xa (size before relaxing)
 *fill*         0x08016692        0x2 
 .rodata.str1.4
                0x08016694       0x14 /home/huyong/Public/github/switft/build//libxxyyzz.a(os_tick.o)
 .rodata.str1.4
                0x080166a8       0x1d /home/huyong/Public/github/switft/build//libxxyyzz.a(os_tmr.o)
 *fill*         0x080166c5        0x3 
 .rodata.str1.4
                0x080166c8      0x3d6 /home/huyong/Public/github/switft/build//libxxyyzz.a(tcp.o)
                                0x40e (size before relaxing)
 *fill*         0x08016a9e        0x2 
 .rodata.str1.4
                0x08016aa0      0x347 /home/huyong/Public/github/switft/build//libxxyyzz.a(tcp_out.o)
                                0x36f (size before relaxing)
 *fill*         0x08016de7        0x1 
 .rodata.str1.4
                0x08016de8       0x61 /home/huyong/Public/github/switft/build//libxxyyzz.a(tcpip.o)
                                 0x89 (size before relaxing)
 *fill*         0x08016e49        0x3 
 .rodata.str1.4
                0x08016e4c       0x51 /home/huyong/Public/github/switft/build//libxxyyzz.a(timers.o)
                                 0x7c (size before relaxing)
 *fill*         0x08016e9d        0x3 
 .rodata.str1.4
                0x08016ea0       0x43 /home/huyong/Public/github/switft/build//libxxyyzz.a(udpecho.o)
 *fill*         0x08016ee3        0x1 
 .rodata.str1.4
                0x08016ee4      0x2b6 /home/huyong/Public/github/switft/build//libxxyyzz.a(api_lib.o)
                                0x2ea (size before relaxing)
 *fill*         0x0801719a        0x2 
 .rodata.str1.4
                0x0801719c      0x401 /home/huyong/Public/github/switft/build//libxxyyzz.a(api_msg.o)
                                0x439 (size before relaxing)
 .rodata.str1.4
                0x0801759d        0x3 /home/huyong/Public/github/switft/build//libxxyyzz.a(cli_readline.o)
 *fill*         0x0801759d        0x3 
 .rodata.str1.4
                0x080175a0      0x1e9 /home/huyong/Public/github/switft/build//libxxyyzz.a(etharp.o)
                                0x211 (size before relaxing)
 *fill*         0x08017789        0x3 
 .rodata.str1.4
                0x0801778c       0x17 /home/huyong/Public/github/switft/build//libxxyyzz.a(ethernetif.o)
                                 0x50 (size before relaxing)
 *fill*         0x080177a3        0x1 
 .rodata.str1.4
                0x080177a4       0x26 /home/huyong/Public/github/switft/build//libxxyyzz.a(inet_chksum.o)
                                 0x50 (size before relaxing)
 *fill*         0x080177ca        0x2 
 .rodata.str1.4
                0x080177cc       0x4d /home/huyong/Public/github/switft/build//libxxyyzz.a(ip.o)
                                 0x75 (size before relaxing)
 *fill*         0x08017819        0x3 
 .rodata.str1.4
                0x0801781c       0x22 /home/huyong/Public/github/switft/build//libxxyyzz.a(ip_addr.o)
                                 0x4c (size before relaxing)
 *fill*         0x0801783e        0x2 
 .rodata.str1.4
                0x08017840      0x111 /home/huyong/Public/github/switft/build//libxxyyzz.a(ip_frag.o)
                                0x139 (size before relaxing)
 *fill*         0x08017951        0x3 
 .rodata.str1.4
                0x08017954      0x1b3 /home/huyong/Public/github/switft/build//libxxyyzz.a(mem.o)
                                0x1db (size before relaxing)
 *fill*         0x08017b07        0x1 
 .rodata.str1.4
                0x08017b08       0x74 /home/huyong/Public/github/switft/build//libxxyyzz.a(memp.o)
                                 0x9c (size before relaxing)
 .rodata.str1.4
                0x08017b7c      0x115 /home/huyong/Public/github/switft/build//libxxyyzz.a(netbuf.o)
                                0x13d (size before relaxing)
 *fill*         0x08017c91        0x3 
 .rodata.str1.4
                0x08017c94      0x3a9 /home/huyong/Public/github/switft/build//libxxyyzz.a(pbuf.o)
                                0x3dd (size before relaxing)
 *fill*         0x0801803d        0x3 
 .rodata.str1.4
                0x08018040       0x36 /home/huyong/Public/github/switft/build//libxxyyzz.a(raw.o)
                                 0x60 (size before relaxing)
 *fill*         0x08018076        0x2 
 .rodata.str1.4
                0x08018078      0x1d9 /home/huyong/Public/github/switft/build//libxxyyzz.a(sockets.o)
                                0x20d (size before relaxing)
 *fill*         0x08018251        0x3 
 .rodata.str1.4
                0x08018254      0x15a /home/huyong/Public/github/switft/build//libxxyyzz.a(sys_arch.o)
                                0x18e (size before relaxing)
 *fill*         0x080183ae        0x2 
 .rodata.str1.4
                0x080183b0      0x27e /home/huyong/Public/github/switft/build//libxxyyzz.a(tcp_in.o)
                                0x2a6 (size before relaxing)
 *fill*         0x0801862e        0x2 
 .rodata.str1.4
                0x08018630       0x72 /home/huyong/Public/github/switft/build//libxxyyzz.a(udp.o)
                                 0x9a (size before relaxing)
 *fill*         0x080186a2        0x2 
 .rodata.str1.4
                0x080186a4      0x10c /home/huyong/Public/github/switft/build//libxxyyzz.a(icmp.o)
                                0x155 (size before relaxing)
 .rodata._global_impure_ptr
                0x080187b0        0x4 /opt/gcc-arm-none-eabi-5_4-2016q3/bin/../lib/gcc/arm-none-eabi/5.4.1/../../../../arm-none-eabi/lib/armv7-m/libg_nano.a(lib_a-impure.o)
                0x080187b0                _global_impure_ptr
 .rodata.str1.1
                0x080187b4        0xa /opt/gcc-arm-none-eabi-5_4-2016q3/bin/../lib/gcc/arm-none-eabi/5.4.1/../../../../arm-none-eabi/lib/armv7-m/libg_nano.a(lib_a-locale.o)
                                  0xb (size before relaxing)
 .rodata._ctype_
                0x080187be      0x101 /opt/gcc-arm-none-eabi-5_4-2016q3/bin/../lib/gcc/arm-none-eabi/5.4.1/../../../../arm-none-eabi/lib/armv7-m/libg_nano.a(lib_a-ctype_.o)
                0x080187be                _ctype_
 *fill*         0x080188bf        0x1 
 .rodata.__sf_fake_stdin
                0x080188c0       0x20 /opt/gcc-arm-none-eabi-5_4-2016q3/bin/../lib/gcc/arm-none-eabi/5.4.1/../../../../arm-none-eabi/lib/armv7-m/libg_nano.a(lib_a-findfp.o)
                0x080188c0                __sf_fake_stdin
 .rodata.__sf_fake_stdout
                0x080188e0       0x20 /opt/gcc-arm-none-eabi-5_4-2016q3/bin/../lib/gcc/arm-none-eabi/5.4.1/../../../../arm-none-eabi/lib/armv7-m/libg_nano.a(lib_a-findfp.o)
                0x080188e0                __sf_fake_stdout
 .rodata.__sf_fake_stderr
                0x08018900       0x20 /opt/gcc-arm-none-eabi-5_4-2016q3/bin/../lib/gcc/arm-none-eabi/5.4.1/../../../../arm-none-eabi/lib/armv7-m/libg_nano.a(lib_a-findfp.o)
                0x08018900                __sf_fake_stderr
 .rodata.str1.1
                0x08018920       0x11 /opt/gcc-arm-none-eabi-5_4-2016q3/bin/../lib/gcc/arm-none-eabi/5.4.1/../../../../arm-none-eabi/lib/armv7-m/libg_nano.a(lib_a-nano-vfprintf.o)
 .rodata.str1.1
                0x08018931       0x22 /opt/gcc-arm-none-eabi-5_4-2016q3/bin/../lib/gcc/arm-none-eabi/5.4.1/../../../../arm-none-eabi/lib/armv7-m/libg_nano.a(lib_a-nano-vfprintf_i.o)
 *(.glue_7)
 .glue_7        0x08018953        0x0 linker stubs
 *(.glue_7t)
 .glue_7t       0x08018953        0x0 linker stubs
 *(.eh_frame)
 *fill*         0x08018953        0x1 
 .eh_frame      0x08018954        0x0 /opt/gcc-arm-none-eabi-5_4-2016q3/bin/../lib/gcc/arm-none-eabi/5.4.1/armv7-m/crtbegin.o
 *(.init)
 .init          0x08018954        0x4 /opt/gcc-arm-none-eabi-5_4-2016q3/bin/../lib/gcc/arm-none-eabi/5.4.1/armv7-m/crti.o
                0x08018954                _init
 .init          0x08018958        0x8 /opt/gcc-arm-none-eabi-5_4-2016q3/bin/../lib/gcc/arm-none-eabi/5.4.1/armv7-m/crtn.o
 *(.fini)
 .fini          0x08018960        0x4 /opt/gcc-arm-none-eabi-5_4-2016q3/bin/../lib/gcc/arm-none-eabi/5.4.1/armv7-m/crti.o
                0x08018960                _fini
 .fini          0x08018964        0x8 /opt/gcc-arm-none-eabi-5_4-2016q3/bin/../lib/gcc/arm-none-eabi/5.4.1/armv7-m/crtn.o
                0x0801896c                . = ALIGN (0x4)
                0x0801896c                _etext = .

.vfp11_veneer   0x0801896c        0x0
 .vfp11_veneer  0x0801896c        0x0 linker stubs

.v4_bx          0x0801896c        0x0
 .v4_bx         0x0801896c        0x0 linker stubs

.iplt           0x0801896c        0x0
 .iplt          0x0801896c        0x0 /opt/gcc-arm-none-eabi-5_4-2016q3/bin/../lib/gcc/arm-none-eabi/5.4.1/armv7-m/crtbegin.o

.rel.dyn        0x0801896c        0x0
 .rel.iplt      0x0801896c        0x0 /opt/gcc-arm-none-eabi-5_4-2016q3/bin/../lib/gcc/arm-none-eabi/5.4.1/armv7-m/crtbegin.o

.ARM.extab
 *(.ARM.extab* .gnu.linkonce.armextab.*)

.ARM            0x0801896c        0x0
                0x0801896c                __exidx_start = .
 *(.ARM.exidx*)
                0x0801896c                __exidx_end = .

.ARM.attributes
                0x0801896c       0x29
 *(.ARM.attributes)
 .ARM.attributes
                0x0801896c       0x1d /opt/gcc-arm-none-eabi-5_4-2016q3/bin/../lib/gcc/arm-none-eabi/5.4.1/armv7-m/crti.o
 .ARM.attributes
                0x08018989       0x2d /opt/gcc-arm-none-eabi-5_4-2016q3/bin/../lib/gcc/arm-none-eabi/5.4.1/armv7-m/crtbegin.o
 .ARM.attributes
                0x080189b6       0x21 /home/huyong/Public/github/switft/build/startup_stm32f2xx.o
 .ARM.attributes
                0x080189d7       0x33 /home/huyong/Public/github/switft/build/system_stm32f2xx.o
 .ARM.attributes
                0x08018a0a       0x33 /home/huyong/Public/github/switft/build/main.o
 .ARM.attributes
                0x08018a3d       0x33 /home/huyong/Public/github/switft/build//libxxyyzz.a(app_shell.o)
 .ARM.attributes
                0x08018a70       0x33 /home/huyong/Public/github/switft/build//libxxyyzz.a(bsp.o)
 .ARM.attributes
                0x08018aa3       0x33 /home/huyong/Public/github/switft/build//libxxyyzz.a(bsp_delay.o)
 .ARM.attributes
                0x08018ad6       0x33 /home/huyong/Public/github/switft/build//libxxyyzz.a(bsp_int.o)
 .ARM.attributes
                0x08018b09       0x33 /home/huyong/Public/github/switft/build//libxxyyzz.a(cli.o)
 .ARM.attributes
                0x08018b3c       0x33 /home/huyong/Public/github/switft/build//libxxyyzz.a(cli_simple.o)
 .ARM.attributes
                0x08018b6f       0x33 /home/huyong/Public/github/switft/build//libxxyyzz.a(cmd_d.o)
 .ARM.attributes
                0x08018ba2       0x33 /home/huyong/Public/github/switft/build//libxxyyzz.a(cmd_help.o)
 .ARM.attributes
                0x08018bd5       0x33 /home/huyong/Public/github/switft/build//libxxyyzz.a(cmd_m.o)
 .ARM.attributes
                0x08018c08       0x33 /home/huyong/Public/github/switft/build//libxxyyzz.a(cmd_reset.o)
 .ARM.attributes
                0x08018c3b       0x33 /home/huyong/Public/github/switft/build//libxxyyzz.a(cmd_ver.o)
 .ARM.attributes
                0x08018c6e       0x33 /home/huyong/Public/github/switft/build//libxxyyzz.a(command.o)
 .ARM.attributes
                0x08018ca1       0x33 /home/huyong/Public/github/switft/build//libxxyyzz.a(console.o)
 .ARM.attributes
                0x08018cd4       0x21 /home/huyong/Public/github/switft/build//libxxyyzz.a(cpu_a.o)
 .ARM.attributes
                0x08018cf5       0x33 /home/huyong/Public/github/switft/build//libxxyyzz.a(cpu_c.o)
 .ARM.attributes
                0x08018d28       0x33 /home/huyong/Public/github/switft/build//libxxyyzz.a(cpu_core.o)
 .ARM.attributes
                0x08018d5b       0x33 /home/huyong/Public/github/switft/build//libxxyyzz.a(hw_beacon.o)
 .ARM.attributes
                0x08018d8e       0x33 /home/huyong/Public/github/switft/build//libxxyyzz.a(hw_led.o)
 .ARM.attributes
                0x08018dc1       0x33 /home/huyong/Public/github/switft/build//libxxyyzz.a(lib_mem.o)
 .ARM.attributes
                0x08018df4       0x21 /home/huyong/Public/github/switft/build//libxxyyzz.a(lib_mem_a.o)
 .ARM.attributes
                0x08018e15       0x33 /home/huyong/Public/github/switft/build//libxxyyzz.a(lib_str.o)
 .ARM.attributes
                0x08018e48       0x33 /home/huyong/Public/github/switft/build//libxxyyzz.a(lwip.o)
 .ARM.attributes
                0x08018e7b       0x33 /home/huyong/Public/github/switft/build//libxxyyzz.a(netif.o)
 .ARM.attributes
                0x08018eae       0x33 /home/huyong/Public/github/switft/build//libxxyyzz.a(os_cfg_app.o)
 .ARM.attributes
                0x08018ee1       0x33 /home/huyong/Public/github/switft/build//libxxyyzz.a(os_core.o)
 .ARM.attributes
                0x08018f14       0x21 /home/huyong/Public/github/switft/build//libxxyyzz.a(os_cpu_a.o)
 .ARM.attributes
                0x08018f35       0x33 /home/huyong/Public/github/switft/build//libxxyyzz.a(os_cpu_c.o)
 .ARM.attributes
                0x08018f68       0x33 /home/huyong/Public/github/switft/build//libxxyyzz.a(os_dbg.o)
 .ARM.attributes
                0x08018f9b       0x33 /home/huyong/Public/github/switft/build//libxxyyzz.a(os_flag.o)
 .ARM.attributes
                0x08018fce       0x33 /home/huyong/Public/github/switft/build//libxxyyzz.a(os_mem.o)
 .ARM.attributes
                0x08019001       0x33 /home/huyong/Public/github/switft/build//libxxyyzz.a(os_msg.o)
 .ARM.attributes
                0x08019034       0x33 /home/huyong/Public/github/switft/build//libxxyyzz.a(os_mutex.o)
 .ARM.attributes
                0x08019067       0x33 /home/huyong/Public/github/switft/build//libxxyyzz.a(os_prio.o)
 .ARM.attributes
                0x0801909a       0x33 /home/huyong/Public/github/switft/build//libxxyyzz.a(os_q.o)
 .ARM.attributes
                0x080190cd       0x33 /home/huyong/Public/github/switft/build//libxxyyzz.a(os_sem.o)
 .ARM.attributes
                0x08019100       0x33 /home/huyong/Public/github/switft/build//libxxyyzz.a(os_stat.o)
 .ARM.attributes
                0x08019133       0x33 /home/huyong/Public/github/switft/build//libxxyyzz.a(os_task.o)
 .ARM.attributes
                0x08019166       0x33 /home/huyong/Public/github/switft/build//libxxyyzz.a(os_tick.o)
 .ARM.attributes
                0x08019199       0x33 /home/huyong/Public/github/switft/build//libxxyyzz.a(os_time.o)
 .ARM.attributes
                0x080191cc       0x33 /home/huyong/Public/github/switft/build//libxxyyzz.a(os_tmr.o)
 .ARM.attributes
                0x080191ff       0x33 /home/huyong/Public/github/switft/build//libxxyyzz.a(os_var.o)
 .ARM.attributes
                0x08019232       0x33 /home/huyong/Public/github/switft/build//libxxyyzz.a(stm32f2xx_exti.o)
 .ARM.attributes
                0x08019265       0x33 /home/huyong/Public/github/switft/build//libxxyyzz.a(stm32f2xx_fsmc.o)
 .ARM.attributes
                0x08019298       0x33 /home/huyong/Public/github/switft/build//libxxyyzz.a(stm32f2xx_gpio.o)
 .ARM.attributes
                0x080192cb       0x33 /home/huyong/Public/github/switft/build//libxxyyzz.a(stm32f2xx_rcc.o)
 .ARM.attributes
                0x080192fe       0x33 /home/huyong/Public/github/switft/build//libxxyyzz.a(stm32f2xx_usart.o)
 .ARM.attributes
                0x08019331       0x33 /home/huyong/Public/github/switft/build//libxxyyzz.a(tcp.o)
 .ARM.attributes
                0x08019364       0x33 /home/huyong/Public/github/switft/build//libxxyyzz.a(tcp_out.o)
 .ARM.attributes
                0x08019397       0x33 /home/huyong/Public/github/switft/build//libxxyyzz.a(tcpip.o)
 .ARM.attributes
                0x080193ca       0x33 /home/huyong/Public/github/switft/build//libxxyyzz.a(timers.o)
 .ARM.attributes
                0x080193fd       0x33 /home/huyong/Public/github/switft/build//libxxyyzz.a(udpecho.o)
 .ARM.attributes
                0x08019430       0x33 /home/huyong/Public/github/switft/build//libxxyyzz.a(api_lib.o)
 .ARM.attributes
                0x08019463       0x33 /home/huyong/Public/github/switft/build//libxxyyzz.a(api_msg.o)
 .ARM.attributes
                0x08019496       0x33 /home/huyong/Public/github/switft/build//libxxyyzz.a(bsp_eth.o)
 .ARM.attributes
                0x080194c9       0x33 /home/huyong/Public/github/switft/build//libxxyyzz.a(bsp_gpio.o)
 .ARM.attributes
                0x080194fc       0x33 /home/huyong/Public/github/switft/build//libxxyyzz.a(bsp_os.o)
 .ARM.attributes
                0x0801952f       0x33 /home/huyong/Public/github/switft/build//libxxyyzz.a(bsp_uart.o)
 .ARM.attributes
                0x08019562       0x33 /home/huyong/Public/github/switft/build//libxxyyzz.a(cli_readline.o)
 .ARM.attributes
                0x08019595       0x33 /home/huyong/Public/github/switft/build//libxxyyzz.a(def.o)
 .ARM.attributes
                0x080195c8       0x33 /home/huyong/Public/github/switft/build//libxxyyzz.a(etharp.o)
 .ARM.attributes
                0x080195fb       0x33 /home/huyong/Public/github/switft/build//libxxyyzz.a(ethernetif.o)
 .ARM.attributes
                0x0801962e       0x33 /home/huyong/Public/github/switft/build//libxxyyzz.a(inet_chksum.o)
 .ARM.attributes
                0x08019661       0x33 /home/huyong/Public/github/switft/build//libxxyyzz.a(init.o)
 .ARM.attributes
                0x08019694       0x33 /home/huyong/Public/github/switft/build//libxxyyzz.a(ip.o)
 .ARM.attributes
                0x080196c7       0x33 /home/huyong/Public/github/switft/build//libxxyyzz.a(ip_addr.o)
 .ARM.attributes
                0x080196fa       0x33 /home/huyong/Public/github/switft/build//libxxyyzz.a(ip_frag.o)
 .ARM.attributes
                0x0801972d       0x33 /home/huyong/Public/github/switft/build//libxxyyzz.a(lib_ascii.o)
 .ARM.attributes
                0x08019760       0x33 /home/huyong/Public/github/switft/build//libxxyyzz.a(mem.o)
 .ARM.attributes
                0x08019793       0x33 /home/huyong/Public/github/switft/build//libxxyyzz.a(memp.o)
 .ARM.attributes
                0x080197c6       0x33 /home/huyong/Public/github/switft/build//libxxyyzz.a(netbuf.o)
 .ARM.attributes
                0x080197f9       0x33 /home/huyong/Public/github/switft/build//libxxyyzz.a(pbuf.o)
 .ARM.attributes
                0x0801982c       0x33 /home/huyong/Public/github/switft/build//libxxyyzz.a(raw.o)
 .ARM.attributes
                0x0801985f       0x33 /home/huyong/Public/github/switft/build//libxxyyzz.a(sockets.o)
 .ARM.attributes
                0x08019892       0x33 /home/huyong/Public/github/switft/build//libxxyyzz.a(stm32f2x7_eth.o)
 .ARM.attributes
                0x080198c5       0x33 /home/huyong/Public/github/switft/build//libxxyyzz.a(stm32f2xx_syscfg.o)
 .ARM.attributes
                0x080198f8       0x33 /home/huyong/Public/github/switft/build//libxxyyzz.a(sys_arch.o)
 .ARM.attributes
                0x0801992b       0x33 /home/huyong/Public/github/switft/build//libxxyyzz.a(tcp_in.o)
 .ARM.attributes
                0x0801995e       0x33 /home/huyong/Public/github/switft/build//libxxyyzz.a(udp.o)
 .ARM.attributes
                0x08019991       0x33 /home/huyong/Public/github/switft/build//libxxyyzz.a(app_tool.o)
 .ARM.attributes
                0x080199c4       0x33 /home/huyong/Public/github/switft/build//libxxyyzz.a(icmp.o)
 .ARM.attributes
                0x080199f7       0x2d /opt/gcc-arm-none-eabi-5_4-2016q3/bin/../lib/gcc/arm-none-eabi/5.4.1/../../../../arm-none-eabi/lib/armv7-m/libg_nano.a(lib_a-impure.o)
 .ARM.attributes
                0x08019a24       0x2d /opt/gcc-arm-none-eabi-5_4-2016q3/bin/../lib/gcc/arm-none-eabi/5.4.1/../../../../arm-none-eabi/lib/armv7-m/libg_nano.a(lib_a-isblank.o)
 .ARM.attributes
                0x08019a51       0x2d /opt/gcc-arm-none-eabi-5_4-2016q3/bin/../lib/gcc/arm-none-eabi/5.4.1/../../../../arm-none-eabi/lib/armv7-m/libg_nano.a(lib_a-locale.o)
 .ARM.attributes
                0x08019a7e       0x2d /opt/gcc-arm-none-eabi-5_4-2016q3/bin/../lib/gcc/arm-none-eabi/5.4.1/../../../../arm-none-eabi/lib/armv7-m/libg_nano.a(lib_a-mbtowc_r.o)
 .ARM.attributes
                0x08019aab       0x2d /opt/gcc-arm-none-eabi-5_4-2016q3/bin/../lib/gcc/arm-none-eabi/5.4.1/../../../../arm-none-eabi/lib/armv7-m/libg_nano.a(lib_a-memcmp.o)
 .ARM.attributes
                0x08019ad8       0x2d /opt/gcc-arm-none-eabi-5_4-2016q3/bin/../lib/gcc/arm-none-eabi/5.4.1/../../../../arm-none-eabi/lib/armv7-m/libg_nano.a(lib_a-memcpy-stub.o)
 .ARM.attributes
                0x08019b05       0x2d /opt/gcc-arm-none-eabi-5_4-2016q3/bin/../lib/gcc/arm-none-eabi/5.4.1/../../../../arm-none-eabi/lib/armv7-m/libg_nano.a(lib_a-memset.o)
 .ARM.attributes
                0x08019b32       0x2d /opt/gcc-arm-none-eabi-5_4-2016q3/bin/../lib/gcc/arm-none-eabi/5.4.1/../../../../arm-none-eabi/lib/armv7-m/libg_nano.a(lib_a-printf.o)
 .ARM.attributes
                0x08019b5f       0x2d /opt/gcc-arm-none-eabi-5_4-2016q3/bin/../lib/gcc/arm-none-eabi/5.4.1/../../../../arm-none-eabi/lib/armv7-m/libg_nano.a(lib_a-putc.o)
 .ARM.attributes
                0x08019b8c       0x2d /opt/gcc-arm-none-eabi-5_4-2016q3/bin/../lib/gcc/arm-none-eabi/5.4.1/../../../../arm-none-eabi/lib/armv7-m/libg_nano.a(lib_a-puts.o)
 .ARM.attributes
                0x08019bb9       0x1b /opt/gcc-arm-none-eabi-5_4-2016q3/bin/../lib/gcc/arm-none-eabi/5.4.1/../../../../arm-none-eabi/lib/armv7-m/libg_nano.a(lib_a-strcmp.o)
 .ARM.attributes
                0x08019bd4       0x2d /opt/gcc-arm-none-eabi-5_4-2016q3/bin/../lib/gcc/arm-none-eabi/5.4.1/../../../../arm-none-eabi/lib/armv7-m/libg_nano.a(lib_a-strcpy.o)
 .ARM.attributes
                0x08019c01       0x2d /opt/gcc-arm-none-eabi-5_4-2016q3/bin/../lib/gcc/arm-none-eabi/5.4.1/../../../../arm-none-eabi/lib/armv7-m/libg_nano.a(lib_a-strlcpy.o)
 .ARM.attributes
                0x08019c2e       0x17 /opt/gcc-arm-none-eabi-5_4-2016q3/bin/../lib/gcc/arm-none-eabi/5.4.1/../../../../arm-none-eabi/lib/armv7-m/libg_nano.a(lib_a-strlen.o)
 .ARM.attributes
                0x08019c45       0x2d /opt/gcc-arm-none-eabi-5_4-2016q3/bin/../lib/gcc/arm-none-eabi/5.4.1/../../../../arm-none-eabi/lib/armv7-m/libg_nano.a(lib_a-strncmp.o)
 .ARM.attributes
                0x08019c72       0x2d /opt/gcc-arm-none-eabi-5_4-2016q3/bin/../lib/gcc/arm-none-eabi/5.4.1/../../../../arm-none-eabi/lib/armv7-m/libg_nano.a(lib_a-strtoul.o)
 .ARM.attributes
                0x08019c9f       0x2d /opt/gcc-arm-none-eabi-5_4-2016q3/bin/../lib/gcc/arm-none-eabi/5.4.1/../../../../arm-none-eabi/lib/armv7-m/libg_nano.a(lib_a-wbuf.o)
 .ARM.attributes
                0x08019ccc       0x2d /opt/gcc-arm-none-eabi-5_4-2016q3/bin/../lib/gcc/arm-none-eabi/5.4.1/../../../../arm-none-eabi/lib/armv7-m/libg_nano.a(lib_a-wctomb_r.o)
 .ARM.attributes
                0x08019cf9       0x2d /opt/gcc-arm-none-eabi-5_4-2016q3/bin/../lib/gcc/arm-none-eabi/5.4.1/../../../../arm-none-eabi/lib/armv7-m/libg_nano.a(lib_a-wsetup.o)
 .ARM.attributes
                0x08019d26       0x2d /opt/gcc-arm-none-eabi-5_4-2016q3/bin/../lib/gcc/arm-none-eabi/5.4.1/../../../../arm-none-eabi/lib/armv7-m/libg_nano.a(lib_a-ctype_.o)
 .ARM.attributes
                0x08019d53       0x2d /opt/gcc-arm-none-eabi-5_4-2016q3/bin/../lib/gcc/arm-none-eabi/5.4.1/../../../../arm-none-eabi/lib/armv7-m/libg_nano.a(lib_a-fflush.o)
 .ARM.attributes
                0x08019d80       0x2d /opt/gcc-arm-none-eabi-5_4-2016q3/bin/../lib/gcc/arm-none-eabi/5.4.1/../../../../arm-none-eabi/lib/armv7-m/libg_nano.a(lib_a-findfp.o)
 .ARM.attributes
                0x08019dad       0x2d /opt/gcc-arm-none-eabi-5_4-2016q3/bin/../lib/gcc/arm-none-eabi/5.4.1/../../../../arm-none-eabi/lib/armv7-m/libg_nano.a(lib_a-fwalk.o)
 .ARM.attributes
                0x08019dda       0x2d /opt/gcc-arm-none-eabi-5_4-2016q3/bin/../lib/gcc/arm-none-eabi/5.4.1/../../../../arm-none-eabi/lib/armv7-m/libg_nano.a(lib_a-makebuf.o)
 .ARM.attributes
                0x08019e07       0x2d /opt/gcc-arm-none-eabi-5_4-2016q3/bin/../lib/gcc/arm-none-eabi/5.4.1/../../../../arm-none-eabi/lib/armv7-m/libg_nano.a(lib_a-nano-freer.o)
 .ARM.attributes
                0x08019e34       0x2d /opt/gcc-arm-none-eabi-5_4-2016q3/bin/../lib/gcc/arm-none-eabi/5.4.1/../../../../arm-none-eabi/lib/armv7-m/libg_nano.a(lib_a-nano-mallocr.o)
 .ARM.attributes
                0x08019e61       0x2d /opt/gcc-arm-none-eabi-5_4-2016q3/bin/../lib/gcc/arm-none-eabi/5.4.1/../../../../arm-none-eabi/lib/armv7-m/libg_nano.a(lib_a-nano-vfprintf.o)
 .ARM.attributes
                0x08019e8e       0x2d /opt/gcc-arm-none-eabi-5_4-2016q3/bin/../lib/gcc/arm-none-eabi/5.4.1/../../../../arm-none-eabi/lib/armv7-m/libg_nano.a(lib_a-nano-vfprintf_i.o)
 .ARM.attributes
                0x08019ebb       0x2d /opt/gcc-arm-none-eabi-5_4-2016q3/bin/../lib/gcc/arm-none-eabi/5.4.1/../../../../arm-none-eabi/lib/armv7-m/libg_nano.a(lib_a-sbrkr.o)
 .ARM.attributes
                0x08019ee8       0x2d /opt/gcc-arm-none-eabi-5_4-2016q3/bin/../lib/gcc/arm-none-eabi/5.4.1/../../../../arm-none-eabi/lib/armv7-m/libg_nano.a(lib_a-stdio.o)
 .ARM.attributes
                0x08019f15       0x2d /opt/gcc-arm-none-eabi-5_4-2016q3/bin/../lib/gcc/arm-none-eabi/5.4.1/../../../../arm-none-eabi/lib/armv7-m/libg_nano.a(lib_a-writer.o)
 .ARM.attributes
                0x08019f42       0x2d /opt/gcc-arm-none-eabi-5_4-2016q3/bin/../lib/gcc/arm-none-eabi/5.4.1/../../../../arm-none-eabi/lib/armv7-m/libg_nano.a(lib_a-closer.o)
 .ARM.attributes
                0x08019f6f       0x2d /opt/gcc-arm-none-eabi-5_4-2016q3/bin/../lib/gcc/arm-none-eabi/5.4.1/../../../../arm-none-eabi/lib/armv7-m/libg_nano.a(lib_a-fstatr.o)
 .ARM.attributes
                0x08019f9c       0x2d /opt/gcc-arm-none-eabi-5_4-2016q3/bin/../lib/gcc/arm-none-eabi/5.4.1/../../../../arm-none-eabi/lib/armv7-m/libg_nano.a(lib_a-isattyr.o)
 .ARM.attributes
                0x08019fc9       0x2d /opt/gcc-arm-none-eabi-5_4-2016q3/bin/../lib/gcc/arm-none-eabi/5.4.1/../../../../arm-none-eabi/lib/armv7-m/libg_nano.a(lib_a-lseekr.o)
 .ARM.attributes
                0x08019ff6       0x2d /opt/gcc-arm-none-eabi-5_4-2016q3/bin/../lib/gcc/arm-none-eabi/5.4.1/../../../../arm-none-eabi/lib/armv7-m/libg_nano.a(lib_a-memchr-stub.o)
 .ARM.attributes
                0x0801a023       0x2d /opt/gcc-arm-none-eabi-5_4-2016q3/bin/../lib/gcc/arm-none-eabi/5.4.1/../../../../arm-none-eabi/lib/armv7-m/libg_nano.a(lib_a-mlock.o)
 .ARM.attributes
                0x0801a050       0x2d /opt/gcc-arm-none-eabi-5_4-2016q3/bin/../lib/gcc/arm-none-eabi/5.4.1/../../../../arm-none-eabi/lib/armv7-m/libg_nano.a(lib_a-readr.o)
 .ARM.attributes
                0x0801a07d       0x2d /opt/gcc-arm-none-eabi-5_4-2016q3/bin/../lib/gcc/arm-none-eabi/5.4.1/../../../../arm-none-eabi/lib/armv7-m/libg_nano.a(lib_a-reent.o)
 .ARM.attributes
                0x0801a0aa       0x2d /opt/gcc-arm-none-eabi-5_4-2016q3/bin/../lib/gcc/arm-none-eabi/5.4.1/../../../../arm-none-eabi/lib/armv7-m/libnosys.a(close.o)
 .ARM.attributes
                0x0801a0d7       0x2d /opt/gcc-arm-none-eabi-5_4-2016q3/bin/../lib/gcc/arm-none-eabi/5.4.1/../../../../arm-none-eabi/lib/armv7-m/libnosys.a(fstat.o)
 .ARM.attributes
                0x0801a104       0x2d /opt/gcc-arm-none-eabi-5_4-2016q3/bin/../lib/gcc/arm-none-eabi/5.4.1/../../../../arm-none-eabi/lib/armv7-m/libnosys.a(isatty.o)
 .ARM.attributes
                0x0801a131       0x2d /opt/gcc-arm-none-eabi-5_4-2016q3/bin/../lib/gcc/arm-none-eabi/5.4.1/../../../../arm-none-eabi/lib/armv7-m/libnosys.a(lseek.o)
 .ARM.attributes
                0x0801a15e       0x2d /opt/gcc-arm-none-eabi-5_4-2016q3/bin/../lib/gcc/arm-none-eabi/5.4.1/../../../../arm-none-eabi/lib/armv7-m/libnosys.a(read.o)
 .ARM.attributes
                0x0801a18b       0x2d /opt/gcc-arm-none-eabi-5_4-2016q3/bin/../lib/gcc/arm-none-eabi/5.4.1/../../../../arm-none-eabi/lib/armv7-m/libnosys.a(sbrk.o)
 .ARM.attributes
                0x0801a1b8       0x2d /opt/gcc-arm-none-eabi-5_4-2016q3/bin/../lib/gcc/arm-none-eabi/5.4.1/../../../../arm-none-eabi/lib/armv7-m/libnosys.a(write.o)
 .ARM.attributes
                0x0801a1e5       0x1d /opt/gcc-arm-none-eabi-5_4-2016q3/bin/../lib/gcc/arm-none-eabi/5.4.1/armv7-m/crtn.o

.preinit_array  0x0801896c        0x0
                0x0801896c                PROVIDE (__preinit_array_start, .)
 *(.preinit_array*)
                0x0801896c                PROVIDE (__preinit_array_end, .)

.init_array     0x0801896c        0x4
                0x0801896c                PROVIDE (__init_array_start, .)
 *(SORT(.init_array.*))
 *(.init_array*)
 .init_array    0x0801896c        0x4 /opt/gcc-arm-none-eabi-5_4-2016q3/bin/../lib/gcc/arm-none-eabi/5.4.1/armv7-m/crtbegin.o
                0x08018970                PROVIDE (__init_array_end, .)

.fini_array     0x08018970        0x4
                [!provide]                PROVIDE (__fini_array_start, .)
 *(.fini_array*)
 .fini_array    0x08018970        0x4 /opt/gcc-arm-none-eabi-5_4-2016q3/bin/../lib/gcc/arm-none-eabi/5.4.1/armv7-m/crtbegin.o
 *(SORT(.fini_array.*))
                [!provide]                PROVIDE (__fini_array_end, .)
                0x08018974                _sidata = .

.data           0x20000000      0x204 load address 0x08018974
                0x20000000                . = ALIGN (0x4)
                0x20000000                _sdata = .
 *(.data)
 .data          0x20000000       0x14 /home/huyong/Public/github/switft/build/system_stm32f2xx.o
                0x20000000                AHBPrescTable
                0x20000010                SystemCoreClock
 .data          0x20000014       0x10 /home/huyong/Public/github/switft/build//libxxyyzz.a(stm32f2xx_rcc.o)
 .data          0x20000024        0x8 /home/huyong/Public/github/switft/build//libxxyyzz.a(tcp.o)
 .data          0x2000002c        0x6 /home/huyong/Public/github/switft/build//libxxyyzz.a(bsp_eth.o)
                0x2000002c                ETH_MAC_ADDR
 .data          0x20000032        0x2 /home/huyong/Public/github/switft/build//libxxyyzz.a(udp.o)
 *(.data*)
 .data.impure_data
                0x20000034       0x60 /opt/gcc-arm-none-eabi-5_4-2016q3/bin/../lib/gcc/arm-none-eabi/5.4.1/../../../../arm-none-eabi/lib/armv7-m/libg_nano.a(lib_a-impure.o)
 .data._impure_ptr
                0x20000094        0x4 /opt/gcc-arm-none-eabi-5_4-2016q3/bin/../lib/gcc/arm-none-eabi/5.4.1/../../../../arm-none-eabi/lib/armv7-m/libg_nano.a(lib_a-impure.o)
                0x20000094                _impure_ptr
 .data.__global_locale
                0x20000098      0x16c /opt/gcc-arm-none-eabi-5_4-2016q3/bin/../lib/gcc/arm-none-eabi/5.4.1/../../../../arm-none-eabi/lib/armv7-m/libg_nano.a(lib_a-locale.o)
                0x20000098                __global_locale
                0x20000204                . = ALIGN (0x4)
                0x20000204                _edata = .

.jcr            0x20000204        0x0 load address 0x08018b78
 .jcr           0x20000204        0x0 /opt/gcc-arm-none-eabi-5_4-2016q3/bin/../lib/gcc/arm-none-eabi/5.4.1/armv7-m/crtbegin.o

.igot.plt       0x20000204        0x0 load address 0x08018b78
 .igot.plt      0x20000204        0x0 /opt/gcc-arm-none-eabi-5_4-2016q3/bin/../lib/gcc/arm-none-eabi/5.4.1/armv7-m/crtbegin.o
                0x20000204                . = ALIGN (0x4)

.bss            0x20000204    0x16dfc load address 0x08018b78
                0x20000204                _sbss = .
                0x20000204                __bss_start__ = _sbss
 *(.bss)
 .bss           0x20000204       0x1c /opt/gcc-arm-none-eabi-5_4-2016q3/bin/../lib/gcc/arm-none-eabi/5.4.1/armv7-m/crtbegin.o
 .bss           0x20000220      0x144 /home/huyong/Public/github/switft/build//libxxyyzz.a(bsp_int.o)
 .bss           0x20000364       0x41 /home/huyong/Public/github/switft/build//libxxyyzz.a(cli_simple.o)
 *fill*         0x200003a5        0x3 
 .bss           0x200003a8      0x3c5 /home/huyong/Public/github/switft/build//libxxyyzz.a(command.o)
                0x200003a8                cmd_tbl
 *fill*         0x2000076d        0x3 
 .bss           0x20000770        0x8 /home/huyong/Public/github/switft/build//libxxyyzz.a(console.o)
 .bss           0x20000778       0x2e /home/huyong/Public/github/switft/build//libxxyyzz.a(hw_beacon.o)
                0x200007a4                USART_RX_STA
 .bss           0x200007a6        0x1 /home/huyong/Public/github/switft/build//libxxyyzz.a(netif.o)
 .bss           0x200007a7        0x2 /home/huyong/Public/github/switft/build//libxxyyzz.a(tcp.o)
 *fill*         0x200007a9        0x3 
 .bss           0x200007ac       0x38 /home/huyong/Public/github/switft/build//libxxyyzz.a(tcpip.o)
 .bss           0x200007e4        0x8 /home/huyong/Public/github/switft/build//libxxyyzz.a(timers.o)
 .bss           0x200007ec        0xe /home/huyong/Public/github/switft/build//libxxyyzz.a(udpecho.o)
 *fill*         0x200007fa        0x2 
 .bss           0x200007fc        0x5 /home/huyong/Public/github/switft/build//libxxyyzz.a(bsp_eth.o)
                0x200007fc                BSP_ETH_IRQHandler
 *fill*         0x20000801        0x3 
 .bss           0x20000804       0xc9 /home/huyong/Public/github/switft/build//libxxyyzz.a(etharp.o)
 *fill*         0x200008cd        0x1 
 .bss           0x200008ce        0x2 /home/huyong/Public/github/switft/build//libxxyyzz.a(ip.o)
 .bss           0x200008d0       0x10 /home/huyong/Public/github/switft/build//libxxyyzz.a(ip_addr.o)
 .bss           0x200008e0      0x5e8 /home/huyong/Public/github/switft/build//libxxyyzz.a(ip_frag.o)
 .bss           0x20000ec8       0x34 /home/huyong/Public/github/switft/build//libxxyyzz.a(mem.o)
 .bss           0x20000efc     0x3d40 /home/huyong/Public/github/switft/build//libxxyyzz.a(memp.o)
 .bss           0x20004c3c        0x4 /home/huyong/Public/github/switft/build//libxxyyzz.a(raw.o)
 .bss           0x20004c40       0x68 /home/huyong/Public/github/switft/build//libxxyyzz.a(sockets.o)
 .bss           0x20004ca8       0x20 /home/huyong/Public/github/switft/build//libxxyyzz.a(sys_arch.o)
 .bss           0x20004cc8       0x29 /home/huyong/Public/github/switft/build//libxxyyzz.a(tcp_in.o)
 *(.bss*)
 *fill*         0x20004cf1        0x3 
 .bss.__malloc_sbrk_start
                0x20004cf4        0x4 /opt/gcc-arm-none-eabi-5_4-2016q3/bin/../lib/gcc/arm-none-eabi/5.4.1/../../../../arm-none-eabi/lib/armv7-m/libg_nano.a(lib_a-nano-mallocr.o)
                0x20004cf4                __malloc_sbrk_start
 .bss.__malloc_free_list
                0x20004cf8        0x4 /opt/gcc-arm-none-eabi-5_4-2016q3/bin/../lib/gcc/arm-none-eabi/5.4.1/../../../../arm-none-eabi/lib/armv7-m/libg_nano.a(lib_a-nano-mallocr.o)
                0x20004cf8                __malloc_free_list
 .bss.heap_end.4167
                0x20004cfc        0x4 /opt/gcc-arm-none-eabi-5_4-2016q3/bin/../lib/gcc/arm-none-eabi/5.4.1/../../../../arm-none-eabi/lib/armv7-m/libnosys.a(sbrk.o)
 *(COMMON)
 COMMON         0x20004d00     0x65c4 /home/huyong/Public/github/switft/build/main.o
                0x20004d00                ACUDevInfo
                0x20005014                TaskShellStk
                0x20005c14                TaskSatelliteTrackTCB
                0x20005cd8                TaskPolarElecCoderTCB
                0x20005d9c                TaskEthRelinkTCB
                0x20005e60                TaskShellTCB
                0x20005f24                TaskSatGradientTrackStk
                0x20006724                TaskAntennaRecordGotoStk
                0x20007124                Task_Run_Flag
                0x20007128                TaskCabrageElecCoderTCB
                0x200071ec                TaskAntennaRecordGotoTCB
                0x200072b0                OptLogInfo
                0x200072d0                TaskCabrageElecCoderStk
                0x200076d0                TaskMonitorTCB
                0x20007794                TaskMonitorStk
                0x20008794                TaskPolarElecCoderStk
                0x20008b94                TaskStartStk
                0x20009b94                TaskBeaconTCB
                0x20009c58                TaskStartTCB
                0x20009d1c                TaskBeaconStk
                0x2000a11c                WarnLogInfo
                0x2000a13c                TaskEthRelinkStk
                0x2000a53c                TaskSatGradientTrackTCB
                0x2000a600                TaskPositionElecCoderStk
                0x2000aa00                TaskSatelliteTrackStk
                0x2000b200                TaskPositionElecCoderTCB
 COMMON         0x2000b2c4       0x14 /home/huyong/Public/github/switft/build//libxxyyzz.a(cpu_core.o)
                0x2000b2c4                CPU_TS_TmrFreq_Hz
                0x2000b2c8                CPU_Name
 COMMON         0x2000b2d8      0x1ec /home/huyong/Public/github/switft/build//libxxyyzz.a(hw_beacon.o)
                0x2000b2d8                SWIFT_UART6_Rev_Sem
                0x2000b300                SWIFT_UART6_Buff
                0x2000b30c                SWIFTUART6Buff
                0x2000b38c                Beacon2MCU_Sem
                0x2000b3b4                USART_RX_BUF
                0x2000b434                __stdout
                0x2000b49c                SWIFT_UART6_Send_Sem
 COMMON         0x2000b4c4     0x244c /home/huyong/Public/github/switft/build//libxxyyzz.a(lib_mem.o)
                0x2000b4c4                Mem_PoolHeap
                0x2000b50c                Mem_Heap
                0x2000d90c                Mem_PoolTbl
 COMMON         0x2000d910       0x30 /home/huyong/Public/github/switft/build//libxxyyzz.a(lwip.o)
                0x2000d910                xnetif
 COMMON         0x2000d940        0x8 /home/huyong/Public/github/switft/build//libxxyyzz.a(netif.o)
                0x2000d940                netif_list
                0x2000d944                netif_default
 COMMON         0x2000d948     0x1020 /home/huyong/Public/github/switft/build//libxxyyzz.a(os_cfg_app.o)
                0x2000d948                OSCfg_StatTaskStk
                0x2000db48                OSCfg_TickWheel
                0x2000dbc8                OSCfg_MsgPool
                0x2000dee8                OSCfg_TmrTaskStk
                0x2000e0e8                OSCfg_TmrWheel
                0x2000e168                OSCfg_ISRStk
                0x2000e568                OSCfg_TickTaskStk
                0x2000e768                OSCfg_IdleTaskStk
 COMMON         0x2000e968        0x4 /home/huyong/Public/github/switft/build//libxxyyzz.a(os_cpu_c.o)
                0x2000e968                OS_CPU_ExceptStkBase
 COMMON         0x2000e96c        0x8 /home/huyong/Public/github/switft/build//libxxyyzz.a(os_prio.o)
                0x2000e96c                OSPrioTbl
 COMMON         0x2000e974      0x6c8 /home/huyong/Public/github/switft/build//libxxyyzz.a(os_var.o)
                0x2000e974                OSSchedLockNestingCtr
                0x2000e978                OS_AppTaskReturnHookPtr
                0x2000e97c                OSStatTaskTimeMax
                0x2000e980                OSStatTaskCtr
                0x2000e984                OSTaskRegNextAvailID
                0x2000e985                OSRunning
                0x2000e988                OSRdyList
                0x2000ec7c                OSPrioHighRdy
                0x2000ec7d                OSStatTaskRdy
                0x2000ec80                OSSemDbgListPtr
                0x2000ec84                OS_AppTaskCreateHookPtr
                0x2000ec88                OSPrioCur
                0x2000ec8c                OSTickTaskTCB
                0x2000ed50                OSTmrTickCtr
                0x2000ed54                OSSchedLockTimeBegin
                0x2000ed58                OSTCBCurPtr
                0x2000ed5c                OSQQty
                0x2000ed5e                OSStatTaskCPUUsageMax
                0x2000ed60                OSPrioSaved
                0x2000ed64                OSTCBHighRdyPtr
                0x2000ed68                OSSchedLockTimeMaxCur
                0x2000ed6c                OSTaskDbgListPtr
                0x2000ed70                OSTmrTaskTimeMax
                0x2000ed74                OS_AppTaskDelHookPtr
                0x2000ed78                OS_AppTimeTickHookPtr
                0x2000ed7c                OSStatTaskCPUUsage
                0x2000ed80                OSTaskCtxSwCtr
                0x2000ed84                OSIntNestingCtr
                0x2000ed86                OSTaskQty
                0x2000ed88                OSTmrTaskTCB
                0x2000ee4c                OSMsgPool
                0x2000ee58                OSIdleTaskTCB
                0x2000ef1c                OSQDbgListPtr
                0x2000ef20                OSSemQty
                0x2000ef24                OSMemDbgListPtr
                0x2000ef28                OSSchedRoundRobinDfltTimeQuanta
                0x2000ef2c                OS_AppIdleTaskHookPtr
                0x2000ef30                OSStatTaskCtrMax
                0x2000ef34                OSTickCtr
                0x2000ef38                OS_AppTaskSwHookPtr
                0x2000ef3c                OSTmrQty
                0x2000ef40                OSIdleTaskCtr
                0x2000ef44                OSStatTaskCtrRun
                0x2000ef48                OS_AppStatTaskHookPtr
                0x2000ef4c                OSFlagQty
                0x2000ef50                OSFlagDbgListPtr
                0x2000ef54                OSSchedLockTimeMax
                0x2000ef58                OSStatResetFlag
                0x2000ef5a                OSMemQty
                0x2000ef5c                OSMutexQty
                0x2000ef60                OSStatTaskTCB
                0x2000f024                OSTmrDbgListPtr
                0x2000f028                OSTickTaskTimeMax
                0x2000f02c                OSTmrUpdateCnt
                0x2000f030                OSSchedRoundRobinEn
                0x2000f034                OSMutexDbgListPtr
                0x2000f038                OSTmrUpdateCtr
 COMMON         0x2000f03c       0x1c /home/huyong/Public/github/switft/build//libxxyyzz.a(tcp.o)
                0x2000f03c                tcp_active_pcbs_changed
                0x2000f040                tcp_active_pcbs
                0x2000f044                tcp_ticks
                0x2000f048                tcp_listen_pcbs
                0x2000f04c                tcp_tmp_pcb
                0x2000f050                tcp_bound_pcbs
                0x2000f054                tcp_tw_pcbs
 COMMON         0x2000f058       0x41 /home/huyong/Public/github/switft/build//libxxyyzz.a(cli_readline.o)
                0x2000f058                console_buffer
 *fill*         0x2000f099        0x3 
 COMMON         0x2000f09c       0x10 /home/huyong/Public/github/switft/build//libxxyyzz.a(ip.o)
                0x2000f09c                current_iphdr_src
                0x2000f0a0                current_netif
                0x2000f0a4                current_iphdr_dest
                0x2000f0a8                current_header
 COMMON         0x2000f0ac      0x414 /home/huyong/Public/github/switft/build//libxxyyzz.a(mem.o)
                0x2000f0ac                ram_heap
 COMMON         0x2000f4c0     0x3ce4 /home/huyong/Public/github/switft/build//libxxyyzz.a(stm32f2x7_eth.o)
                0x2000f4c0                RX_Frame_Descriptor
                0x2000f4cc                DMARxDescToGet
                0x2000f4d0                DMATxDescToSet
                0x2000f4d4                DMATxDscrTab
                0x2000f574                Rx_Buff
                0x20011338                Frame_Rx_index
                0x2001133c                DMA_RX_FRAME_infos
                0x20011340                DMARxDscrTab
                0x200113e0                Tx_Buff
 COMMON         0x200131a4     0x3e50 /home/huyong/Public/github/switft/build//libxxyyzz.a(sys_arch.o)
                0x200131a4                LwIP_task_priopity_stask
                0x200131a8                LwIP_task_TCB
                0x200133f4                LwIP_Task_Stk
 COMMON         0x20016ff4        0x4 /home/huyong/Public/github/switft/build//libxxyyzz.a(tcp_in.o)
                0x20016ff4                tcp_input_pcb
 COMMON         0x20016ff8        0x4 /home/huyong/Public/github/switft/build//libxxyyzz.a(udp.o)
                0x20016ff8                udp_pcbs
 COMMON         0x20016ffc        0x4 /opt/gcc-arm-none-eabi-5_4-2016q3/bin/../lib/gcc/arm-none-eabi/5.4.1/../../../../arm-none-eabi/lib/armv7-m/libg_nano.a(lib_a-reent.o)
                0x20016ffc                errno
                0x20017000                . = ALIGN (0x4)
                0x20017000                _ebss = .
                0x20017000                __bss_end__ = _ebss
                0x20017000                PROVIDE (end, _ebss)
                [!provide]                PROVIDE (_end, _ebss)

._user_heap_stack
                0x20017000     0x4090 load address 0x0802f974
                0x20017000                . = ALIGN (0x4)
                0x20019048                . = (. + _Min_Heap_Size)
 *fill*         0x20017000     0x2048 
                0x2001b090                . = (. + _Min_Stack_Size)
 *fill*         0x20019048     0x2048 
                0x2001b090                . = ALIGN (0x4)

.memory_b1_text
 *(.mb1text)
 *(.mb1text*)
 *(.mb1rodata)
 *(.mb1rodata*)

/DISCARD/
 libc.a(*)
 libm.a(*)
 libgcc.a(*)
OUTPUT(/home/huyong/Public/github/switft/build/swift.elf elf32-littlearm)

.debug_info     0x00000000    0x48188
 .debug_info    0x00000000      0x58f /home/huyong/Public/github/switft/build/system_stm32f2xx.o
 .debug_info    0x0000058f     0x235d /home/huyong/Public/github/switft/build/main.o
 .debug_info    0x000028ec      0x15e /home/huyong/Public/github/switft/build//libxxyyzz.a(app_shell.o)
 .debug_info    0x00002a4a     0x16fc /home/huyong/Public/github/switft/build//libxxyyzz.a(bsp.o)
 .debug_info    0x00004146      0x671 /home/huyong/Public/github/switft/build//libxxyyzz.a(bsp_delay.o)
 .debug_info    0x000047b7     0x11f1 /home/huyong/Public/github/switft/build//libxxyyzz.a(bsp_int.o)
 .debug_info    0x000059a8       0xd5 /home/huyong/Public/github/switft/build//libxxyyzz.a(cli.o)
 .debug_info    0x00005a7d      0x5ce /home/huyong/Public/github/switft/build//libxxyyzz.a(cli_simple.o)
 .debug_info    0x0000604b      0x2ac /home/huyong/Public/github/switft/build//libxxyyzz.a(cmd_d.o)
 .debug_info    0x000062f7      0x2d2 /home/huyong/Public/github/switft/build//libxxyyzz.a(cmd_help.o)
 .debug_info    0x000065c9      0x27a /home/huyong/Public/github/switft/build//libxxyyzz.a(cmd_m.o)
 .debug_info    0x00006843      0x28b /home/huyong/Public/github/switft/build//libxxyyzz.a(cmd_reset.o)
 .debug_info    0x00006ace      0x271 /home/huyong/Public/github/switft/build//libxxyyzz.a(cmd_ver.o)
 .debug_info    0x00006d3f      0xc29 /home/huyong/Public/github/switft/build//libxxyyzz.a(command.o)
 .debug_info    0x00007968      0x41c /home/huyong/Public/github/switft/build//libxxyyzz.a(console.o)
 .debug_info    0x00007d84      0x5c7 /home/huyong/Public/github/switft/build//libxxyyzz.a(cpu_c.o)
 .debug_info    0x0000834b      0x71d /home/huyong/Public/github/switft/build//libxxyyzz.a(cpu_core.o)
 .debug_info    0x00008a68     0x196a /home/huyong/Public/github/switft/build//libxxyyzz.a(hw_beacon.o)
 .debug_info    0x0000a3d2      0x382 /home/huyong/Public/github/switft/build//libxxyyzz.a(hw_led.o)
 .debug_info    0x0000a754     0x1620 /home/huyong/Public/github/switft/build//libxxyyzz.a(lib_mem.o)
 .debug_info    0x0000bd74     0x1384 /home/huyong/Public/github/switft/build//libxxyyzz.a(lib_str.o)
 .debug_info    0x0000d0f8     0x139f /home/huyong/Public/github/switft/build//libxxyyzz.a(lwip.o)
 .debug_info    0x0000e497      0xdd4 /home/huyong/Public/github/switft/build//libxxyyzz.a(netif.o)
 .debug_info    0x0000f26b      0xbe2 /home/huyong/Public/github/switft/build//libxxyyzz.a(os_cfg_app.o)
 .debug_info    0x0000fe4d     0x24db /home/huyong/Public/github/switft/build//libxxyyzz.a(os_core.o)
 .debug_info    0x00012328      0xa30 /home/huyong/Public/github/switft/build//libxxyyzz.a(os_cpu_c.o)
 .debug_info    0x00012d58     0x13a0 /home/huyong/Public/github/switft/build//libxxyyzz.a(os_dbg.o)
 .debug_info    0x000140f8     0x138a /home/huyong/Public/github/switft/build//libxxyyzz.a(os_flag.o)
 .debug_info    0x00015482      0x89d /home/huyong/Public/github/switft/build//libxxyyzz.a(os_mem.o)
 .debug_info    0x00015d1f      0x866 /home/huyong/Public/github/switft/build//libxxyyzz.a(os_msg.o)
 .debug_info    0x00016585     0x110a /home/huyong/Public/github/switft/build//libxxyyzz.a(os_mutex.o)
 .debug_info    0x0001768f      0x1df /home/huyong/Public/github/switft/build//libxxyyzz.a(os_prio.o)
 .debug_info    0x0001786e     0x1530 /home/huyong/Public/github/switft/build//libxxyyzz.a(os_q.o)
 .debug_info    0x00018d9e     0x1462 /home/huyong/Public/github/switft/build//libxxyyzz.a(os_sem.o)
 .debug_info    0x0001a200     0x1235 /home/huyong/Public/github/switft/build//libxxyyzz.a(os_stat.o)
 .debug_info    0x0001b435     0x2089 /home/huyong/Public/github/switft/build//libxxyyzz.a(os_task.o)
 .debug_info    0x0001d4be     0x100a /home/huyong/Public/github/switft/build//libxxyyzz.a(os_tick.o)
 .debug_info    0x0001e4c8      0xf8c /home/huyong/Public/github/switft/build//libxxyyzz.a(os_time.o)
 .debug_info    0x0001f454     0x1590 /home/huyong/Public/github/switft/build//libxxyyzz.a(os_tmr.o)
 .debug_info    0x000209e4      0xf85 /home/huyong/Public/github/switft/build//libxxyyzz.a(os_var.o)
 .debug_info    0x00021969      0x337 /home/huyong/Public/github/switft/build//libxxyyzz.a(stm32f2xx_exti.o)
 .debug_info    0x00021ca0      0x8ed /home/huyong/Public/github/switft/build//libxxyyzz.a(stm32f2xx_fsmc.o)
 .debug_info    0x0002258d      0x7b3 /home/huyong/Public/github/switft/build//libxxyyzz.a(stm32f2xx_gpio.o)
 .debug_info    0x00022d40      0xce5 /home/huyong/Public/github/switft/build//libxxyyzz.a(stm32f2xx_rcc.o)
 .debug_info    0x00023a25      0xb05 /home/huyong/Public/github/switft/build//libxxyyzz.a(stm32f2xx_usart.o)
 .debug_info    0x0002452a     0x21f2 /home/huyong/Public/github/switft/build//libxxyyzz.a(tcp.o)
 .debug_info    0x0002671c     0x1d89 /home/huyong/Public/github/switft/build//libxxyyzz.a(tcp_out.o)
 .debug_info    0x000284a5     0x16d0 /home/huyong/Public/github/switft/build//libxxyyzz.a(tcpip.o)
 .debug_info    0x00029b75     0x1178 /home/huyong/Public/github/switft/build//libxxyyzz.a(timers.o)
 .debug_info    0x0002aced     0x1b7a /home/huyong/Public/github/switft/build//libxxyyzz.a(udpecho.o)
 .debug_info    0x0002c867     0x23ef /home/huyong/Public/github/switft/build//libxxyyzz.a(api_lib.o)
 .debug_info    0x0002ec56     0x3045 /home/huyong/Public/github/switft/build//libxxyyzz.a(api_msg.o)
 .debug_info    0x00031c9b     0x148a /home/huyong/Public/github/switft/build//libxxyyzz.a(bsp_eth.o)
 .debug_info    0x00033125      0x5b8 /home/huyong/Public/github/switft/build//libxxyyzz.a(bsp_gpio.o)
 .debug_info    0x000336dd     0x1413 /home/huyong/Public/github/switft/build//libxxyyzz.a(bsp_os.o)
 .debug_info    0x00034af0      0x7a7 /home/huyong/Public/github/switft/build//libxxyyzz.a(bsp_uart.o)
 .debug_info    0x00035297      0x60e /home/huyong/Public/github/switft/build//libxxyyzz.a(cli_readline.o)
 .debug_info    0x000358a5      0x15e /home/huyong/Public/github/switft/build//libxxyyzz.a(def.o)
 .debug_info    0x00035a03     0x197b /home/huyong/Public/github/switft/build//libxxyyzz.a(etharp.o)
 .debug_info    0x0003737e      0x82f /home/huyong/Public/github/switft/build//libxxyyzz.a(ethernetif.o)
 .debug_info    0x00037bad      0x4c6 /home/huyong/Public/github/switft/build//libxxyyzz.a(inet_chksum.o)
 .debug_info    0x00038073      0x16f /home/huyong/Public/github/switft/build//libxxyyzz.a(init.o)
 .debug_info    0x000381e2      0x95f /home/huyong/Public/github/switft/build//libxxyyzz.a(ip.o)
 .debug_info    0x00038b41      0x62d /home/huyong/Public/github/switft/build//libxxyyzz.a(ip_addr.o)
 .debug_info    0x0003916e     0x113e /home/huyong/Public/github/switft/build//libxxyyzz.a(ip_frag.o)
 .debug_info    0x0003a2ac      0x487 /home/huyong/Public/github/switft/build//libxxyyzz.a(lib_ascii.o)
 .debug_info    0x0003a733      0xe96 /home/huyong/Public/github/switft/build//libxxyyzz.a(mem.o)
 .debug_info    0x0003b5c9      0x3cc /home/huyong/Public/github/switft/build//libxxyyzz.a(memp.o)
 .debug_info    0x0003b995      0x70a /home/huyong/Public/github/switft/build//libxxyyzz.a(netbuf.o)
 .debug_info    0x0003c09f     0x12ee /home/huyong/Public/github/switft/build//libxxyyzz.a(pbuf.o)
 .debug_info    0x0003d38d      0x959 /home/huyong/Public/github/switft/build//libxxyyzz.a(raw.o)
 .debug_info    0x0003dce6     0x3563 /home/huyong/Public/github/switft/build//libxxyyzz.a(sockets.o)
 .debug_info    0x00041249     0x1b12 /home/huyong/Public/github/switft/build//libxxyyzz.a(stm32f2x7_eth.o)
 .debug_info    0x00042d5b      0x299 /home/huyong/Public/github/switft/build//libxxyyzz.a(stm32f2xx_syscfg.o)
 .debug_info    0x00042ff4     0x18e9 /home/huyong/Public/github/switft/build//libxxyyzz.a(sys_arch.o)
 .debug_info    0x000448dd     0x17e8 /home/huyong/Public/github/switft/build//libxxyyzz.a(tcp_in.o)
 .debug_info    0x000460c5      0xe21 /home/huyong/Public/github/switft/build//libxxyyzz.a(udp.o)
 .debug_info    0x00046ee6      0x85d /home/huyong/Public/github/switft/build//libxxyyzz.a(app_tool.o)
 .debug_info    0x00047743      0xa45 /home/huyong/Public/github/switft/build//libxxyyzz.a(icmp.o)

.debug_abbrev   0x00000000     0xabf0
 .debug_abbrev  0x00000000      0x17d /home/huyong/Public/github/switft/build/system_stm32f2xx.o
 .debug_abbrev  0x0000017d      0x307 /home/huyong/Public/github/switft/build/main.o
 .debug_abbrev  0x00000484       0xa0 /home/huyong/Public/github/switft/build//libxxyyzz.a(app_shell.o)
 .debug_abbrev  0x00000524      0x301 /home/huyong/Public/github/switft/build//libxxyyzz.a(bsp.o)
 .debug_abbrev  0x00000825       0xf4 /home/huyong/Public/github/switft/build//libxxyyzz.a(bsp_delay.o)
 .debug_abbrev  0x00000919      0x272 /home/huyong/Public/github/switft/build//libxxyyzz.a(bsp_int.o)
 .debug_abbrev  0x00000b8b       0xdf /home/huyong/Public/github/switft/build//libxxyyzz.a(cli.o)
 .debug_abbrev  0x00000c6a      0x202 /home/huyong/Public/github/switft/build//libxxyyzz.a(cli_simple.o)
 .debug_abbrev  0x00000e6c      0x145 /home/huyong/Public/github/switft/build//libxxyyzz.a(cmd_d.o)
 .debug_abbrev  0x00000fb1      0x138 /home/huyong/Public/github/switft/build//libxxyyzz.a(cmd_help.o)
 .debug_abbrev  0x000010e9      0x12d /home/huyong/Public/github/switft/build//libxxyyzz.a(cmd_m.o)
 .debug_abbrev  0x00001216      0x129 /home/huyong/Public/github/switft/build//libxxyyzz.a(cmd_reset.o)
 .debug_abbrev  0x0000133f      0x127 /home/huyong/Public/github/switft/build//libxxyyzz.a(cmd_ver.o)
 .debug_abbrev  0x00001466      0x390 /home/huyong/Public/github/switft/build//libxxyyzz.a(command.o)
 .debug_abbrev  0x000017f6      0x1e9 /home/huyong/Public/github/switft/build//libxxyyzz.a(console.o)
 .debug_abbrev  0x000019df      0x183 /home/huyong/Public/github/switft/build//libxxyyzz.a(cpu_c.o)
 .debug_abbrev  0x00001b62      0x272 /home/huyong/Public/github/switft/build//libxxyyzz.a(cpu_core.o)
 .debug_abbrev  0x00001dd4      0x3a2 /home/huyong/Public/github/switft/build//libxxyyzz.a(hw_beacon.o)
 .debug_abbrev  0x00002176      0x11f /home/huyong/Public/github/switft/build//libxxyyzz.a(hw_led.o)
 .debug_abbrev  0x00002295      0x2e6 /home/huyong/Public/github/switft/build//libxxyyzz.a(lib_mem.o)
 .debug_abbrev  0x0000257b      0x26c /home/huyong/Public/github/switft/build//libxxyyzz.a(lib_str.o)
 .debug_abbrev  0x000027e7      0x1bd /home/huyong/Public/github/switft/build//libxxyyzz.a(lwip.o)
 .debug_abbrev  0x000029a4      0x34a /home/huyong/Public/github/switft/build//libxxyyzz.a(netif.o)
 .debug_abbrev  0x00002cee       0xdc /home/huyong/Public/github/switft/build//libxxyyzz.a(os_cfg_app.o)
 .debug_abbrev  0x00002dca      0x34f /home/huyong/Public/github/switft/build//libxxyyzz.a(os_core.o)
 .debug_abbrev  0x00003119      0x219 /home/huyong/Public/github/switft/build//libxxyyzz.a(os_cpu_c.o)
 .debug_abbrev  0x00003332       0xfa /home/huyong/Public/github/switft/build//libxxyyzz.a(os_dbg.o)
 .debug_abbrev  0x0000342c      0x27d /home/huyong/Public/github/switft/build//libxxyyzz.a(os_flag.o)
 .debug_abbrev  0x000036a9      0x1a3 /home/huyong/Public/github/switft/build//libxxyyzz.a(os_mem.o)
 .debug_abbrev  0x0000384c      0x184 /home/huyong/Public/github/switft/build//libxxyyzz.a(os_msg.o)
 .debug_abbrev  0x000039d0      0x226 /home/huyong/Public/github/switft/build//libxxyyzz.a(os_mutex.o)
 .debug_abbrev  0x00003bf6       0xe2 /home/huyong/Public/github/switft/build//libxxyyzz.a(os_prio.o)
 .debug_abbrev  0x00003cd8      0x2b0 /home/huyong/Public/github/switft/build//libxxyyzz.a(os_q.o)
 .debug_abbrev  0x00003f88      0x2bd /home/huyong/Public/github/switft/build//libxxyyzz.a(os_sem.o)
 .debug_abbrev  0x00004245      0x1e7 /home/huyong/Public/github/switft/build//libxxyyzz.a(os_stat.o)
 .debug_abbrev  0x0000442c      0x2bd /home/huyong/Public/github/switft/build//libxxyyzz.a(os_task.o)
 .debug_abbrev  0x000046e9      0x29b /home/huyong/Public/github/switft/build//libxxyyzz.a(os_tick.o)
 .debug_abbrev  0x00004984      0x1d6 /home/huyong/Public/github/switft/build//libxxyyzz.a(os_time.o)
 .debug_abbrev  0x00004b5a      0x2ab /home/huyong/Public/github/switft/build//libxxyyzz.a(os_tmr.o)
 .debug_abbrev  0x00004e05       0xb7 /home/huyong/Public/github/switft/build//libxxyyzz.a(os_var.o)
 .debug_abbrev  0x00004ebc      0x1db /home/huyong/Public/github/switft/build//libxxyyzz.a(stm32f2xx_exti.o)
 .debug_abbrev  0x00005097      0x192 /home/huyong/Public/github/switft/build//libxxyyzz.a(stm32f2xx_fsmc.o)
 .debug_abbrev  0x00005229      0x1f5 /home/huyong/Public/github/switft/build//libxxyyzz.a(stm32f2xx_gpio.o)
 .debug_abbrev  0x0000541e      0x299 /home/huyong/Public/github/switft/build//libxxyyzz.a(stm32f2xx_rcc.o)
 .debug_abbrev  0x000056b7      0x1d9 /home/huyong/Public/github/switft/build//libxxyyzz.a(stm32f2xx_usart.o)
 .debug_abbrev  0x00005890      0x467 /home/huyong/Public/github/switft/build//libxxyyzz.a(tcp.o)
 .debug_abbrev  0x00005cf7      0x3a5 /home/huyong/Public/github/switft/build//libxxyyzz.a(tcp_out.o)
 .debug_abbrev  0x0000609c      0x2b8 /home/huyong/Public/github/switft/build//libxxyyzz.a(tcpip.o)
 .debug_abbrev  0x00006354      0x22b /home/huyong/Public/github/switft/build//libxxyyzz.a(timers.o)
 .debug_abbrev  0x0000657f      0x252 /home/huyong/Public/github/switft/build//libxxyyzz.a(udpecho.o)
 .debug_abbrev  0x000067d1      0x396 /home/huyong/Public/github/switft/build//libxxyyzz.a(api_lib.o)
 .debug_abbrev  0x00006b67      0x3ef /home/huyong/Public/github/switft/build//libxxyyzz.a(api_msg.o)
 .debug_abbrev  0x00006f56      0x330 /home/huyong/Public/github/switft/build//libxxyyzz.a(bsp_eth.o)
 .debug_abbrev  0x00007286      0x1f6 /home/huyong/Public/github/switft/build//libxxyyzz.a(bsp_gpio.o)
 .debug_abbrev  0x0000747c      0x200 /home/huyong/Public/github/switft/build//libxxyyzz.a(bsp_os.o)
 .debug_abbrev  0x0000767c      0x1fa /home/huyong/Public/github/switft/build//libxxyyzz.a(bsp_uart.o)
 .debug_abbrev  0x00007876      0x239 /home/huyong/Public/github/switft/build//libxxyyzz.a(cli_readline.o)
 .debug_abbrev  0x00007aaf       0xb7 /home/huyong/Public/github/switft/build//libxxyyzz.a(def.o)
 .debug_abbrev  0x00007b66      0x3b4 /home/huyong/Public/github/switft/build//libxxyyzz.a(etharp.o)
 .debug_abbrev  0x00007f1a      0x255 /home/huyong/Public/github/switft/build//libxxyyzz.a(ethernetif.o)
 .debug_abbrev  0x0000816f      0x17a /home/huyong/Public/github/switft/build//libxxyyzz.a(inet_chksum.o)
 .debug_abbrev  0x000082e9       0xa4 /home/huyong/Public/github/switft/build//libxxyyzz.a(init.o)
 .debug_abbrev  0x0000838d      0x211 /home/huyong/Public/github/switft/build//libxxyyzz.a(ip.o)
 .debug_abbrev  0x0000859e      0x1f7 /home/huyong/Public/github/switft/build//libxxyyzz.a(ip_addr.o)
 .debug_abbrev  0x00008795      0x2df /home/huyong/Public/github/switft/build//libxxyyzz.a(ip_frag.o)
 .debug_abbrev  0x00008a74      0x17a /home/huyong/Public/github/switft/build//libxxyyzz.a(lib_ascii.o)
 .debug_abbrev  0x00008bee      0x25a /home/huyong/Public/github/switft/build//libxxyyzz.a(mem.o)
 .debug_abbrev  0x00008e48      0x197 /home/huyong/Public/github/switft/build//libxxyyzz.a(memp.o)
 .debug_abbrev  0x00008fdf      0x16a /home/huyong/Public/github/switft/build//libxxyyzz.a(netbuf.o)
 .debug_abbrev  0x00009149      0x2ce /home/huyong/Public/github/switft/build//libxxyyzz.a(pbuf.o)
 .debug_abbrev  0x00009417      0x249 /home/huyong/Public/github/switft/build//libxxyyzz.a(raw.o)
 .debug_abbrev  0x00009660      0x3bf /home/huyong/Public/github/switft/build//libxxyyzz.a(sockets.o)
 .debug_abbrev  0x00009a1f      0x337 /home/huyong/Public/github/switft/build//libxxyyzz.a(stm32f2x7_eth.o)
 .debug_abbrev  0x00009d56      0x164 /home/huyong/Public/github/switft/build//libxxyyzz.a(stm32f2xx_syscfg.o)
 .debug_abbrev  0x00009eba      0x30a /home/huyong/Public/github/switft/build//libxxyyzz.a(sys_arch.o)
 .debug_abbrev  0x0000a1c4      0x354 /home/huyong/Public/github/switft/build//libxxyyzz.a(tcp_in.o)
 .debug_abbrev  0x0000a518      0x2f1 /home/huyong/Public/github/switft/build//libxxyyzz.a(udp.o)
 .debug_abbrev  0x0000a809      0x17c /home/huyong/Public/github/switft/build//libxxyyzz.a(app_tool.o)
 .debug_abbrev  0x0000a985      0x26b /home/huyong/Public/github/switft/build//libxxyyzz.a(icmp.o)

.debug_loc      0x00000000    0x255ec
 .debug_loc     0x00000000      0x151 /home/huyong/Public/github/switft/build/system_stm32f2xx.o
 .debug_loc     0x00000151       0x84 /home/huyong/Public/github/switft/build/main.o
 .debug_loc     0x000001d5       0x72 /home/huyong/Public/github/switft/build//libxxyyzz.a(bsp.o)
 .debug_loc     0x00000247       0x8e /home/huyong/Public/github/switft/build//libxxyyzz.a(bsp_delay.o)
 .debug_loc     0x000002d5      0x25d /home/huyong/Public/github/switft/build//libxxyyzz.a(bsp_int.o)
 .debug_loc     0x00000532       0x42 /home/huyong/Public/github/switft/build//libxxyyzz.a(cli.o)
 .debug_loc     0x00000574      0x79e /home/huyong/Public/github/switft/build//libxxyyzz.a(cli_simple.o)
 .debug_loc     0x00000d12       0xdc /home/huyong/Public/github/switft/build//libxxyyzz.a(cmd_d.o)
 .debug_loc     0x00000dee       0xb4 /home/huyong/Public/github/switft/build//libxxyyzz.a(cmd_help.o)
 .debug_loc     0x00000ea2      0x11c /home/huyong/Public/github/switft/build//libxxyyzz.a(cmd_m.o)
 .debug_loc     0x00000fbe       0x84 /home/huyong/Public/github/switft/build//libxxyyzz.a(cmd_reset.o)
 .debug_loc     0x00001042       0x84 /home/huyong/Public/github/switft/build//libxxyyzz.a(cmd_ver.o)
 .debug_loc     0x000010c6      0x89e /home/huyong/Public/github/switft/build//libxxyyzz.a(command.o)
 .debug_loc     0x00001964       0xf5 /home/huyong/Public/github/switft/build//libxxyyzz.a(console.o)
 .debug_loc     0x00001a59      0xccb /home/huyong/Public/github/switft/build//libxxyyzz.a(cpu_c.o)
 .debug_loc     0x00002724      0x612 /home/huyong/Public/github/switft/build//libxxyyzz.a(cpu_core.o)
 .debug_loc     0x00002d36      0x17b /home/huyong/Public/github/switft/build//libxxyyzz.a(hw_beacon.o)
 .debug_loc     0x00002eb1     0x2fe4 /home/huyong/Public/github/switft/build//libxxyyzz.a(lib_mem.o)
 .debug_loc     0x00005e95     0x23e3 /home/huyong/Public/github/switft/build//libxxyyzz.a(lib_str.o)
 .debug_loc     0x00008278      0x5bb /home/huyong/Public/github/switft/build//libxxyyzz.a(netif.o)
 .debug_loc     0x00008833     0x1457 /home/huyong/Public/github/switft/build//libxxyyzz.a(os_core.o)
 .debug_loc     0x00009c8a      0x284 /home/huyong/Public/github/switft/build//libxxyyzz.a(os_cpu_c.o)
 .debug_loc     0x00009f0e      0xcd6 /home/huyong/Public/github/switft/build//libxxyyzz.a(os_flag.o)
 .debug_loc     0x0000abe4      0x3d4 /home/huyong/Public/github/switft/build//libxxyyzz.a(os_mem.o)
 .debug_loc     0x0000afb8      0x346 /home/huyong/Public/github/switft/build//libxxyyzz.a(os_msg.o)
 .debug_loc     0x0000b2fe      0x5ee /home/huyong/Public/github/switft/build//libxxyyzz.a(os_mutex.o)
 .debug_loc     0x0000b8ec      0x206 /home/huyong/Public/github/switft/build//libxxyyzz.a(os_prio.o)
 .debug_loc     0x0000baf2      0xf99 /home/huyong/Public/github/switft/build//libxxyyzz.a(os_q.o)
 .debug_loc     0x0000ca8b      0xde1 /home/huyong/Public/github/switft/build//libxxyyzz.a(os_sem.o)
 .debug_loc     0x0000d86c      0x3a7 /home/huyong/Public/github/switft/build//libxxyyzz.a(os_stat.o)
 .debug_loc     0x0000dc13     0x1f82 /home/huyong/Public/github/switft/build//libxxyyzz.a(os_task.o)
 .debug_loc     0x0000fb95      0x394 /home/huyong/Public/github/switft/build//libxxyyzz.a(os_tick.o)
 .debug_loc     0x0000ff29      0x55b /home/huyong/Public/github/switft/build//libxxyyzz.a(os_time.o)
 .debug_loc     0x00010484      0x959 /home/huyong/Public/github/switft/build//libxxyyzz.a(os_tmr.o)
 .debug_loc     0x00010ddd      0x1dc /home/huyong/Public/github/switft/build//libxxyyzz.a(stm32f2xx_exti.o)
 .debug_loc     0x00010fb9      0x48a /home/huyong/Public/github/switft/build//libxxyyzz.a(stm32f2xx_fsmc.o)
 .debug_loc     0x00011443      0x3a0 /home/huyong/Public/github/switft/build//libxxyyzz.a(stm32f2xx_gpio.o)
 .debug_loc     0x000117e3      0xb05 /home/huyong/Public/github/switft/build//libxxyyzz.a(stm32f2xx_rcc.o)
 .debug_loc     0x000122e8      0x913 /home/huyong/Public/github/switft/build//libxxyyzz.a(stm32f2xx_usart.o)
 .debug_loc     0x00012bfb     0x16dc /home/huyong/Public/github/switft/build//libxxyyzz.a(tcp.o)
 .debug_loc     0x000142d7     0x1896 /home/huyong/Public/github/switft/build//libxxyyzz.a(tcp_out.o)
 .debug_loc     0x00015b6d      0x46b /home/huyong/Public/github/switft/build//libxxyyzz.a(tcpip.o)
 .debug_loc     0x00015fd8      0x2b7 /home/huyong/Public/github/switft/build//libxxyyzz.a(timers.o)
 .debug_loc     0x0001628f       0x8d /home/huyong/Public/github/switft/build//libxxyyzz.a(udpecho.o)
 .debug_loc     0x0001631c      0xf59 /home/huyong/Public/github/switft/build//libxxyyzz.a(api_lib.o)
 .debug_loc     0x00017275     0x1750 /home/huyong/Public/github/switft/build//libxxyyzz.a(api_msg.o)
 .debug_loc     0x000189c5      0x1dd /home/huyong/Public/github/switft/build//libxxyyzz.a(bsp_eth.o)
 .debug_loc     0x00018ba2      0x2e0 /home/huyong/Public/github/switft/build//libxxyyzz.a(bsp_gpio.o)
 .debug_loc     0x00018e82      0x48c /home/huyong/Public/github/switft/build//libxxyyzz.a(bsp_os.o)
 .debug_loc     0x0001930e      0x295 /home/huyong/Public/github/switft/build//libxxyyzz.a(bsp_uart.o)
 .debug_loc     0x000195a3      0x45c /home/huyong/Public/github/switft/build//libxxyyzz.a(cli_readline.o)
 .debug_loc     0x000199ff       0x42 /home/huyong/Public/github/switft/build//libxxyyzz.a(def.o)
 .debug_loc     0x00019a41     0x133a /home/huyong/Public/github/switft/build//libxxyyzz.a(etharp.o)
 .debug_loc     0x0001ad7b      0x23c /home/huyong/Public/github/switft/build//libxxyyzz.a(ethernetif.o)
 .debug_loc     0x0001afb7      0x7c6 /home/huyong/Public/github/switft/build//libxxyyzz.a(inet_chksum.o)
 .debug_loc     0x0001b77d      0x43f /home/huyong/Public/github/switft/build//libxxyyzz.a(ip.o)
 .debug_loc     0x0001bbbc      0x535 /home/huyong/Public/github/switft/build//libxxyyzz.a(ip_addr.o)
 .debug_loc     0x0001c0f1      0xbff /home/huyong/Public/github/switft/build//libxxyyzz.a(ip_frag.o)
 .debug_loc     0x0001ccf0      0x410 /home/huyong/Public/github/switft/build//libxxyyzz.a(lib_ascii.o)
 .debug_loc     0x0001d100      0x50a /home/huyong/Public/github/switft/build//libxxyyzz.a(mem.o)
 .debug_loc     0x0001d60a      0x1bb /home/huyong/Public/github/switft/build//libxxyyzz.a(memp.o)
 .debug_loc     0x0001d7c5      0x3fd /home/huyong/Public/github/switft/build//libxxyyzz.a(netbuf.o)
 .debug_loc     0x0001dbc2     0x1472 /home/huyong/Public/github/switft/build//libxxyyzz.a(pbuf.o)
 .debug_loc     0x0001f034      0x3cf /home/huyong/Public/github/switft/build//libxxyyzz.a(raw.o)
 .debug_loc     0x0001f403     0x3544 /home/huyong/Public/github/switft/build//libxxyyzz.a(sockets.o)
 .debug_loc     0x00022947      0xe96 /home/huyong/Public/github/switft/build//libxxyyzz.a(stm32f2x7_eth.o)
 .debug_loc     0x000237dd       0xa6 /home/huyong/Public/github/switft/build//libxxyyzz.a(stm32f2xx_syscfg.o)
 .debug_loc     0x00023883      0x665 /home/huyong/Public/github/switft/build//libxxyyzz.a(sys_arch.o)
 .debug_loc     0x00023ee8      0x7f6 /home/huyong/Public/github/switft/build//libxxyyzz.a(tcp_in.o)
 .debug_loc     0x000246de      0x7f2 /home/huyong/Public/github/switft/build//libxxyyzz.a(udp.o)
 .debug_loc     0x00024ed0      0x476 /home/huyong/Public/github/switft/build//libxxyyzz.a(app_tool.o)
 .debug_loc     0x00025346      0x2a6 /home/huyong/Public/github/switft/build//libxxyyzz.a(icmp.o)

.debug_aranges  0x00000000      0x9e0
 .debug_aranges
                0x00000000       0x20 /home/huyong/Public/github/switft/build/system_stm32f2xx.o
 .debug_aranges
                0x00000020       0x28 /home/huyong/Public/github/switft/build/main.o
 .debug_aranges
                0x00000048       0x20 /home/huyong/Public/github/switft/build//libxxyyzz.a(app_shell.o)
 .debug_aranges
                0x00000068       0x20 /home/huyong/Public/github/switft/build//libxxyyzz.a(bsp.o)
 .debug_aranges
                0x00000088       0x20 /home/huyong/Public/github/switft/build//libxxyyzz.a(bsp_delay.o)
 .debug_aranges
                0x000000a8       0x20 /home/huyong/Public/github/switft/build//libxxyyzz.a(bsp_int.o)
 .debug_aranges
                0x000000c8       0x20 /home/huyong/Public/github/switft/build//libxxyyzz.a(cli.o)
 .debug_aranges
                0x000000e8       0x20 /home/huyong/Public/github/switft/build//libxxyyzz.a(cli_simple.o)
 .debug_aranges
                0x00000108       0x20 /home/huyong/Public/github/switft/build//libxxyyzz.a(cmd_d.o)
 .debug_aranges
                0x00000128       0x20 /home/huyong/Public/github/switft/build//libxxyyzz.a(cmd_help.o)
 .debug_aranges
                0x00000148       0x20 /home/huyong/Public/github/switft/build//libxxyyzz.a(cmd_m.o)
 .debug_aranges
                0x00000168       0x20 /home/huyong/Public/github/switft/build//libxxyyzz.a(cmd_reset.o)
 .debug_aranges
                0x00000188       0x20 /home/huyong/Public/github/switft/build//libxxyyzz.a(cmd_ver.o)
 .debug_aranges
                0x000001a8       0x20 /home/huyong/Public/github/switft/build//libxxyyzz.a(command.o)
 .debug_aranges
                0x000001c8       0x20 /home/huyong/Public/github/switft/build//libxxyyzz.a(console.o)
 .debug_aranges
                0x000001e8       0x20 /home/huyong/Public/github/switft/build//libxxyyzz.a(cpu_c.o)
 .debug_aranges
                0x00000208       0x20 /home/huyong/Public/github/switft/build//libxxyyzz.a(cpu_core.o)
 .debug_aranges
                0x00000228       0x20 /home/huyong/Public/github/switft/build//libxxyyzz.a(hw_beacon.o)
 .debug_aranges
                0x00000248       0x20 /home/huyong/Public/github/switft/build//libxxyyzz.a(hw_led.o)
 .debug_aranges
                0x00000268       0x20 /home/huyong/Public/github/switft/build//libxxyyzz.a(lib_mem.o)
 .debug_aranges
                0x00000288       0x20 /home/huyong/Public/github/switft/build//libxxyyzz.a(lib_str.o)
 .debug_aranges
                0x000002a8       0x20 /home/huyong/Public/github/switft/build//libxxyyzz.a(lwip.o)
 .debug_aranges
                0x000002c8       0x20 /home/huyong/Public/github/switft/build//libxxyyzz.a(netif.o)
 .debug_aranges
                0x000002e8       0x20 /home/huyong/Public/github/switft/build//libxxyyzz.a(os_cfg_app.o)
 .debug_aranges
                0x00000308       0x20 /home/huyong/Public/github/switft/build//libxxyyzz.a(os_core.o)
 .debug_aranges
                0x00000328       0x20 /home/huyong/Public/github/switft/build//libxxyyzz.a(os_cpu_c.o)
 .debug_aranges
                0x00000348       0x20 /home/huyong/Public/github/switft/build//libxxyyzz.a(os_dbg.o)
 .debug_aranges
                0x00000368       0x20 /home/huyong/Public/github/switft/build//libxxyyzz.a(os_flag.o)
 .debug_aranges
                0x00000388       0x20 /home/huyong/Public/github/switft/build//libxxyyzz.a(os_mem.o)
 .debug_aranges
                0x000003a8       0x20 /home/huyong/Public/github/switft/build//libxxyyzz.a(os_msg.o)
 .debug_aranges
                0x000003c8       0x20 /home/huyong/Public/github/switft/build//libxxyyzz.a(os_mutex.o)
 .debug_aranges
                0x000003e8       0x20 /home/huyong/Public/github/switft/build//libxxyyzz.a(os_prio.o)
 .debug_aranges
                0x00000408       0x20 /home/huyong/Public/github/switft/build//libxxyyzz.a(os_q.o)
 .debug_aranges
                0x00000428       0x20 /home/huyong/Public/github/switft/build//libxxyyzz.a(os_sem.o)
 .debug_aranges
                0x00000448       0x20 /home/huyong/Public/github/switft/build//libxxyyzz.a(os_stat.o)
 .debug_aranges
                0x00000468       0x20 /home/huyong/Public/github/switft/build//libxxyyzz.a(os_task.o)
 .debug_aranges
                0x00000488       0x20 /home/huyong/Public/github/switft/build//libxxyyzz.a(os_tick.o)
 .debug_aranges
                0x000004a8       0x20 /home/huyong/Public/github/switft/build//libxxyyzz.a(os_time.o)
 .debug_aranges
                0x000004c8       0x20 /home/huyong/Public/github/switft/build//libxxyyzz.a(os_tmr.o)
 .debug_aranges
                0x000004e8       0x18 /home/huyong/Public/github/switft/build//libxxyyzz.a(os_var.o)
 .debug_aranges
                0x00000500       0x20 /home/huyong/Public/github/switft/build//libxxyyzz.a(stm32f2xx_exti.o)
 .debug_aranges
                0x00000520       0x20 /home/huyong/Public/github/switft/build//libxxyyzz.a(stm32f2xx_fsmc.o)
 .debug_aranges
                0x00000540       0x20 /home/huyong/Public/github/switft/build//libxxyyzz.a(stm32f2xx_gpio.o)
 .debug_aranges
                0x00000560       0x20 /home/huyong/Public/github/switft/build//libxxyyzz.a(stm32f2xx_rcc.o)
 .debug_aranges
                0x00000580       0x20 /home/huyong/Public/github/switft/build//libxxyyzz.a(stm32f2xx_usart.o)
 .debug_aranges
                0x000005a0       0x20 /home/huyong/Public/github/switft/build//libxxyyzz.a(tcp.o)
 .debug_aranges
                0x000005c0       0x20 /home/huyong/Public/github/switft/build//libxxyyzz.a(tcp_out.o)
 .debug_aranges
                0x000005e0       0x20 /home/huyong/Public/github/switft/build//libxxyyzz.a(tcpip.o)
 .debug_aranges
                0x00000600       0x20 /home/huyong/Public/github/switft/build//libxxyyzz.a(timers.o)
 .debug_aranges
                0x00000620       0x20 /home/huyong/Public/github/switft/build//libxxyyzz.a(udpecho.o)
 .debug_aranges
                0x00000640       0x20 /home/huyong/Public/github/switft/build//libxxyyzz.a(api_lib.o)
 .debug_aranges
                0x00000660       0x20 /home/huyong/Public/github/switft/build//libxxyyzz.a(api_msg.o)
 .debug_aranges
                0x00000680       0x20 /home/huyong/Public/github/switft/build//libxxyyzz.a(bsp_eth.o)
 .debug_aranges
                0x000006a0       0x20 /home/huyong/Public/github/switft/build//libxxyyzz.a(bsp_gpio.o)
 .debug_aranges
                0x000006c0       0x20 /home/huyong/Public/github/switft/build//libxxyyzz.a(bsp_os.o)
 .debug_aranges
                0x000006e0       0x20 /home/huyong/Public/github/switft/build//libxxyyzz.a(bsp_uart.o)
 .debug_aranges
                0x00000700       0x20 /home/huyong/Public/github/switft/build//libxxyyzz.a(cli_readline.o)
 .debug_aranges
                0x00000720       0x20 /home/huyong/Public/github/switft/build//libxxyyzz.a(def.o)
 .debug_aranges
                0x00000740       0x20 /home/huyong/Public/github/switft/build//libxxyyzz.a(etharp.o)
 .debug_aranges
                0x00000760       0x20 /home/huyong/Public/github/switft/build//libxxyyzz.a(ethernetif.o)
 .debug_aranges
                0x00000780       0x20 /home/huyong/Public/github/switft/build//libxxyyzz.a(inet_chksum.o)
 .debug_aranges
                0x000007a0       0x20 /home/huyong/Public/github/switft/build//libxxyyzz.a(init.o)
 .debug_aranges
                0x000007c0       0x20 /home/huyong/Public/github/switft/build//libxxyyzz.a(ip.o)
 .debug_aranges
                0x000007e0       0x20 /home/huyong/Public/github/switft/build//libxxyyzz.a(ip_addr.o)
 .debug_aranges
                0x00000800       0x20 /home/huyong/Public/github/switft/build//libxxyyzz.a(ip_frag.o)
 .debug_aranges
                0x00000820       0x20 /home/huyong/Public/github/switft/build//libxxyyzz.a(lib_ascii.o)
 .debug_aranges
                0x00000840       0x20 /home/huyong/Public/github/switft/build//libxxyyzz.a(mem.o)
 .debug_aranges
                0x00000860       0x20 /home/huyong/Public/github/switft/build//libxxyyzz.a(memp.o)
 .debug_aranges
                0x00000880       0x20 /home/huyong/Public/github/switft/build//libxxyyzz.a(netbuf.o)
 .debug_aranges
                0x000008a0       0x20 /home/huyong/Public/github/switft/build//libxxyyzz.a(pbuf.o)
 .debug_aranges
                0x000008c0       0x20 /home/huyong/Public/github/switft/build//libxxyyzz.a(raw.o)
 .debug_aranges
                0x000008e0       0x20 /home/huyong/Public/github/switft/build//libxxyyzz.a(sockets.o)
 .debug_aranges
                0x00000900       0x20 /home/huyong/Public/github/switft/build//libxxyyzz.a(stm32f2x7_eth.o)
 .debug_aranges
                0x00000920       0x20 /home/huyong/Public/github/switft/build//libxxyyzz.a(stm32f2xx_syscfg.o)
 .debug_aranges
                0x00000940       0x20 /home/huyong/Public/github/switft/build//libxxyyzz.a(sys_arch.o)
 .debug_aranges
                0x00000960       0x20 /home/huyong/Public/github/switft/build//libxxyyzz.a(tcp_in.o)
 .debug_aranges
                0x00000980       0x20 /home/huyong/Public/github/switft/build//libxxyyzz.a(udp.o)
 .debug_aranges
                0x000009a0       0x20 /home/huyong/Public/github/switft/build//libxxyyzz.a(app_tool.o)
 .debug_aranges
                0x000009c0       0x20 /home/huyong/Public/github/switft/build//libxxyyzz.a(icmp.o)

.debug_ranges   0x00000000     0x12a0
 .debug_ranges  0x00000000       0x18 /home/huyong/Public/github/switft/build/system_stm32f2xx.o
 .debug_ranges  0x00000018       0x30 /home/huyong/Public/github/switft/build/main.o
 .debug_ranges  0x00000048       0x30 /home/huyong/Public/github/switft/build//libxxyyzz.a(bsp.o)
 .debug_ranges  0x00000078       0x30 /home/huyong/Public/github/switft/build//libxxyyzz.a(bsp_int.o)
 .debug_ranges  0x000000a8       0x38 /home/huyong/Public/github/switft/build//libxxyyzz.a(cli_simple.o)
 .debug_ranges  0x000000e0       0xc0 /home/huyong/Public/github/switft/build//libxxyyzz.a(command.o)
 .debug_ranges  0x000001a0       0x18 /home/huyong/Public/github/switft/build//libxxyyzz.a(console.o)
 .debug_ranges  0x000001b8       0x18 /home/huyong/Public/github/switft/build//libxxyyzz.a(cpu_core.o)
 .debug_ranges  0x000001d0       0x18 /home/huyong/Public/github/switft/build//libxxyyzz.a(hw_beacon.o)
 .debug_ranges  0x000001e8       0x88 /home/huyong/Public/github/switft/build//libxxyyzz.a(lib_mem.o)
 .debug_ranges  0x00000270       0x78 /home/huyong/Public/github/switft/build//libxxyyzz.a(lib_str.o)
 .debug_ranges  0x000002e8       0x40 /home/huyong/Public/github/switft/build//libxxyyzz.a(netif.o)
 .debug_ranges  0x00000328      0x148 /home/huyong/Public/github/switft/build//libxxyyzz.a(os_core.o)
 .debug_ranges  0x00000470       0x18 /home/huyong/Public/github/switft/build//libxxyyzz.a(os_flag.o)
 .debug_ranges  0x00000488       0x28 /home/huyong/Public/github/switft/build//libxxyyzz.a(os_mem.o)
 .debug_ranges  0x000004b0       0x18 /home/huyong/Public/github/switft/build//libxxyyzz.a(os_mutex.o)
 .debug_ranges  0x000004c8       0x48 /home/huyong/Public/github/switft/build//libxxyyzz.a(os_q.o)
 .debug_ranges  0x00000510       0x90 /home/huyong/Public/github/switft/build//libxxyyzz.a(os_sem.o)
 .debug_ranges  0x000005a0       0x30 /home/huyong/Public/github/switft/build//libxxyyzz.a(os_task.o)
 .debug_ranges  0x000005d0       0x20 /home/huyong/Public/github/switft/build//libxxyyzz.a(os_tick.o)
 .debug_ranges  0x000005f0       0x28 /home/huyong/Public/github/switft/build//libxxyyzz.a(os_tmr.o)
 .debug_ranges  0x00000618       0x20 /home/huyong/Public/github/switft/build//libxxyyzz.a(stm32f2xx_rcc.o)
 .debug_ranges  0x00000638      0x188 /home/huyong/Public/github/switft/build//libxxyyzz.a(tcp.o)
 .debug_ranges  0x000007c0      0x170 /home/huyong/Public/github/switft/build//libxxyyzz.a(tcp_out.o)
 .debug_ranges  0x00000930       0x38 /home/huyong/Public/github/switft/build//libxxyyzz.a(api_lib.o)
 .debug_ranges  0x00000968       0x50 /home/huyong/Public/github/switft/build//libxxyyzz.a(api_msg.o)
 .debug_ranges  0x000009b8       0x18 /home/huyong/Public/github/switft/build//libxxyyzz.a(bsp_eth.o)
 .debug_ranges  0x000009d0       0x38 /home/huyong/Public/github/switft/build//libxxyyzz.a(bsp_gpio.o)
 .debug_ranges  0x00000a08       0xe8 /home/huyong/Public/github/switft/build//libxxyyzz.a(cli_readline.o)
 .debug_ranges  0x00000af0      0x188 /home/huyong/Public/github/switft/build//libxxyyzz.a(etharp.o)
 .debug_ranges  0x00000c78       0x20 /home/huyong/Public/github/switft/build//libxxyyzz.a(ethernetif.o)
 .debug_ranges  0x00000c98       0x48 /home/huyong/Public/github/switft/build//libxxyyzz.a(ip.o)
 .debug_ranges  0x00000ce0       0x58 /home/huyong/Public/github/switft/build//libxxyyzz.a(ip_frag.o)
 .debug_ranges  0x00000d38       0x30 /home/huyong/Public/github/switft/build//libxxyyzz.a(lib_ascii.o)
 .debug_ranges  0x00000d68       0x48 /home/huyong/Public/github/switft/build//libxxyyzz.a(mem.o)
 .debug_ranges  0x00000db0       0xd8 /home/huyong/Public/github/switft/build//libxxyyzz.a(pbuf.o)
 .debug_ranges  0x00000e88      0x288 /home/huyong/Public/github/switft/build//libxxyyzz.a(sockets.o)
 .debug_ranges  0x00001110       0x78 /home/huyong/Public/github/switft/build//libxxyyzz.a(stm32f2x7_eth.o)
 .debug_ranges  0x00001188       0x30 /home/huyong/Public/github/switft/build//libxxyyzz.a(sys_arch.o)
 .debug_ranges  0x000011b8       0xa8 /home/huyong/Public/github/switft/build//libxxyyzz.a(tcp_in.o)
 .debug_ranges  0x00001260       0x18 /home/huyong/Public/github/switft/build//libxxyyzz.a(udp.o)
 .debug_ranges  0x00001278       0x10 /home/huyong/Public/github/switft/build//libxxyyzz.a(app_tool.o)
 .debug_ranges  0x00001288       0x18 /home/huyong/Public/github/switft/build//libxxyyzz.a(icmp.o)

.debug_line     0x00000000     0xfbbc
 .debug_line    0x00000000      0x192 /home/huyong/Public/github/switft/build/system_stm32f2xx.o
 .debug_line    0x00000192      0x39d /home/huyong/Public/github/switft/build/main.o
 .debug_line    0x0000052f      0x18e /home/huyong/Public/github/switft/build//libxxyyzz.a(app_shell.o)
 .debug_line    0x000006bd      0x4c9 /home/huyong/Public/github/switft/build//libxxyyzz.a(bsp.o)
 .debug_line    0x00000b86       0xf0 /home/huyong/Public/github/switft/build//libxxyyzz.a(bsp_delay.o)
 .debug_line    0x00000c76      0x30f /home/huyong/Public/github/switft/build//libxxyyzz.a(bsp_int.o)
 .debug_line    0x00000f85       0x4c /home/huyong/Public/github/switft/build//libxxyyzz.a(cli.o)
 .debug_line    0x00000fd1      0x1bd /home/huyong/Public/github/switft/build//libxxyyzz.a(cli_simple.o)
 .debug_line    0x0000118e       0xd2 /home/huyong/Public/github/switft/build//libxxyyzz.a(cmd_d.o)
 .debug_line    0x00001260       0x8b /home/huyong/Public/github/switft/build//libxxyyzz.a(cmd_help.o)
 .debug_line    0x000012eb       0xd5 /home/huyong/Public/github/switft/build//libxxyyzz.a(cmd_m.o)
 .debug_line    0x000013c0      0x1d5 /home/huyong/Public/github/switft/build//libxxyyzz.a(cmd_reset.o)
 .debug_line    0x00001595       0x89 /home/huyong/Public/github/switft/build//libxxyyzz.a(cmd_ver.o)
 .debug_line    0x0000161e      0x15c /home/huyong/Public/github/switft/build//libxxyyzz.a(command.o)
 .debug_line    0x0000177a      0x1a4 /home/huyong/Public/github/switft/build//libxxyyzz.a(console.o)
 .debug_line    0x0000191e      0x1d6 /home/huyong/Public/github/switft/build//libxxyyzz.a(cpu_c.o)
 .debug_line    0x00001af4      0x1db /home/huyong/Public/github/switft/build//libxxyyzz.a(cpu_core.o)
 .debug_line    0x00001ccf      0x432 /home/huyong/Public/github/switft/build//libxxyyzz.a(hw_beacon.o)
 .debug_line    0x00002101      0x1cd /home/huyong/Public/github/switft/build//libxxyyzz.a(hw_led.o)
 .debug_line    0x000022ce      0x66c /home/huyong/Public/github/switft/build//libxxyyzz.a(lib_mem.o)
 .debug_line    0x0000293a      0x459 /home/huyong/Public/github/switft/build//libxxyyzz.a(lib_str.o)
 .debug_line    0x00002d93      0x3c8 /home/huyong/Public/github/switft/build//libxxyyzz.a(lwip.o)
 .debug_line    0x0000315b      0x344 /home/huyong/Public/github/switft/build//libxxyyzz.a(netif.o)
 .debug_line    0x0000349f      0x11e /home/huyong/Public/github/switft/build//libxxyyzz.a(os_cfg_app.o)
 .debug_line    0x000035bd      0x6d9 /home/huyong/Public/github/switft/build//libxxyyzz.a(os_core.o)
 .debug_line    0x00003c96      0x237 /home/huyong/Public/github/switft/build//libxxyyzz.a(os_cpu_c.o)
 .debug_line    0x00003ecd      0x11a /home/huyong/Public/github/switft/build//libxxyyzz.a(os_dbg.o)
 .debug_line    0x00003fe7      0x322 /home/huyong/Public/github/switft/build//libxxyyzz.a(os_flag.o)
 .debug_line    0x00004309      0x19c /home/huyong/Public/github/switft/build//libxxyyzz.a(os_mem.o)
 .debug_line    0x000044a5      0x1ff /home/huyong/Public/github/switft/build//libxxyyzz.a(os_msg.o)
 .debug_line    0x000046a4      0x281 /home/huyong/Public/github/switft/build//libxxyyzz.a(os_mutex.o)
 .debug_line    0x00004925      0x131 /home/huyong/Public/github/switft/build//libxxyyzz.a(os_prio.o)
 .debug_line    0x00004a56      0x343 /home/huyong/Public/github/switft/build//libxxyyzz.a(os_q.o)
 .debug_line    0x00004d99      0x3a3 /home/huyong/Public/github/switft/build//libxxyyzz.a(os_sem.o)
 .debug_line    0x0000513c      0x25b /home/huyong/Public/github/switft/build//libxxyyzz.a(os_stat.o)
 .debug_line    0x00005397      0x66e /home/huyong/Public/github/switft/build//libxxyyzz.a(os_task.o)
 .debug_line    0x00005a05      0x28e /home/huyong/Public/github/switft/build//libxxyyzz.a(os_tick.o)
 .debug_line    0x00005c93      0x1ca /home/huyong/Public/github/switft/build//libxxyyzz.a(os_time.o)
 .debug_line    0x00005e5d      0x39a /home/huyong/Public/github/switft/build//libxxyyzz.a(os_tmr.o)
 .debug_line    0x000061f7       0xee /home/huyong/Public/github/switft/build//libxxyyzz.a(os_var.o)
 .debug_line    0x000062e5      0x189 /home/huyong/Public/github/switft/build//libxxyyzz.a(stm32f2xx_exti.o)
 .debug_line    0x0000646e      0x2b8 /home/huyong/Public/github/switft/build//libxxyyzz.a(stm32f2xx_fsmc.o)
 .debug_line    0x00006726      0x218 /home/huyong/Public/github/switft/build//libxxyyzz.a(stm32f2xx_gpio.o)
 .debug_line    0x0000693e      0x2bd /home/huyong/Public/github/switft/build//libxxyyzz.a(stm32f2xx_rcc.o)
 .debug_line    0x00006bfb      0x2df /home/huyong/Public/github/switft/build//libxxyyzz.a(stm32f2xx_usart.o)
 .debug_line    0x00006eda      0x885 /home/huyong/Public/github/switft/build//libxxyyzz.a(tcp.o)
 .debug_line    0x0000775f      0x6ec /home/huyong/Public/github/switft/build//libxxyyzz.a(tcp_out.o)
 .debug_line    0x00007e4b      0x456 /home/huyong/Public/github/switft/build//libxxyyzz.a(tcpip.o)
 .debug_line    0x000082a1      0x3d8 /home/huyong/Public/github/switft/build//libxxyyzz.a(timers.o)
 .debug_line    0x00008679      0x3d0 /home/huyong/Public/github/switft/build//libxxyyzz.a(udpecho.o)
 .debug_line    0x00008a49      0x5b2 /home/huyong/Public/github/switft/build//libxxyyzz.a(api_lib.o)
 .debug_line    0x00008ffb      0x98f /home/huyong/Public/github/switft/build//libxxyyzz.a(api_msg.o)
 .debug_line    0x0000998a      0x3ee /home/huyong/Public/github/switft/build//libxxyyzz.a(bsp_eth.o)
 .debug_line    0x00009d78      0x261 /home/huyong/Public/github/switft/build//libxxyyzz.a(bsp_gpio.o)
 .debug_line    0x00009fd9      0x2af /home/huyong/Public/github/switft/build//libxxyyzz.a(bsp_os.o)
 .debug_line    0x0000a288      0x2df /home/huyong/Public/github/switft/build//libxxyyzz.a(bsp_uart.o)
 .debug_line    0x0000a567       0xf6 /home/huyong/Public/github/switft/build//libxxyyzz.a(cli_readline.o)
 .debug_line    0x0000a65d      0x13c /home/huyong/Public/github/switft/build//libxxyyzz.a(def.o)
 .debug_line    0x0000a799      0x5cd /home/huyong/Public/github/switft/build//libxxyyzz.a(etharp.o)
 .debug_line    0x0000ad66      0x3ef /home/huyong/Public/github/switft/build//libxxyyzz.a(ethernetif.o)
 .debug_line    0x0000b155      0x27f /home/huyong/Public/github/switft/build//libxxyyzz.a(inet_chksum.o)
 .debug_line    0x0000b3d4      0x18c /home/huyong/Public/github/switft/build//libxxyyzz.a(init.o)
 .debug_line    0x0000b560      0x335 /home/huyong/Public/github/switft/build//libxxyyzz.a(ip.o)
 .debug_line    0x0000b895      0x2dc /home/huyong/Public/github/switft/build//libxxyyzz.a(ip_addr.o)
 .debug_line    0x0000bb71      0x4a2 /home/huyong/Public/github/switft/build//libxxyyzz.a(ip_frag.o)
 .debug_line    0x0000c013      0x102 /home/huyong/Public/github/switft/build//libxxyyzz.a(lib_ascii.o)
 .debug_line    0x0000c115      0x401 /home/huyong/Public/github/switft/build//libxxyyzz.a(mem.o)
 .debug_line    0x0000c516      0x24a /home/huyong/Public/github/switft/build//libxxyyzz.a(memp.o)
 .debug_line    0x0000c760      0x27b /home/huyong/Public/github/switft/build//libxxyyzz.a(netbuf.o)
 .debug_line    0x0000c9db      0x630 /home/huyong/Public/github/switft/build//libxxyyzz.a(pbuf.o)
 .debug_line    0x0000d00b      0x2ca /home/huyong/Public/github/switft/build//libxxyyzz.a(raw.o)
 .debug_line    0x0000d2d5      0xcb6 /home/huyong/Public/github/switft/build//libxxyyzz.a(sockets.o)
 .debug_line    0x0000df8b      0x6d0 /home/huyong/Public/github/switft/build//libxxyyzz.a(stm32f2x7_eth.o)
 .debug_line    0x0000e65b      0x158 /home/huyong/Public/github/switft/build//libxxyyzz.a(stm32f2xx_syscfg.o)
 .debug_line    0x0000e7b3      0x3ba /home/huyong/Public/github/switft/build//libxxyyzz.a(sys_arch.o)
 .debug_line    0x0000eb6d      0x6b8 /home/huyong/Public/github/switft/build//libxxyyzz.a(tcp_in.o)
 .debug_line    0x0000f225      0x460 /home/huyong/Public/github/switft/build//libxxyyzz.a(udp.o)
 .debug_line    0x0000f685      0x265 /home/huyong/Public/github/switft/build//libxxyyzz.a(app_tool.o)
 .debug_line    0x0000f8ea      0x2d2 /home/huyong/Public/github/switft/build//libxxyyzz.a(icmp.o)

.debug_str      0x00000000     0xb6e1
 .debug_str     0x00000000      0x33e /home/huyong/Public/github/switft/build/system_stm32f2xx.o
                                0x3b2 (size before relaxing)
 .debug_str     0x0000033e     0x1f6b /home/huyong/Public/github/switft/build/main.o
                               0x22ec (size before relaxing)
 .debug_str     0x000022a9       0x6a /home/huyong/Public/github/switft/build//libxxyyzz.a(app_shell.o)
                                0x209 (size before relaxing)
 .debug_str     0x00002313      0x663 /home/huyong/Public/github/switft/build//libxxyyzz.a(bsp.o)
                                0x8aa (size before relaxing)
 .debug_str     0x00002976       0x3f /home/huyong/Public/github/switft/build//libxxyyzz.a(bsp_delay.o)
                                0xe39 (size before relaxing)
 .debug_str     0x000029b5      0x85d /home/huyong/Public/github/switft/build//libxxyyzz.a(bsp_int.o)
                                0xa40 (size before relaxing)
 .debug_str     0x00003212       0x7a /home/huyong/Public/github/switft/build//libxxyyzz.a(cli.o)
                                0x140 (size before relaxing)
 .debug_str     0x0000328c      0x126 /home/huyong/Public/github/switft/build//libxxyyzz.a(cli_simple.o)
                                0x2a2 (size before relaxing)
 .debug_str     0x000033b2       0x4f /home/huyong/Public/github/switft/build//libxxyyzz.a(cmd_d.o)
                                0x207 (size before relaxing)
 .debug_str     0x00003401       0x38 /home/huyong/Public/github/switft/build//libxxyyzz.a(cmd_help.o)
                                0x224 (size before relaxing)
 .debug_str     0x00003439       0x1a /home/huyong/Public/github/switft/build//libxxyyzz.a(cmd_m.o)
                                0x202 (size before relaxing)
 .debug_str     0x00003453       0x19 /home/huyong/Public/github/switft/build//libxxyyzz.a(cmd_reset.o)
                                0x239 (size before relaxing)
 .debug_str     0x0000346c       0x1b /home/huyong/Public/github/switft/build//libxxyyzz.a(cmd_ver.o)
                                0x172 (size before relaxing)
 .debug_str     0x00003487      0x15d /home/huyong/Public/github/switft/build//libxxyyzz.a(command.o)
                                0x358 (size before relaxing)
 .debug_str     0x000035e4       0xa8 /home/huyong/Public/github/switft/build//libxxyyzz.a(console.o)
                                0x27a (size before relaxing)
 .debug_str     0x0000368c       0xda /home/huyong/Public/github/switft/build//libxxyyzz.a(cpu_c.o)
                                0x28d (size before relaxing)
 .debug_str     0x00003766      0x249 /home/huyong/Public/github/switft/build//libxxyyzz.a(cpu_core.o)
                                0x451 (size before relaxing)
 .debug_str     0x000039af      0x668 /home/huyong/Public/github/switft/build//libxxyyzz.a(hw_beacon.o)
                                0xf4d (size before relaxing)
 .debug_str     0x00004017       0x6e /home/huyong/Public/github/switft/build//libxxyyzz.a(hw_led.o)
                                0x300 (size before relaxing)
 .debug_str     0x00004085      0x7e8 /home/huyong/Public/github/switft/build//libxxyyzz.a(lib_mem.o)
                                0xa28 (size before relaxing)
 .debug_str     0x0000486d      0x4ab /home/huyong/Public/github/switft/build//libxxyyzz.a(lib_str.o)
                                0x6ab (size before relaxing)
 .debug_str     0x00004d18      0x168 /home/huyong/Public/github/switft/build//libxxyyzz.a(lwip.o)
                                0xf9d (size before relaxing)
 .debug_str     0x00004e80      0x393 /home/huyong/Public/github/switft/build//libxxyyzz.a(netif.o)
                                0x6c7 (size before relaxing)
 .debug_str     0x00005213      0x472 /home/huyong/Public/github/switft/build//libxxyyzz.a(os_cfg_app.o)
                                0xa4b (size before relaxing)
 .debug_str     0x00005685      0x65c /home/huyong/Public/github/switft/build//libxxyyzz.a(os_core.o)
                               0x19b1 (size before relaxing)
 .debug_str     0x00005ce1       0xfa /home/huyong/Public/github/switft/build//libxxyyzz.a(os_cpu_c.o)
                                0x864 (size before relaxing)
 .debug_str     0x00005ddb      0x77d /home/huyong/Public/github/switft/build//libxxyyzz.a(os_dbg.o)
                                0xfe8 (size before relaxing)
 .debug_str     0x00006558       0xea /home/huyong/Public/github/switft/build//libxxyyzz.a(os_flag.o)
                               0x1438 (size before relaxing)
 .debug_str     0x00006642       0x72 /home/huyong/Public/github/switft/build//libxxyyzz.a(os_mem.o)
                                0xf6c (size before relaxing)
 .debug_str     0x000066b4       0x74 /home/huyong/Public/github/switft/build//libxxyyzz.a(os_msg.o)
                                0xf74 (size before relaxing)
 .debug_str     0x00006728       0x98 /home/huyong/Public/github/switft/build//libxxyyzz.a(os_mutex.o)
                               0x1430 (size before relaxing)
 .debug_str     0x000067c0       0x20 /home/huyong/Public/github/switft/build//libxxyyzz.a(os_prio.o)
                                0x1fe (size before relaxing)
 .debug_str     0x000067e0       0xb6 /home/huyong/Public/github/switft/build//libxxyyzz.a(os_q.o)
                               0x1427 (size before relaxing)
 .debug_str     0x00006896       0xa5 /home/huyong/Public/github/switft/build//libxxyyzz.a(os_sem.o)
                               0x13e9 (size before relaxing)
 .debug_str     0x0000693b       0xf8 /home/huyong/Public/github/switft/build//libxxyyzz.a(os_stat.o)
                               0x1574 (size before relaxing)
 .debug_str     0x00006a33      0x187 /home/huyong/Public/github/switft/build//libxxyyzz.a(os_task.o)
                               0x16b3 (size before relaxing)
 .debug_str     0x00006bba       0x7d /home/huyong/Public/github/switft/build//libxxyyzz.a(os_tick.o)
                               0x144c (size before relaxing)
 .debug_str     0x00006c37       0x78 /home/huyong/Public/github/switft/build//libxxyyzz.a(os_time.o)
                               0x13fb (size before relaxing)
 .debug_str     0x00006caf      0x11b /home/huyong/Public/github/switft/build//libxxyyzz.a(os_tmr.o)
                               0x1592 (size before relaxing)
 .debug_str     0x00006dca       0x19 /home/huyong/Public/github/switft/build//libxxyyzz.a(os_var.o)
                                0xb05 (size before relaxing)
 .debug_str     0x00006de3      0x1c7 /home/huyong/Public/github/switft/build//libxxyyzz.a(stm32f2xx_exti.o)
                                0x36f (size before relaxing)
 .debug_str     0x00006faa      0x37a /home/huyong/Public/github/switft/build//libxxyyzz.a(stm32f2xx_fsmc.o)
                                0x7a4 (size before relaxing)
 .debug_str     0x00007324      0x130 /home/huyong/Public/github/switft/build//libxxyyzz.a(stm32f2xx_gpio.o)
                                0x4ca (size before relaxing)
 .debug_str     0x00007454      0x46d /home/huyong/Public/github/switft/build//libxxyyzz.a(stm32f2xx_rcc.o)
                                0x860 (size before relaxing)
 .debug_str     0x000078c1      0x305 /home/huyong/Public/github/switft/build//libxxyyzz.a(stm32f2xx_usart.o)
                                0x6df (size before relaxing)
 .debug_str     0x00007bc6      0x502 /home/huyong/Public/github/switft/build//libxxyyzz.a(tcp.o)
                                0xad9 (size before relaxing)
 .debug_str     0x000080c8      0x249 /home/huyong/Public/github/switft/build//libxxyyzz.a(tcp_out.o)
                                0x957 (size before relaxing)
 .debug_str     0x00008311      0x451 /home/huyong/Public/github/switft/build//libxxyyzz.a(tcpip.o)
                                0xcdd (size before relaxing)
 .debug_str     0x00008762       0xc5 /home/huyong/Public/github/switft/build//libxxyyzz.a(timers.o)
                                0xb7a (size before relaxing)
 .debug_str     0x00008827       0xa9 /home/huyong/Public/github/switft/build//libxxyyzz.a(udpecho.o)
                               0x154b (size before relaxing)
 .debug_str     0x000088d0      0x1a5 /home/huyong/Public/github/switft/build//libxxyyzz.a(api_lib.o)
                                0xe64 (size before relaxing)
 .debug_str     0x00008a75      0x288 /home/huyong/Public/github/switft/build//libxxyyzz.a(api_msg.o)
                               0x1098 (size before relaxing)
 .debug_str     0x00008cfd      0xa4f /home/huyong/Public/github/switft/build//libxxyyzz.a(bsp_eth.o)
                               0x1039 (size before relaxing)
 .debug_str     0x0000974c       0x86 /home/huyong/Public/github/switft/build//libxxyyzz.a(bsp_gpio.o)
                                0x4bb (size before relaxing)
 .debug_str     0x000097d2      0x130 /home/huyong/Public/github/switft/build//libxxyyzz.a(bsp_os.o)
                               0x1484 (size before relaxing)
 .debug_str     0x00009902       0x3d /home/huyong/Public/github/switft/build//libxxyyzz.a(bsp_uart.o)
                                0x5e9 (size before relaxing)
 .debug_str     0x0000993f       0x87 /home/huyong/Public/github/switft/build//libxxyyzz.a(cli_readline.o)
                                0x1fc (size before relaxing)
 .debug_str     0x000099c6        0xf /home/huyong/Public/github/switft/build//libxxyyzz.a(def.o)
                                0x1e8 (size before relaxing)
 .debug_str     0x000099d5      0x352 /home/huyong/Public/github/switft/build//libxxyyzz.a(etharp.o)
                                0x7e9 (size before relaxing)
 .debug_str     0x00009d27       0xa7 /home/huyong/Public/github/switft/build//libxxyyzz.a(ethernetif.o)
                                0x525 (size before relaxing)
 .debug_str     0x00009dce       0x8d /home/huyong/Public/github/switft/build//libxxyyzz.a(inet_chksum.o)
                                0x2bd (size before relaxing)
 .debug_str     0x00009e5b       0x46 /home/huyong/Public/github/switft/build//libxxyyzz.a(init.o)
                                0x217 (size before relaxing)
 .debug_str     0x00009ea1      0x13e /home/huyong/Public/github/switft/build//libxxyyzz.a(ip.o)
                                0x4a1 (size before relaxing)
 .debug_str     0x00009fdf       0x8d /home/huyong/Public/github/switft/build//libxxyyzz.a(ip_addr.o)
                                0x347 (size before relaxing)
 .debug_str     0x0000a06c      0x1f1 /home/huyong/Public/github/switft/build//libxxyyzz.a(ip_frag.o)
                                0x6de (size before relaxing)
 .debug_str     0x0000a25d       0xd0 /home/huyong/Public/github/switft/build//libxxyyzz.a(lib_ascii.o)
                                0x2be (size before relaxing)
 .debug_str     0x0000a32d       0x96 /home/huyong/Public/github/switft/build//libxxyyzz.a(mem.o)
                                0x73c (size before relaxing)
 .debug_str     0x0000a3c3       0x4f /home/huyong/Public/github/switft/build//libxxyyzz.a(memp.o)
                                0x331 (size before relaxing)
 .debug_str     0x0000a412       0x7c /home/huyong/Public/github/switft/build//libxxyyzz.a(netbuf.o)
                                0x400 (size before relaxing)
 .debug_str     0x0000a48e      0x13a /home/huyong/Public/github/switft/build//libxxyyzz.a(pbuf.o)
                                0x584 (size before relaxing)
 .debug_str     0x0000a5c8       0x25 /home/huyong/Public/github/switft/build//libxxyyzz.a(raw.o)
                                0x556 (size before relaxing)
 .debug_str     0x0000a5ed      0x452 /home/huyong/Public/github/switft/build//libxxyyzz.a(sockets.o)
                               0x1221 (size before relaxing)
 .debug_str     0x0000aa3f      0x85a /home/huyong/Public/github/switft/build//libxxyyzz.a(stm32f2x7_eth.o)
                               0x13c4 (size before relaxing)
 .debug_str     0x0000b299       0xf8 /home/huyong/Public/github/switft/build//libxxyyzz.a(stm32f2xx_syscfg.o)
                                0x326 (size before relaxing)
 .debug_str     0x0000b391       0xd8 /home/huyong/Public/github/switft/build//libxxyyzz.a(sys_arch.o)
                               0x156c (size before relaxing)
 .debug_str     0x0000b469       0xdf /home/huyong/Public/github/switft/build//libxxyyzz.a(tcp_in.o)
                                0x98a (size before relaxing)
 .debug_str     0x0000b548       0x87 /home/huyong/Public/github/switft/build//libxxyyzz.a(udp.o)
                                0x6ab (size before relaxing)
 .debug_str     0x0000b5cf       0xc7 /home/huyong/Public/github/switft/build//libxxyyzz.a(app_tool.o)
                                0xf6d (size before relaxing)
 .debug_str     0x0000b696       0x4b /home/huyong/Public/github/switft/build//libxxyyzz.a(icmp.o)
                                0x4f6 (size before relaxing)

.comment        0x00000000       0x6e
 .comment       0x00000000       0x6e /home/huyong/Public/github/switft/build/system_stm32f2xx.o
                                 0x6f (size before relaxing)
 .comment       0x0000006e       0x6f /home/huyong/Public/github/switft/build/main.o
 .comment       0x0000006e       0x6f /home/huyong/Public/github/switft/build//libxxyyzz.a(app_shell.o)
 .comment       0x0000006e       0x6f /home/huyong/Public/github/switft/build//libxxyyzz.a(bsp.o)
 .comment       0x0000006e       0x6f /home/huyong/Public/github/switft/build//libxxyyzz.a(bsp_delay.o)
 .comment       0x0000006e       0x6f /home/huyong/Public/github/switft/build//libxxyyzz.a(bsp_int.o)
 .comment       0x0000006e       0x6f /home/huyong/Public/github/switft/build//libxxyyzz.a(cli.o)
 .comment       0x0000006e       0x6f /home/huyong/Public/github/switft/build//libxxyyzz.a(cli_simple.o)
 .comment       0x0000006e       0x6f /home/huyong/Public/github/switft/build//libxxyyzz.a(cmd_d.o)
 .comment       0x0000006e       0x6f /home/huyong/Public/github/switft/build//libxxyyzz.a(cmd_help.o)
 .comment       0x0000006e       0x6f /home/huyong/Public/github/switft/build//libxxyyzz.a(cmd_m.o)
 .comment       0x0000006e       0x6f /home/huyong/Public/github/switft/build//libxxyyzz.a(cmd_reset.o)
 .comment       0x0000006e       0x6f /home/huyong/Public/github/switft/build//libxxyyzz.a(cmd_ver.o)
 .comment       0x0000006e       0x6f /home/huyong/Public/github/switft/build//libxxyyzz.a(command.o)
 .comment       0x0000006e       0x6f /home/huyong/Public/github/switft/build//libxxyyzz.a(console.o)
 .comment       0x0000006e       0x6f /home/huyong/Public/github/switft/build//libxxyyzz.a(cpu_c.o)
 .comment       0x0000006e       0x6f /home/huyong/Public/github/switft/build//libxxyyzz.a(cpu_core.o)
 .comment       0x0000006e       0x6f /home/huyong/Public/github/switft/build//libxxyyzz.a(hw_beacon.o)
 .comment       0x0000006e       0x6f /home/huyong/Public/github/switft/build//libxxyyzz.a(hw_led.o)
 .comment       0x0000006e       0x6f /home/huyong/Public/github/switft/build//libxxyyzz.a(lib_mem.o)
 .comment       0x0000006e       0x6f /home/huyong/Public/github/switft/build//libxxyyzz.a(lib_str.o)
 .comment       0x0000006e       0x6f /home/huyong/Public/github/switft/build//libxxyyzz.a(lwip.o)
 .comment       0x0000006e       0x6f /home/huyong/Public/github/switft/build//libxxyyzz.a(netif.o)
 .comment       0x0000006e       0x6f /home/huyong/Public/github/switft/build//libxxyyzz.a(os_cfg_app.o)
 .comment       0x0000006e       0x6f /home/huyong/Public/github/switft/build//libxxyyzz.a(os_core.o)
 .comment       0x0000006e       0x6f /home/huyong/Public/github/switft/build//libxxyyzz.a(os_cpu_c.o)
 .comment       0x0000006e       0x6f /home/huyong/Public/github/switft/build//libxxyyzz.a(os_dbg.o)
 .comment       0x0000006e       0x6f /home/huyong/Public/github/switft/build//libxxyyzz.a(os_flag.o)
 .comment       0x0000006e       0x6f /home/huyong/Public/github/switft/build//libxxyyzz.a(os_mem.o)
 .comment       0x0000006e       0x6f /home/huyong/Public/github/switft/build//libxxyyzz.a(os_msg.o)
 .comment       0x0000006e       0x6f /home/huyong/Public/github/switft/build//libxxyyzz.a(os_mutex.o)
 .comment       0x0000006e       0x6f /home/huyong/Public/github/switft/build//libxxyyzz.a(os_prio.o)
 .comment       0x0000006e       0x6f /home/huyong/Public/github/switft/build//libxxyyzz.a(os_q.o)
 .comment       0x0000006e       0x6f /home/huyong/Public/github/switft/build//libxxyyzz.a(os_sem.o)
 .comment       0x0000006e       0x6f /home/huyong/Public/github/switft/build//libxxyyzz.a(os_stat.o)
 .comment       0x0000006e       0x6f /home/huyong/Public/github/switft/build//libxxyyzz.a(os_task.o)
 .comment       0x0000006e       0x6f /home/huyong/Public/github/switft/build//libxxyyzz.a(os_tick.o)
 .comment       0x0000006e       0x6f /home/huyong/Public/github/switft/build//libxxyyzz.a(os_time.o)
 .comment       0x0000006e       0x6f /home/huyong/Public/github/switft/build//libxxyyzz.a(os_tmr.o)
 .comment       0x0000006e       0x6f /home/huyong/Public/github/switft/build//libxxyyzz.a(os_var.o)
 .comment       0x0000006e       0x6f /home/huyong/Public/github/switft/build//libxxyyzz.a(stm32f2xx_exti.o)
 .comment       0x0000006e       0x6f /home/huyong/Public/github/switft/build//libxxyyzz.a(stm32f2xx_fsmc.o)
 .comment       0x0000006e       0x6f /home/huyong/Public/github/switft/build//libxxyyzz.a(stm32f2xx_gpio.o)
 .comment       0x0000006e       0x6f /home/huyong/Public/github/switft/build//libxxyyzz.a(stm32f2xx_rcc.o)
 .comment       0x0000006e       0x6f /home/huyong/Public/github/switft/build//libxxyyzz.a(stm32f2xx_usart.o)
 .comment       0x0000006e       0x6f /home/huyong/Public/github/switft/build//libxxyyzz.a(tcp.o)
 .comment       0x0000006e       0x6f /home/huyong/Public/github/switft/build//libxxyyzz.a(tcp_out.o)
 .comment       0x0000006e       0x6f /home/huyong/Public/github/switft/build//libxxyyzz.a(tcpip.o)
 .comment       0x0000006e       0x6f /home/huyong/Public/github/switft/build//libxxyyzz.a(timers.o)
 .comment       0x0000006e       0x6f /home/huyong/Public/github/switft/build//libxxyyzz.a(udpecho.o)
 .comment       0x0000006e       0x6f /home/huyong/Public/github/switft/build//libxxyyzz.a(api_lib.o)
 .comment       0x0000006e       0x6f /home/huyong/Public/github/switft/build//libxxyyzz.a(api_msg.o)
 .comment       0x0000006e       0x6f /home/huyong/Public/github/switft/build//libxxyyzz.a(bsp_eth.o)
 .comment       0x0000006e       0x6f /home/huyong/Public/github/switft/build//libxxyyzz.a(bsp_gpio.o)
 .comment       0x0000006e       0x6f /home/huyong/Public/github/switft/build//libxxyyzz.a(bsp_os.o)
 .comment       0x0000006e       0x6f /home/huyong/Public/github/switft/build//libxxyyzz.a(bsp_uart.o)
 .comment       0x0000006e       0x6f /home/huyong/Public/github/switft/build//libxxyyzz.a(cli_readline.o)
 .comment       0x0000006e       0x6f /home/huyong/Public/github/switft/build//libxxyyzz.a(def.o)
 .comment       0x0000006e       0x6f /home/huyong/Public/github/switft/build//libxxyyzz.a(etharp.o)
 .comment       0x0000006e       0x6f /home/huyong/Public/github/switft/build//libxxyyzz.a(ethernetif.o)
 .comment       0x0000006e       0x6f /home/huyong/Public/github/switft/build//libxxyyzz.a(inet_chksum.o)
 .comment       0x0000006e       0x6f /home/huyong/Public/github/switft/build//libxxyyzz.a(init.o)
 .comment       0x0000006e       0x6f /home/huyong/Public/github/switft/build//libxxyyzz.a(ip.o)
 .comment       0x0000006e       0x6f /home/huyong/Public/github/switft/build//libxxyyzz.a(ip_addr.o)
 .comment       0x0000006e       0x6f /home/huyong/Public/github/switft/build//libxxyyzz.a(ip_frag.o)
 .comment       0x0000006e       0x6f /home/huyong/Public/github/switft/build//libxxyyzz.a(lib_ascii.o)
 .comment       0x0000006e       0x6f /home/huyong/Public/github/switft/build//libxxyyzz.a(mem.o)
 .comment       0x0000006e       0x6f /home/huyong/Public/github/switft/build//libxxyyzz.a(memp.o)
 .comment       0x0000006e       0x6f /home/huyong/Public/github/switft/build//libxxyyzz.a(netbuf.o)
 .comment       0x0000006e       0x6f /home/huyong/Public/github/switft/build//libxxyyzz.a(pbuf.o)
 .comment       0x0000006e       0x6f /home/huyong/Public/github/switft/build//libxxyyzz.a(raw.o)
 .comment       0x0000006e       0x6f /home/huyong/Public/github/switft/build//libxxyyzz.a(sockets.o)
 .comment       0x0000006e       0x6f /home/huyong/Public/github/switft/build//libxxyyzz.a(stm32f2x7_eth.o)
 .comment       0x0000006e       0x6f /home/huyong/Public/github/switft/build//libxxyyzz.a(stm32f2xx_syscfg.o)
 .comment       0x0000006e       0x6f /home/huyong/Public/github/switft/build//libxxyyzz.a(sys_arch.o)
 .comment       0x0000006e       0x6f /home/huyong/Public/github/switft/build//libxxyyzz.a(tcp_in.o)
 .comment       0x0000006e       0x6f /home/huyong/Public/github/switft/build//libxxyyzz.a(udp.o)
 .comment       0x0000006e       0x6f /home/huyong/Public/github/switft/build//libxxyyzz.a(app_tool.o)
 .comment       0x0000006e       0x6f /home/huyong/Public/github/switft/build//libxxyyzz.a(icmp.o)

.debug_frame    0x00000000     0x77a8
 .debug_frame   0x00000000       0x50 /home/huyong/Public/github/switft/build/system_stm32f2xx.o
 .debug_frame   0x00000050      0x150 /home/huyong/Public/github/switft/build/main.o
 .debug_frame   0x000001a0       0x28 /home/huyong/Public/github/switft/build//libxxyyzz.a(app_shell.o)
 .debug_frame   0x000001c8      0x110 /home/huyong/Public/github/switft/build//libxxyyzz.a(bsp.o)
 .debug_frame   0x000002d8       0x7c /home/huyong/Public/github/switft/build//libxxyyzz.a(bsp_delay.o)
 .debug_frame   0x00000354      0x63c /home/huyong/Public/github/switft/build//libxxyyzz.a(bsp_int.o)
 .debug_frame   0x00000990       0x40 /home/huyong/Public/github/switft/build//libxxyyzz.a(cli.o)
 .debug_frame   0x000009d0       0xc4 /home/huyong/Public/github/switft/build//libxxyyzz.a(cli_simple.o)
 .debug_frame   0x00000a94       0x48 /home/huyong/Public/github/switft/build//libxxyyzz.a(cmd_d.o)
 .debug_frame   0x00000adc       0x58 /home/huyong/Public/github/switft/build//libxxyyzz.a(cmd_help.o)
 .debug_frame   0x00000b34       0x48 /home/huyong/Public/github/switft/build//libxxyyzz.a(cmd_m.o)
 .debug_frame   0x00000b7c       0x44 /home/huyong/Public/github/switft/build//libxxyyzz.a(cmd_reset.o)
 .debug_frame   0x00000bc0       0x44 /home/huyong/Public/github/switft/build//libxxyyzz.a(cmd_ver.o)
 .debug_frame   0x00000c04      0x138 /home/huyong/Public/github/switft/build//libxxyyzz.a(command.o)
 .debug_frame   0x00000d3c       0xd8 /home/huyong/Public/github/switft/build//libxxyyzz.a(console.o)
 .debug_frame   0x00000e14      0x140 /home/huyong/Public/github/switft/build//libxxyyzz.a(cpu_c.o)
 .debug_frame   0x00000f54      0x184 /home/huyong/Public/github/switft/build//libxxyyzz.a(cpu_core.o)
 .debug_frame   0x000010d8      0x12c /home/huyong/Public/github/switft/build//libxxyyzz.a(hw_beacon.o)
 .debug_frame   0x00001204       0x90 /home/huyong/Public/github/switft/build//libxxyyzz.a(hw_led.o)
 .debug_frame   0x00001294      0x294 /home/huyong/Public/github/switft/build//libxxyyzz.a(lib_mem.o)
 .debug_frame   0x00001528      0x374 /home/huyong/Public/github/switft/build//libxxyyzz.a(lib_str.o)
 .debug_frame   0x0000189c       0x88 /home/huyong/Public/github/switft/build//libxxyyzz.a(lwip.o)
 .debug_frame   0x00001924      0x120 /home/huyong/Public/github/switft/build//libxxyyzz.a(netif.o)
 .debug_frame   0x00001a44       0x20 /home/huyong/Public/github/switft/build//libxxyyzz.a(os_cfg_app.o)
 .debug_frame   0x00001a64      0x4c8 /home/huyong/Public/github/switft/build//libxxyyzz.a(os_core.o)
 .debug_frame   0x00001f2c       0xf4 /home/huyong/Public/github/switft/build//libxxyyzz.a(os_cpu_c.o)
 .debug_frame   0x00002020       0x20 /home/huyong/Public/github/switft/build//libxxyyzz.a(os_dbg.o)
 .debug_frame   0x00002040      0x174 /home/huyong/Public/github/switft/build//libxxyyzz.a(os_flag.o)
 .debug_frame   0x000021b4       0x98 /home/huyong/Public/github/switft/build//libxxyyzz.a(os_mem.o)
 .debug_frame   0x0000224c       0xc4 /home/huyong/Public/github/switft/build//libxxyyzz.a(os_msg.o)
 .debug_frame   0x00002310       0xf8 /home/huyong/Public/github/switft/build//libxxyyzz.a(os_mutex.o)
 .debug_frame   0x00002408       0x70 /home/huyong/Public/github/switft/build//libxxyyzz.a(os_prio.o)
 .debug_frame   0x00002478      0x1b8 /home/huyong/Public/github/switft/build//libxxyyzz.a(os_q.o)
 .debug_frame   0x00002630      0x1a0 /home/huyong/Public/github/switft/build//libxxyyzz.a(os_sem.o)
 .debug_frame   0x000027d0       0xbc /home/huyong/Public/github/switft/build//libxxyyzz.a(os_stat.o)
 .debug_frame   0x0000288c      0x420 /home/huyong/Public/github/switft/build//libxxyyzz.a(os_task.o)
 .debug_frame   0x00002cac       0xf4 /home/huyong/Public/github/switft/build//libxxyyzz.a(os_tick.o)
 .debug_frame   0x00002da0       0xc0 /home/huyong/Public/github/switft/build//libxxyyzz.a(os_time.o)
 .debug_frame   0x00002e60      0x1d0 /home/huyong/Public/github/switft/build//libxxyyzz.a(os_tmr.o)
 .debug_frame   0x00003030       0xb0 /home/huyong/Public/github/switft/build//libxxyyzz.a(stm32f2xx_exti.o)
 .debug_frame   0x000030e0      0x1a4 /home/huyong/Public/github/switft/build//libxxyyzz.a(stm32f2xx_fsmc.o)
 .debug_frame   0x00003284      0x164 /home/huyong/Public/github/switft/build//libxxyyzz.a(stm32f2xx_gpio.o)
 .debug_frame   0x000033e8      0x2f4 /home/huyong/Public/github/switft/build//libxxyyzz.a(stm32f2xx_rcc.o)
 .debug_frame   0x000036dc      0x260 /home/huyong/Public/github/switft/build//libxxyyzz.a(stm32f2xx_usart.o)
 .debug_frame   0x0000393c      0x3f4 /home/huyong/Public/github/switft/build//libxxyyzz.a(tcp.o)
 .debug_frame   0x00003d30      0x264 /home/huyong/Public/github/switft/build//libxxyyzz.a(tcp_out.o)
 .debug_frame   0x00003f94      0x15c /home/huyong/Public/github/switft/build//libxxyyzz.a(tcpip.o)
 .debug_frame   0x000040f0      0x128 /home/huyong/Public/github/switft/build//libxxyyzz.a(timers.o)
 .debug_frame   0x00004218       0x84 /home/huyong/Public/github/switft/build//libxxyyzz.a(udpecho.o)
 .debug_frame   0x0000429c      0x274 /home/huyong/Public/github/switft/build//libxxyyzz.a(api_lib.o)
 .debug_frame   0x00004510      0x460 /home/huyong/Public/github/switft/build//libxxyyzz.a(api_msg.o)
 .debug_frame   0x00004970      0x16c /home/huyong/Public/github/switft/build//libxxyyzz.a(bsp_eth.o)
 .debug_frame   0x00004adc       0x88 /home/huyong/Public/github/switft/build//libxxyyzz.a(bsp_gpio.o)
 .debug_frame   0x00004b64      0x1b4 /home/huyong/Public/github/switft/build//libxxyyzz.a(bsp_os.o)
 .debug_frame   0x00004d18       0x9c /home/huyong/Public/github/switft/build//libxxyyzz.a(bsp_uart.o)
 .debug_frame   0x00004db4       0x80 /home/huyong/Public/github/switft/build//libxxyyzz.a(cli_readline.o)
 .debug_frame   0x00004e34       0x50 /home/huyong/Public/github/switft/build//libxxyyzz.a(def.o)
 .debug_frame   0x00004e84      0x234 /home/huyong/Public/github/switft/build//libxxyyzz.a(etharp.o)
 .debug_frame   0x000050b8       0x90 /home/huyong/Public/github/switft/build//libxxyyzz.a(ethernetif.o)
 .debug_frame   0x00005148       0xc8 /home/huyong/Public/github/switft/build//libxxyyzz.a(inet_chksum.o)
 .debug_frame   0x00005210       0x2c /home/huyong/Public/github/switft/build//libxxyyzz.a(init.o)
 .debug_frame   0x0000523c       0xbc /home/huyong/Public/github/switft/build//libxxyyzz.a(ip.o)
 .debug_frame   0x000052f8       0xd4 /home/huyong/Public/github/switft/build//libxxyyzz.a(ip_addr.o)
 .debug_frame   0x000053cc      0x110 /home/huyong/Public/github/switft/build//libxxyyzz.a(ip_frag.o)
 .debug_frame   0x000054dc      0x110 /home/huyong/Public/github/switft/build//libxxyyzz.a(lib_ascii.o)
 .debug_frame   0x000055ec      0x100 /home/huyong/Public/github/switft/build//libxxyyzz.a(mem.o)
 .debug_frame   0x000056ec       0x7c /home/huyong/Public/github/switft/build//libxxyyzz.a(memp.o)
 .debug_frame   0x00005768       0xfc /home/huyong/Public/github/switft/build//libxxyyzz.a(netbuf.o)
 .debug_frame   0x00005864      0x230 /home/huyong/Public/github/switft/build//libxxyyzz.a(pbuf.o)
 .debug_frame   0x00005a94       0xcc /home/huyong/Public/github/switft/build//libxxyyzz.a(raw.o)
 .debug_frame   0x00005b60      0x4fc /home/huyong/Public/github/switft/build//libxxyyzz.a(sockets.o)
 .debug_frame   0x0000605c      0x654 /home/huyong/Public/github/switft/build//libxxyyzz.a(stm32f2x7_eth.o)
 .debug_frame   0x000066b0       0x88 /home/huyong/Public/github/switft/build//libxxyyzz.a(stm32f2xx_syscfg.o)
 .debug_frame   0x00006738      0x214 /home/huyong/Public/github/switft/build//libxxyyzz.a(sys_arch.o)
 .debug_frame   0x0000694c       0xa4 /home/huyong/Public/github/switft/build//libxxyyzz.a(tcp_in.o)
 .debug_frame   0x000069f0      0x154 /home/huyong/Public/github/switft/build//libxxyyzz.a(udp.o)
 .debug_frame   0x00006b44       0xc8 /home/huyong/Public/github/switft/build//libxxyyzz.a(app_tool.o)
 .debug_frame   0x00006c0c       0x94 /home/huyong/Public/github/switft/build//libxxyyzz.a(icmp.o)
 .debug_frame   0x00006ca0       0x28 /opt/gcc-arm-none-eabi-5_4-2016q3/bin/../lib/gcc/arm-none-eabi/5.4.1/../../../../arm-none-eabi/lib/armv7-m/libg_nano.a(lib_a-isblank.o)
 .debug_frame   0x00006cc8       0x88 /opt/gcc-arm-none-eabi-5_4-2016q3/bin/../lib/gcc/arm-none-eabi/5.4.1/../../../../arm-none-eabi/lib/armv7-m/libg_nano.a(lib_a-locale.o)
 .debug_frame   0x00006d50       0x44 /opt/gcc-arm-none-eabi-5_4-2016q3/bin/../lib/gcc/arm-none-eabi/5.4.1/../../../../arm-none-eabi/lib/armv7-m/libg_nano.a(lib_a-mbtowc_r.o)
 .debug_frame   0x00006d94       0x28 /opt/gcc-arm-none-eabi-5_4-2016q3/bin/../lib/gcc/arm-none-eabi/5.4.1/../../../../arm-none-eabi/lib/armv7-m/libg_nano.a(lib_a-memcmp.o)
 .debug_frame   0x00006dbc       0x28 /opt/gcc-arm-none-eabi-5_4-2016q3/bin/../lib/gcc/arm-none-eabi/5.4.1/../../../../arm-none-eabi/lib/armv7-m/libg_nano.a(lib_a-memcpy-stub.o)
 .debug_frame   0x00006de4       0x20 /opt/gcc-arm-none-eabi-5_4-2016q3/bin/../lib/gcc/arm-none-eabi/5.4.1/../../../../arm-none-eabi/lib/armv7-m/libg_nano.a(lib_a-memset.o)
 .debug_frame   0x00006e04       0x74 /opt/gcc-arm-none-eabi-5_4-2016q3/bin/../lib/gcc/arm-none-eabi/5.4.1/../../../../arm-none-eabi/lib/armv7-m/libg_nano.a(lib_a-printf.o)
 .debug_frame   0x00006e78       0x48 /opt/gcc-arm-none-eabi-5_4-2016q3/bin/../lib/gcc/arm-none-eabi/5.4.1/../../../../arm-none-eabi/lib/armv7-m/libg_nano.a(lib_a-putc.o)
 .debug_frame   0x00006ec0       0x3c /opt/gcc-arm-none-eabi-5_4-2016q3/bin/../lib/gcc/arm-none-eabi/5.4.1/../../../../arm-none-eabi/lib/armv7-m/libg_nano.a(lib_a-puts.o)
 .debug_frame   0x00006efc       0x20 /opt/gcc-arm-none-eabi-5_4-2016q3/bin/../lib/gcc/arm-none-eabi/5.4.1/../../../../arm-none-eabi/lib/armv7-m/libg_nano.a(lib_a-strcmp.o)
 .debug_frame   0x00006f1c       0x20 /opt/gcc-arm-none-eabi-5_4-2016q3/bin/../lib/gcc/arm-none-eabi/5.4.1/../../../../arm-none-eabi/lib/armv7-m/libg_nano.a(lib_a-strcpy.o)
 .debug_frame   0x00006f3c       0x28 /opt/gcc-arm-none-eabi-5_4-2016q3/bin/../lib/gcc/arm-none-eabi/5.4.1/../../../../arm-none-eabi/lib/armv7-m/libg_nano.a(lib_a-strlcpy.o)
 .debug_frame   0x00006f64       0x2c /opt/gcc-arm-none-eabi-5_4-2016q3/bin/../lib/gcc/arm-none-eabi/5.4.1/../../../../arm-none-eabi/lib/armv7-m/libg_nano.a(lib_a-strncmp.o)
 .debug_frame   0x00006f90       0x84 /opt/gcc-arm-none-eabi-5_4-2016q3/bin/../lib/gcc/arm-none-eabi/5.4.1/../../../../arm-none-eabi/lib/armv7-m/libg_nano.a(lib_a-strtoul.o)
 .debug_frame   0x00007014       0x40 /opt/gcc-arm-none-eabi-5_4-2016q3/bin/../lib/gcc/arm-none-eabi/5.4.1/../../../../arm-none-eabi/lib/armv7-m/libg_nano.a(lib_a-wbuf.o)
 .debug_frame   0x00007054       0x3c /opt/gcc-arm-none-eabi-5_4-2016q3/bin/../lib/gcc/arm-none-eabi/5.4.1/../../../../arm-none-eabi/lib/armv7-m/libg_nano.a(lib_a-wctomb_r.o)
 .debug_frame   0x00007090       0x2c /opt/gcc-arm-none-eabi-5_4-2016q3/bin/../lib/gcc/arm-none-eabi/5.4.1/../../../../arm-none-eabi/lib/armv7-m/libg_nano.a(lib_a-wsetup.o)
 .debug_frame   0x000070bc       0x68 /opt/gcc-arm-none-eabi-5_4-2016q3/bin/../lib/gcc/arm-none-eabi/5.4.1/../../../../arm-none-eabi/lib/armv7-m/libg_nano.a(lib_a-fflush.o)
 .debug_frame   0x00007124      0x11c /opt/gcc-arm-none-eabi-5_4-2016q3/bin/../lib/gcc/arm-none-eabi/5.4.1/../../../../arm-none-eabi/lib/armv7-m/libg_nano.a(lib_a-findfp.o)
 .debug_frame   0x00007240       0x54 /opt/gcc-arm-none-eabi-5_4-2016q3/bin/../lib/gcc/arm-none-eabi/5.4.1/../../../../arm-none-eabi/lib/armv7-m/libg_nano.a(lib_a-fwalk.o)
 .debug_frame   0x00007294       0x54 /opt/gcc-arm-none-eabi-5_4-2016q3/bin/../lib/gcc/arm-none-eabi/5.4.1/../../../../arm-none-eabi/lib/armv7-m/libg_nano.a(lib_a-makebuf.o)
 .debug_frame   0x000072e8       0x38 /opt/gcc-arm-none-eabi-5_4-2016q3/bin/../lib/gcc/arm-none-eabi/5.4.1/../../../../arm-none-eabi/lib/armv7-m/libg_nano.a(lib_a-nano-freer.o)
 .debug_frame   0x00007320       0x2c /opt/gcc-arm-none-eabi-5_4-2016q3/bin/../lib/gcc/arm-none-eabi/5.4.1/../../../../arm-none-eabi/lib/armv7-m/libg_nano.a(lib_a-nano-mallocr.o)
 .debug_frame   0x0000734c       0xac /opt/gcc-arm-none-eabi-5_4-2016q3/bin/../lib/gcc/arm-none-eabi/5.4.1/../../../../arm-none-eabi/lib/armv7-m/libg_nano.a(lib_a-nano-vfprintf.o)
 .debug_frame   0x000073f8       0x60 /opt/gcc-arm-none-eabi-5_4-2016q3/bin/../lib/gcc/arm-none-eabi/5.4.1/../../../../arm-none-eabi/lib/armv7-m/libg_nano.a(lib_a-nano-vfprintf_i.o)
 .debug_frame   0x00007458       0x2c /opt/gcc-arm-none-eabi-5_4-2016q3/bin/../lib/gcc/arm-none-eabi/5.4.1/../../../../arm-none-eabi/lib/armv7-m/libg_nano.a(lib_a-sbrkr.o)
 .debug_frame   0x00007484       0x88 /opt/gcc-arm-none-eabi-5_4-2016q3/bin/../lib/gcc/arm-none-eabi/5.4.1/../../../../arm-none-eabi/lib/armv7-m/libg_nano.a(lib_a-stdio.o)
 .debug_frame   0x0000750c       0x2c /opt/gcc-arm-none-eabi-5_4-2016q3/bin/../lib/gcc/arm-none-eabi/5.4.1/../../../../arm-none-eabi/lib/armv7-m/libg_nano.a(lib_a-writer.o)
 .debug_frame   0x00007538       0x2c /opt/gcc-arm-none-eabi-5_4-2016q3/bin/../lib/gcc/arm-none-eabi/5.4.1/../../../../arm-none-eabi/lib/armv7-m/libg_nano.a(lib_a-closer.o)
 .debug_frame   0x00007564       0x2c /opt/gcc-arm-none-eabi-5_4-2016q3/bin/../lib/gcc/arm-none-eabi/5.4.1/../../../../arm-none-eabi/lib/armv7-m/libg_nano.a(lib_a-fstatr.o)
 .debug_frame   0x00007590       0x2c /opt/gcc-arm-none-eabi-5_4-2016q3/bin/../lib/gcc/arm-none-eabi/5.4.1/../../../../arm-none-eabi/lib/armv7-m/libg_nano.a(lib_a-isattyr.o)
 .debug_frame   0x000075bc       0x2c /opt/gcc-arm-none-eabi-5_4-2016q3/bin/../lib/gcc/arm-none-eabi/5.4.1/../../../../arm-none-eabi/lib/armv7-m/libg_nano.a(lib_a-lseekr.o)
 .debug_frame   0x000075e8       0x28 /opt/gcc-arm-none-eabi-5_4-2016q3/bin/../lib/gcc/arm-none-eabi/5.4.1/../../../../arm-none-eabi/lib/armv7-m/libg_nano.a(lib_a-memchr-stub.o)
 .debug_frame   0x00007610       0x30 /opt/gcc-arm-none-eabi-5_4-2016q3/bin/../lib/gcc/arm-none-eabi/5.4.1/../../../../arm-none-eabi/lib/armv7-m/libg_nano.a(lib_a-mlock.o)
 .debug_frame   0x00007640       0x2c /opt/gcc-arm-none-eabi-5_4-2016q3/bin/../lib/gcc/arm-none-eabi/5.4.1/../../../../arm-none-eabi/lib/armv7-m/libg_nano.a(lib_a-readr.o)
 .debug_frame   0x0000766c       0x5c /opt/gcc-arm-none-eabi-5_4-2016q3/bin/../lib/gcc/arm-none-eabi/5.4.1/../../../../arm-none-eabi/lib/armv7-m/libg_nano.a(lib_a-reent.o)
 .debug_frame   0x000076c8       0x20 /opt/gcc-arm-none-eabi-5_4-2016q3/bin/../lib/gcc/arm-none-eabi/5.4.1/../../../../arm-none-eabi/lib/armv7-m/libnosys.a(close.o)
 .debug_frame   0x000076e8       0x20 /opt/gcc-arm-none-eabi-5_4-2016q3/bin/../lib/gcc/arm-none-eabi/5.4.1/../../../../arm-none-eabi/lib/armv7-m/libnosys.a(fstat.o)
 .debug_frame   0x00007708       0x20 /opt/gcc-arm-none-eabi-5_4-2016q3/bin/../lib/gcc/arm-none-eabi/5.4.1/../../../../arm-none-eabi/lib/armv7-m/libnosys.a(isatty.o)
 .debug_frame   0x00007728       0x20 /opt/gcc-arm-none-eabi-5_4-2016q3/bin/../lib/gcc/arm-none-eabi/5.4.1/../../../../arm-none-eabi/lib/armv7-m/libnosys.a(lseek.o)
 .debug_frame   0x00007748       0x20 /opt/gcc-arm-none-eabi-5_4-2016q3/bin/../lib/gcc/arm-none-eabi/5.4.1/../../../../arm-none-eabi/lib/armv7-m/libnosys.a(read.o)
 .debug_frame   0x00007768       0x20 /opt/gcc-arm-none-eabi-5_4-2016q3/bin/../lib/gcc/arm-none-eabi/5.4.1/../../../../arm-none-eabi/lib/armv7-m/libnosys.a(sbrk.o)
 .debug_frame   0x00007788       0x20 /opt/gcc-arm-none-eabi-5_4-2016q3/bin/../lib/gcc/arm-none-eabi/5.4.1/../../../../arm-none-eabi/lib/armv7-m/libnosys.a(write.o)

.stab           0x00000000       0x9c
 .stab          0x00000000       0x24 /opt/gcc-arm-none-eabi-5_4-2016q3/bin/../lib/gcc/arm-none-eabi/5.4.1/../../../../arm-none-eabi/lib/armv7-m/libnosys.a(close.o)
 .stab          0x00000024       0x18 /opt/gcc-arm-none-eabi-5_4-2016q3/bin/../lib/gcc/arm-none-eabi/5.4.1/../../../../arm-none-eabi/lib/armv7-m/libnosys.a(fstat.o)
                                 0x24 (size before relaxing)
 .stab          0x0000003c       0x18 /opt/gcc-arm-none-eabi-5_4-2016q3/bin/../lib/gcc/arm-none-eabi/5.4.1/../../../../arm-none-eabi/lib/armv7-m/libnosys.a(isatty.o)
                                 0x24 (size before relaxing)
 .stab          0x00000054       0x18 /opt/gcc-arm-none-eabi-5_4-2016q3/bin/../lib/gcc/arm-none-eabi/5.4.1/../../../../arm-none-eabi/lib/armv7-m/libnosys.a(lseek.o)
                                 0x24 (size before relaxing)
 .stab          0x0000006c       0x18 /opt/gcc-arm-none-eabi-5_4-2016q3/bin/../lib/gcc/arm-none-eabi/5.4.1/../../../../arm-none-eabi/lib/armv7-m/libnosys.a(read.o)
                                 0x24 (size before relaxing)
 .stab          0x00000084       0x18 /opt/gcc-arm-none-eabi-5_4-2016q3/bin/../lib/gcc/arm-none-eabi/5.4.1/../../../../arm-none-eabi/lib/armv7-m/libnosys.a(write.o)
                                 0x24 (size before relaxing)

.stabstr        0x00000000      0x14d
 .stabstr       0x00000000      0x14d /opt/gcc-arm-none-eabi-5_4-2016q3/bin/../lib/gcc/arm-none-eabi/5.4.1/../../../../arm-none-eabi/lib/armv7-m/libnosys.a(close.o)
