
/home/huyong/Public/github/switft/build/swift.elf:     file format elf32-littlearm


Disassembly of section .text:

08000184 <__do_global_dtors_aux>:
 8000184:	b510      	push	{r4, lr}
 8000186:	4c05      	ldr	r4, [pc, #20]	; (800019c <__do_global_dtors_aux+0x18>)
 8000188:	7823      	ldrb	r3, [r4, #0]
 800018a:	b933      	cbnz	r3, 800019a <__do_global_dtors_aux+0x16>
 800018c:	4b04      	ldr	r3, [pc, #16]	; (80001a0 <__do_global_dtors_aux+0x1c>)
 800018e:	b113      	cbz	r3, 8000196 <__do_global_dtors_aux+0x12>
 8000190:	4804      	ldr	r0, [pc, #16]	; (80001a4 <__do_global_dtors_aux+0x20>)
 8000192:	f3af 8000 	nop.w
 8000196:	2301      	movs	r3, #1
 8000198:	7023      	strb	r3, [r4, #0]
 800019a:	bd10      	pop	{r4, pc}
 800019c:	20000204 	.word	0x20000204
 80001a0:	00000000 	.word	0x00000000
 80001a4:	08018954 	.word	0x08018954

080001a8 <frame_dummy>:
 80001a8:	4b08      	ldr	r3, [pc, #32]	; (80001cc <frame_dummy+0x24>)
 80001aa:	b510      	push	{r4, lr}
 80001ac:	b11b      	cbz	r3, 80001b6 <frame_dummy+0xe>
 80001ae:	4908      	ldr	r1, [pc, #32]	; (80001d0 <frame_dummy+0x28>)
 80001b0:	4808      	ldr	r0, [pc, #32]	; (80001d4 <frame_dummy+0x2c>)
 80001b2:	f3af 8000 	nop.w
 80001b6:	4808      	ldr	r0, [pc, #32]	; (80001d8 <frame_dummy+0x30>)
 80001b8:	6803      	ldr	r3, [r0, #0]
 80001ba:	b903      	cbnz	r3, 80001be <frame_dummy+0x16>
 80001bc:	bd10      	pop	{r4, pc}
 80001be:	4b07      	ldr	r3, [pc, #28]	; (80001dc <frame_dummy+0x34>)
 80001c0:	2b00      	cmp	r3, #0
 80001c2:	d0fb      	beq.n	80001bc <frame_dummy+0x14>
 80001c4:	e8bd 4010 	ldmia.w	sp!, {r4, lr}
 80001c8:	4718      	bx	r3
 80001ca:	bf00      	nop
 80001cc:	00000000 	.word	0x00000000
 80001d0:	20000208 	.word	0x20000208
 80001d4:	08018954 	.word	0x08018954
 80001d8:	20000204 	.word	0x20000204
 80001dc:	00000000 	.word	0x00000000

080001e0 <SystemInit>:
  */
void SystemInit(void)
{
  /* Reset the RCC clock configuration to the default reset state ------------*/
  /* Set HSION bit */
  RCC->CR |= (uint32_t)0x00000001;
 80001e0:	4b32      	ldr	r3, [pc, #200]	; (80002ac <SystemInit+0xcc>)

  /* Reset CFGR register */
  RCC->CFGR = 0x00000000;
 80001e2:	2000      	movs	r0, #0
  */
void SystemInit(void)
{
  /* Reset the RCC clock configuration to the default reset state ------------*/
  /* Set HSION bit */
  RCC->CR |= (uint32_t)0x00000001;
 80001e4:	6819      	ldr	r1, [r3, #0]
  *         SystemFrequency variable.
  * @param  None
  * @retval None
  */
void SystemInit(void)
{
 80001e6:	b410      	push	{r4}
  /* Reset the RCC clock configuration to the default reset state ------------*/
  /* Set HSION bit */
  RCC->CR |= (uint32_t)0x00000001;
 80001e8:	f041 0101 	orr.w	r1, r1, #1
 80001ec:	6019      	str	r1, [r3, #0]

  /* Reset CFGR register */
  RCC->CFGR = 0x00000000;
 80001ee:	6098      	str	r0, [r3, #8]

  /* Reset HSEON, CSSON and PLLON bits */
  RCC->CR &= (uint32_t)0xFEF6FFFF;
 80001f0:	6819      	ldr	r1, [r3, #0]

  /* Reset PLLCFGR register */
  RCC->PLLCFGR = 0x24003010;
 80001f2:	4c2f      	ldr	r4, [pc, #188]	; (80002b0 <SystemInit+0xd0>)

  /* Reset CFGR register */
  RCC->CFGR = 0x00000000;

  /* Reset HSEON, CSSON and PLLON bits */
  RCC->CR &= (uint32_t)0xFEF6FFFF;
 80001f4:	f021 7184 	bic.w	r1, r1, #17301504	; 0x1080000
 80001f8:	f421 3180 	bic.w	r1, r1, #65536	; 0x10000
 80001fc:	6019      	str	r1, [r3, #0]

  /* Reset PLLCFGR register */
  RCC->PLLCFGR = 0x24003010;
 80001fe:	605c      	str	r4, [r3, #4]

  /* Reset HSEBYP bit */
  RCC->CR &= (uint32_t)0xFFFBFFFF;
 8000200:	6819      	ldr	r1, [r3, #0]
  *         SystemFrequency variable.
  * @param  None
  * @retval None
  */
void SystemInit(void)
{
 8000202:	b083      	sub	sp, #12

  /* Reset PLLCFGR register */
  RCC->PLLCFGR = 0x24003010;

  /* Reset HSEBYP bit */
  RCC->CR &= (uint32_t)0xFFFBFFFF;
 8000204:	f421 2180 	bic.w	r1, r1, #262144	; 0x40000
 8000208:	6019      	str	r1, [r3, #0]

  /* Disable all interrupts */
  RCC->CIR = 0x00000000;
 800020a:	60d8      	str	r0, [r3, #12]
static void SetSysClock(void)
{
/******************************************************************************/
/*            PLL (clocked by HSE) used as System clock source                */
/******************************************************************************/
  __IO uint32_t StartUpCounter = 0, HSEStatus = 0;
 800020c:	9000      	str	r0, [sp, #0]
 800020e:	9001      	str	r0, [sp, #4]
  
  /* Enable HSE */
  RCC->CR |= ((uint32_t)RCC_CR_HSEON);
 8000210:	6819      	ldr	r1, [r3, #0]
 
  /* Wait till HSE is ready and if Time out is reached exit */
  do
  {
    HSEStatus = RCC->CR & RCC_CR_HSERDY;
 8000212:	461a      	mov	r2, r3
/*            PLL (clocked by HSE) used as System clock source                */
/******************************************************************************/
  __IO uint32_t StartUpCounter = 0, HSEStatus = 0;
  
  /* Enable HSE */
  RCC->CR |= ((uint32_t)RCC_CR_HSEON);
 8000214:	f441 3180 	orr.w	r1, r1, #65536	; 0x10000
 8000218:	6019      	str	r1, [r3, #0]
 800021a:	e003      	b.n	8000224 <SystemInit+0x44>
  /* Wait till HSE is ready and if Time out is reached exit */
  do
  {
    HSEStatus = RCC->CR & RCC_CR_HSERDY;
    StartUpCounter++;
  } while((HSEStatus == 0) && (StartUpCounter != HSE_STARTUP_TIMEOUT));
 800021c:	9b00      	ldr	r3, [sp, #0]
 800021e:	f5b3 6fa0 	cmp.w	r3, #1280	; 0x500
 8000222:	d009      	beq.n	8000238 <SystemInit+0x58>
  RCC->CR |= ((uint32_t)RCC_CR_HSEON);
 
  /* Wait till HSE is ready and if Time out is reached exit */
  do
  {
    HSEStatus = RCC->CR & RCC_CR_HSERDY;
 8000224:	6813      	ldr	r3, [r2, #0]
 8000226:	f403 3300 	and.w	r3, r3, #131072	; 0x20000
 800022a:	9301      	str	r3, [sp, #4]
    StartUpCounter++;
 800022c:	9b00      	ldr	r3, [sp, #0]
 800022e:	3301      	adds	r3, #1
 8000230:	9300      	str	r3, [sp, #0]
  } while((HSEStatus == 0) && (StartUpCounter != HSE_STARTUP_TIMEOUT));
 8000232:	9b01      	ldr	r3, [sp, #4]
 8000234:	2b00      	cmp	r3, #0
 8000236:	d0f1      	beq.n	800021c <SystemInit+0x3c>

  if ((RCC->CR & RCC_CR_HSERDY) != RESET)
 8000238:	4b1c      	ldr	r3, [pc, #112]	; (80002ac <SystemInit+0xcc>)
 800023a:	681b      	ldr	r3, [r3, #0]
 800023c:	f413 3300 	ands.w	r3, r3, #131072	; 0x20000
  {
    HSEStatus = (uint32_t)0x01;
 8000240:	bf18      	it	ne
 8000242:	2301      	movne	r3, #1
  }
  else
  {
    HSEStatus = (uint32_t)0x00;
 8000244:	9301      	str	r3, [sp, #4]
  }

  if (HSEStatus == (uint32_t)0x01)
 8000246:	9b01      	ldr	r3, [sp, #4]
 8000248:	2b01      	cmp	r3, #1
 800024a:	d006      	beq.n	800025a <SystemInit+0x7a>

  /* Configure the Vector Table location add offset address ------------------*/
#ifdef VECT_TAB_SRAM
  SCB->VTOR = SRAM_BASE | VECT_TAB_OFFSET; /* Vector Table Relocation in Internal SRAM */
#else
  SCB->VTOR = FLASH_BASE | VECT_TAB_OFFSET; /* Vector Table Relocation in Internal FLASH */
 800024c:	4b19      	ldr	r3, [pc, #100]	; (80002b4 <SystemInit+0xd4>)
 800024e:	f04f 6200 	mov.w	r2, #134217728	; 0x8000000
 8000252:	609a      	str	r2, [r3, #8]
#endif
}
 8000254:	b003      	add	sp, #12
 8000256:	bc10      	pop	{r4}
 8000258:	4770      	bx	lr
  }

  if (HSEStatus == (uint32_t)0x01)
  {
    /* HCLK = SYSCLK / 1*/
    RCC->CFGR |= RCC_CFGR_HPRE_DIV1;
 800025a:	4b14      	ldr	r3, [pc, #80]	; (80002ac <SystemInit+0xcc>)
    
    /* PCLK1 = HCLK / 2*/
    RCC->CFGR |= RCC_CFGR_PPRE1_DIV2;

    /* Configure the main PLL */
    RCC->PLLCFGR = PLL_M | (PLL_N << 6) | (((PLL_P >> 1) -1) << 16) |
 800025c:	4816      	ldr	r0, [pc, #88]	; (80002b8 <SystemInit+0xd8>)

    /* Enable the main PLL */
    RCC->CR |= RCC_CR_PLLON;

    /* Wait till the main PLL is ready */
    while((RCC->CR & RCC_CR_PLLRDY) == 0)
 800025e:	4619      	mov	r1, r3
  }

  if (HSEStatus == (uint32_t)0x01)
  {
    /* HCLK = SYSCLK / 1*/
    RCC->CFGR |= RCC_CFGR_HPRE_DIV1;
 8000260:	689a      	ldr	r2, [r3, #8]
 8000262:	609a      	str	r2, [r3, #8]
      
    /* PCLK2 = HCLK / 2*/
    RCC->CFGR |= RCC_CFGR_PPRE2_DIV2;
 8000264:	689a      	ldr	r2, [r3, #8]
 8000266:	f442 4200 	orr.w	r2, r2, #32768	; 0x8000
 800026a:	609a      	str	r2, [r3, #8]
    
    /* PCLK1 = HCLK / 2*/
    RCC->CFGR |= RCC_CFGR_PPRE1_DIV2;
 800026c:	689a      	ldr	r2, [r3, #8]
 800026e:	f442 5280 	orr.w	r2, r2, #4096	; 0x1000
 8000272:	609a      	str	r2, [r3, #8]

    /* Configure the main PLL */
    RCC->PLLCFGR = PLL_M | (PLL_N << 6) | (((PLL_P >> 1) -1) << 16) |
 8000274:	6058      	str	r0, [r3, #4]
                   (RCC_PLLCFGR_PLLSRC_HSE) | (PLL_Q << 24);

    /* Enable the main PLL */
    RCC->CR |= RCC_CR_PLLON;
 8000276:	681a      	ldr	r2, [r3, #0]
 8000278:	f042 7280 	orr.w	r2, r2, #16777216	; 0x1000000
 800027c:	601a      	str	r2, [r3, #0]

    /* Wait till the main PLL is ready */
    while((RCC->CR & RCC_CR_PLLRDY) == 0)
 800027e:	680b      	ldr	r3, [r1, #0]
 8000280:	4a0a      	ldr	r2, [pc, #40]	; (80002ac <SystemInit+0xcc>)
 8000282:	019b      	lsls	r3, r3, #6
 8000284:	d5fb      	bpl.n	800027e <SystemInit+0x9e>
    {
    }
   
    /* Configure Flash prefetch, Instruction cache, Data cache and wait state */
    FLASH->ACR = FLASH_ACR_PRFTEN | FLASH_ACR_ICEN | FLASH_ACR_DCEN | FLASH_ACR_LATENCY_3WS;
 8000286:	f240 7003 	movw	r0, #1795	; 0x703
    /* Select the main PLL as system clock source */
    RCC->CFGR &= (uint32_t)((uint32_t)~(RCC_CFGR_SW));
    RCC->CFGR |= RCC_CFGR_SW_PLL;

    /* Wait till the main PLL is used as system clock source */
    while ((RCC->CFGR & (uint32_t)RCC_CFGR_SWS ) != RCC_CFGR_SWS_PLL);
 800028a:	4611      	mov	r1, r2
    while((RCC->CR & RCC_CR_PLLRDY) == 0)
    {
    }
   
    /* Configure Flash prefetch, Instruction cache, Data cache and wait state */
    FLASH->ACR = FLASH_ACR_PRFTEN | FLASH_ACR_ICEN | FLASH_ACR_DCEN | FLASH_ACR_LATENCY_3WS;
 800028c:	4b0b      	ldr	r3, [pc, #44]	; (80002bc <SystemInit+0xdc>)
 800028e:	6018      	str	r0, [r3, #0]

    /* Select the main PLL as system clock source */
    RCC->CFGR &= (uint32_t)((uint32_t)~(RCC_CFGR_SW));
 8000290:	6893      	ldr	r3, [r2, #8]
 8000292:	f023 0303 	bic.w	r3, r3, #3
 8000296:	6093      	str	r3, [r2, #8]
    RCC->CFGR |= RCC_CFGR_SW_PLL;
 8000298:	6893      	ldr	r3, [r2, #8]
 800029a:	f043 0302 	orr.w	r3, r3, #2
 800029e:	6093      	str	r3, [r2, #8]

    /* Wait till the main PLL is used as system clock source */
    while ((RCC->CFGR & (uint32_t)RCC_CFGR_SWS ) != RCC_CFGR_SWS_PLL);
 80002a0:	688b      	ldr	r3, [r1, #8]
 80002a2:	f003 030c 	and.w	r3, r3, #12
 80002a6:	2b08      	cmp	r3, #8
 80002a8:	d1fa      	bne.n	80002a0 <SystemInit+0xc0>
 80002aa:	e7cf      	b.n	800024c <SystemInit+0x6c>
 80002ac:	40023800 	.word	0x40023800
 80002b0:	24003010 	.word	0x24003010
 80002b4:	e000ed00 	.word	0xe000ed00
 80002b8:	05403c18 	.word	0x05403c18
 80002bc:	40023c00 	.word	0x40023c00

080002c0 <SystemCoreClockUpdate>:
  *     
  * @param  None
  * @retval None
  */
void SystemCoreClockUpdate(void)
{
 80002c0:	b410      	push	{r4}
  uint32_t tmp = 0, pllvco = 0, pllp = 2, pllsource = 0, pllm = 2;
  
  /* Get SYSCLK source -------------------------------------------------------*/
  tmp = RCC->CFGR & RCC_CFGR_SWS;
 80002c2:	4c1a      	ldr	r4, [pc, #104]	; (800032c <SystemCoreClockUpdate+0x6c>)
 80002c4:	68a3      	ldr	r3, [r4, #8]

  switch (tmp)
 80002c6:	f003 030c 	and.w	r3, r3, #12
 80002ca:	2b04      	cmp	r3, #4
 80002cc:	d023      	beq.n	8000316 <SystemCoreClockUpdate+0x56>
 80002ce:	2b08      	cmp	r3, #8
 80002d0:	d00a      	beq.n	80002e8 <SystemCoreClockUpdate+0x28>
 80002d2:	4b17      	ldr	r3, [pc, #92]	; (8000330 <SystemCoreClockUpdate+0x70>)
      SystemCoreClock = HSI_VALUE;
      break;
  }
  /* Compute HCLK frequency --------------------------------------------------*/
  /* Get HCLK prescaler */
  tmp = AHBPrescTable[((RCC->CFGR & RCC_CFGR_HPRE) >> 4)];
 80002d4:	4a15      	ldr	r2, [pc, #84]	; (800032c <SystemCoreClockUpdate+0x6c>)
 80002d6:	4917      	ldr	r1, [pc, #92]	; (8000334 <SystemCoreClockUpdate+0x74>)
 80002d8:	6892      	ldr	r2, [r2, #8]
  /* HCLK frequency */
  SystemCoreClock >>= tmp;
}
 80002da:	bc10      	pop	{r4}
      SystemCoreClock = HSI_VALUE;
      break;
  }
  /* Compute HCLK frequency --------------------------------------------------*/
  /* Get HCLK prescaler */
  tmp = AHBPrescTable[((RCC->CFGR & RCC_CFGR_HPRE) >> 4)];
 80002dc:	f3c2 1203 	ubfx	r2, r2, #4, #4
 80002e0:	5c8a      	ldrb	r2, [r1, r2]
  /* HCLK frequency */
  SystemCoreClock >>= tmp;
 80002e2:	40d3      	lsrs	r3, r2
 80002e4:	610b      	str	r3, [r1, #16]
}
 80002e6:	4770      	bx	lr
    case 0x08:  /* PLL used as system clock source */

      /* PLL_VCO = (HSE_VALUE or HSI_VALUE / PLL_M) * PLL_N
         SYSCLK = PLL_VCO / PLL_P
         */    
      pllsource = (RCC->PLLCFGR & RCC_PLLCFGR_PLLSRC) >> 22;
 80002e8:	6863      	ldr	r3, [r4, #4]
      pllm = RCC->PLLCFGR & RCC_PLLCFGR_PLLM;
 80002ea:	6861      	ldr	r1, [r4, #4]
      
      if (pllsource != 0)
 80002ec:	025b      	lsls	r3, r3, #9

      /* PLL_VCO = (HSE_VALUE or HSI_VALUE / PLL_M) * PLL_N
         SYSCLK = PLL_VCO / PLL_P
         */    
      pllsource = (RCC->PLLCFGR & RCC_PLLCFGR_PLLSRC) >> 22;
      pllm = RCC->PLLCFGR & RCC_PLLCFGR_PLLM;
 80002ee:	f001 023f 	and.w	r2, r1, #63	; 0x3f
      
      if (pllsource != 0)
 80002f2:	d412      	bmi.n	800031a <SystemCoreClockUpdate+0x5a>
        pllvco = (HSE_VALUE / pllm) * ((RCC->PLLCFGR & RCC_PLLCFGR_PLLN) >> 6);
      }
      else
      {
        /* HSI used as PLL clock source */
        pllvco = (HSI_VALUE / pllm) * ((RCC->PLLCFGR & RCC_PLLCFGR_PLLN) >> 6);      
 80002f4:	490e      	ldr	r1, [pc, #56]	; (8000330 <SystemCoreClockUpdate+0x70>)
 80002f6:	6863      	ldr	r3, [r4, #4]
 80002f8:	fbb1 f1f2 	udiv	r1, r1, r2
 80002fc:	f3c3 1388 	ubfx	r3, r3, #6, #9
 8000300:	fb01 f203 	mul.w	r2, r1, r3
      }

      pllp = (((RCC->PLLCFGR & RCC_PLLCFGR_PLLP) >>16) + 1 ) *2;
 8000304:	4b09      	ldr	r3, [pc, #36]	; (800032c <SystemCoreClockUpdate+0x6c>)
 8000306:	685b      	ldr	r3, [r3, #4]
      SystemCoreClock = pllvco/pllp;
 8000308:	f3c3 4301 	ubfx	r3, r3, #16, #2
 800030c:	3301      	adds	r3, #1
 800030e:	005b      	lsls	r3, r3, #1
 8000310:	fbb2 f3f3 	udiv	r3, r2, r3
      break;
 8000314:	e7de      	b.n	80002d4 <SystemCoreClockUpdate+0x14>
    case 0x00:  /* HSI used as system clock source */
      SystemCoreClock = HSI_VALUE;
      break;
    case 0x04:  /* HSE used as system clock source */
      SystemCoreClock = HSE_VALUE;
      break;
 8000316:	4b08      	ldr	r3, [pc, #32]	; (8000338 <SystemCoreClockUpdate+0x78>)
 8000318:	e7dc      	b.n	80002d4 <SystemCoreClockUpdate+0x14>
      pllm = RCC->PLLCFGR & RCC_PLLCFGR_PLLM;
      
      if (pllsource != 0)
      {
        /* HSE used as PLL clock source */
        pllvco = (HSE_VALUE / pllm) * ((RCC->PLLCFGR & RCC_PLLCFGR_PLLN) >> 6);
 800031a:	4807      	ldr	r0, [pc, #28]	; (8000338 <SystemCoreClockUpdate+0x78>)
 800031c:	6863      	ldr	r3, [r4, #4]
 800031e:	fbb0 f1f2 	udiv	r1, r0, r2
 8000322:	f3c3 1388 	ubfx	r3, r3, #6, #9
 8000326:	fb01 f203 	mul.w	r2, r1, r3
 800032a:	e7eb      	b.n	8000304 <SystemCoreClockUpdate+0x44>
 800032c:	40023800 	.word	0x40023800
 8000330:	00f42400 	.word	0x00f42400
 8000334:	20000000 	.word	0x20000000
 8000338:	016e3600 	.word	0x016e3600

0800033c <TaskSatGradientTrack>:
**return: none
**autor:  andiman
**date:
************************************************************/
static  void  TaskSatGradientTrack(void *p_arg)
{
 800033c:	4c09      	ldr	r4, [pc, #36]	; (8000364 <TaskSatGradientTrack+0x28>)
 800033e:	b508      	push	{r3, lr}


    Task_Run_Flag[1] = 1;
    while (DEF_TRUE) 
    {         
        if( ACUDevInfo.ACUParam.SeekSatParam.SeekSat_Mode == 0x03)
 8000340:	4626      	mov	r6, r4
static  void  TaskSatGradientTrack(void *p_arg)
{
    OS_ERR err;


    Task_Run_Flag[1] = 1;
 8000342:	4b09      	ldr	r3, [pc, #36]	; (8000368 <TaskSatGradientTrack+0x2c>)
 8000344:	2201      	movs	r2, #1
 8000346:	705a      	strb	r2, [r3, #1]
    {         
        if( ACUDevInfo.ACUParam.SeekSatParam.SeekSat_Mode == 0x03)
        {
            //if(APP_Sat_GradientTrack() == FAIL)
            {
                ACUDevInfo.ACUParam.SeekSatParam.SeekSat_Mode = 0x00;
 8000348:	2500      	movs	r5, #0


    Task_Run_Flag[1] = 1;
    while (DEF_TRUE) 
    {         
        if( ACUDevInfo.ACUParam.SeekSatParam.SeekSat_Mode == 0x03)
 800034a:	f894 31dc 	ldrb.w	r3, [r4, #476]	; 0x1dc
                ACUDevInfo.ACUCurrSta.dev_work_sta = 0x00;

                //APP_OptLOG_SaveCode(LOG_OPT_FOLLOW_STAR_END_BY_ACU);
            }
        }
        BSP_Delay_ms(50);
 800034e:	2032      	movs	r0, #50	; 0x32


    Task_Run_Flag[1] = 1;
    while (DEF_TRUE) 
    {         
        if( ACUDevInfo.ACUParam.SeekSatParam.SeekSat_Mode == 0x03)
 8000350:	2b03      	cmp	r3, #3
        {
            //if(APP_Sat_GradientTrack() == FAIL)
            {
                ACUDevInfo.ACUParam.SeekSatParam.SeekSat_Mode = 0x00;
 8000352:	bf04      	itt	eq
 8000354:	f886 51dc 	strbeq.w	r5, [r6, #476]	; 0x1dc
                ACUDevInfo.ACUCurrSta.dev_work_sta = 0x00;
 8000358:	f886 527d 	strbeq.w	r5, [r6, #637]	; 0x27d

                //APP_OptLOG_SaveCode(LOG_OPT_FOLLOW_STAR_END_BY_ACU);
            }
        }
        BSP_Delay_ms(50);
 800035c:	f000 fc1c 	bl	8000b98 <BSP_Delay_ms>
    }
 8000360:	e7f3      	b.n	800034a <TaskSatGradientTrack+0xe>
 8000362:	bf00      	nop
 8000364:	20004d00 	.word	0x20004d00
 8000368:	20007124 	.word	0x20007124

0800036c <TaskStart>:
*                  used.  The compiler should not generate any code for this statement.
*********************************************************************************************************
*/

static  void  TaskStart (void *p_arg)
{
 800036c:	b570      	push	{r4, r5, r6, lr}
 800036e:	b08c      	sub	sp, #48	; 0x30
	INT32U period_ms1 = 100,period_ms2,period_cnt1=0,period_cnt2=0;
	INT16U delay_ms;

	(void)p_arg;

	CPU_Init();                                                 /* Init CPU name & int. dis. time measuring fncts.          */	
 8000370:	f001 fc86 	bl	8001c80 <CPU_Init>
	Mem_Init();                                                 /* Initialize Memory managment                              */
 8000374:	f001 ff2e 	bl	80021d4 <Mem_Init>
	BSP_CPU_TickInit();                                         /* Start Tick Initialization                                */
 8000378:	f000 f92a 	bl	80005d0 <BSP_CPU_TickInit>
	                                                /* Init BSP fncts.                                          */
	
	 ACUDevInfo.ACUCurrSta.dev_work_sta = 0xFF;                                               
 800037c:	4b1c      	ldr	r3, [pc, #112]	; (80003f0 <TaskStart+0x84>)
 800037e:	22ff      	movs	r2, #255	; 0xff
 8000380:	f883 227d 	strb.w	r2, [r3, #637]	; 0x27d
	BSP_Init(); 
 8000384:	f000 f8ee 	bl	8000564 <BSP_Init>
	

	APP_Shell_Init(); 
 8000388:	f000 f8d8 	bl	800053c <APP_Shell_Init>
	//APP_ElecEncoder_Init();	
	//APP_PARAM_Init();
	
	//APP_PCCOMM_Init();
	
	BSP_Delay_ms(500);
 800038c:	f44f 70fa 	mov.w	r0, #500	; 0x1f4
 8000390:	f000 fc02 	bl	8000b98 <BSP_Delay_ms>
                 (void       *) 0,
                 (OS_OPT      )(OS_OPT_TASK_STK_CHK | OS_OPT_TASK_STK_CLR),
                 (OS_ERR     *)&err); 
#endif
                 
        OSTaskCreate((OS_TCB     *)&TaskShellTCB,                /* Create the start task                                    */
 8000394:	4e17      	ldr	r6, [pc, #92]	; (80003f4 <TaskStart+0x88>)
	
	//APP_PCCOMM_Init();
	
	BSP_Delay_ms(500);

 	LWIP_Init();
 8000396:	f003 f993 	bl	80036c0 <LWIP_Init>
	
    //APP_TRACE_INFO(("Creating Application Tasks... \n\r"));
	
	
	
	udpecho_init();
 800039a:	f00b fa53 	bl	800b844 <udpecho_init>

 	//APP_PDUCOMM_Init();
 	//APP_PDUCOMM_VersionQue();
 	BSP_Delay_ms(100);
 800039e:	2064      	movs	r0, #100	; 0x64
 80003a0:	f000 fbfa 	bl	8000b98 <BSP_Delay_ms>
                 (void       *) 0,
                 (OS_OPT      )(OS_OPT_TASK_STK_CHK | OS_OPT_TASK_STK_CLR),
                 (OS_ERR     *)&err); 
#endif
                 
        OSTaskCreate((OS_TCB     *)&TaskShellTCB,                /* Create the start task                                    */
 80003a4:	f10d 052e 	add.w	r5, sp, #46	; 0x2e
 80003a8:	2300      	movs	r3, #0
 80003aa:	f44f 7040 	mov.w	r0, #768	; 0x300
 80003ae:	214c      	movs	r1, #76	; 0x4c
 80003b0:	2207      	movs	r2, #7
 80003b2:	2403      	movs	r4, #3
 80003b4:	9003      	str	r0, [sp, #12]
 80003b6:	9102      	str	r1, [sp, #8]
 80003b8:	9200      	str	r2, [sp, #0]
 80003ba:	9601      	str	r6, [sp, #4]
 80003bc:	9508      	str	r5, [sp, #32]
 80003be:	9407      	str	r4, [sp, #28]
 80003c0:	9306      	str	r3, [sp, #24]
 80003c2:	9305      	str	r3, [sp, #20]
 80003c4:	9304      	str	r3, [sp, #16]
 80003c6:	4a0c      	ldr	r2, [pc, #48]	; (80003f8 <TaskStart+0x8c>)
 80003c8:	490c      	ldr	r1, [pc, #48]	; (80003fc <TaskStart+0x90>)
 80003ca:	480d      	ldr	r0, [pc, #52]	; (8000400 <TaskStart+0x94>)
 80003cc:	f006 fe1e 	bl	800700c <OSTaskCreate>
  	//从时钟芯片 获取时间，随后在本任务中自动计时
	//DATETIME_ReadFromRtcIC(&ACUDevInfo.SysDateTime);
	while (DEF_TRUE) 
	{     
		//HW_WTD_Feed();
		HW_LED1_ON();
 80003d0:	f001 fe48 	bl	8002064 <HW_LED1_ON>
		HW_LED2_ON();
 80003d4:	f001 fe4c 	bl	8002070 <HW_LED2_ON>
		BSP_Delay_ms(250);
 80003d8:	20fa      	movs	r0, #250	; 0xfa
 80003da:	f000 fbdd 	bl	8000b98 <BSP_Delay_ms>
		HW_LED1_OFF();
 80003de:	f001 fe35 	bl	800204c <HW_LED1_OFF>
		HW_LED2_OFF();
 80003e2:	f001 fe39 	bl	8002058 <HW_LED2_OFF>
		BSP_Delay_ms(250);
 80003e6:	20fa      	movs	r0, #250	; 0xfa
 80003e8:	f000 fbd6 	bl	8000b98 <BSP_Delay_ms>
 80003ec:	e7f0      	b.n	80003d0 <TaskStart+0x64>
 80003ee:	bf00      	nop
 80003f0:	20004d00 	.word	0x20004d00
 80003f4:	20005014 	.word	0x20005014
 80003f8:	08000405 	.word	0x08000405
 80003fc:	08016228 	.word	0x08016228
 8000400:	20005e60 	.word	0x20005e60

08000404 <TaskShell>:
**return: none
**autor:  andiman
**date:
************************************************************/
static  void  TaskShell(void *p_arg)
{
 8000404:	b508      	push	{r3, lr}
    while (DEF_TRUE) 
    {         
        //if(BSP_OS_Sem_Pend(&SWIFT_UART6_Rev_Sem, 0) == SUCC)
        {
            //shell_proc();
			cli_loop();
 8000406:	f000 fd53 	bl	8000eb0 <cli_loop>
 800040a:	e7fc      	b.n	8000406 <TaskShell+0x2>

0800040c <TaskSatelliteTrack>:
**return: none
**autor:  andiman
**date:
************************************************************/
static  void  TaskSatelliteTrack(void *p_arg)
{
 800040c:	b5f0      	push	{r4, r5, r6, r7, lr}
 800040e:	4d0c      	ldr	r5, [pc, #48]	; (8000440 <TaskSatelliteTrack+0x34>)
    OS_ERR err;


    Task_Run_Flag[0] = 1;
 8000410:	4e0c      	ldr	r6, [pc, #48]	; (8000444 <TaskSatelliteTrack+0x38>)
    while (DEF_TRUE) 
    {         
        if( ACUDevInfo.ACUParam.SeekSatParam.SeekSat_Mode == 0x02)
 8000412:	462f      	mov	r7, r5
**return: none
**autor:  andiman
**date:
************************************************************/
static  void  TaskSatelliteTrack(void *p_arg)
{
 8000414:	b083      	sub	sp, #12
    {         
        if( ACUDevInfo.ACUParam.SeekSatParam.SeekSat_Mode == 0x02)
        {
            //if( APP_Satellite_Track_Start() == FAIL)
            {
                ACUDevInfo.ACUParam.SeekSatParam.SeekSat_Mode = 0x00;
 8000416:	2400      	movs	r4, #0


    Task_Run_Flag[0] = 1;
    while (DEF_TRUE) 
    {         
        if( ACUDevInfo.ACUParam.SeekSatParam.SeekSat_Mode == 0x02)
 8000418:	f895 31dc 	ldrb.w	r3, [r5, #476]	; 0x1dc
        }
        Task_Run_Flag[0] = 0;

        //if(Antenna_AllDriveEnd() == FAIL)
        //    Antenna_AllDriveEnd();
        OSTaskDel ((OS_TCB  *)0,&err);
 800041c:	f10d 0106 	add.w	r1, sp, #6


    Task_Run_Flag[0] = 1;
    while (DEF_TRUE) 
    {         
        if( ACUDevInfo.ACUParam.SeekSatParam.SeekSat_Mode == 0x02)
 8000420:	2b02      	cmp	r3, #2
        }
        Task_Run_Flag[0] = 0;

        //if(Antenna_AllDriveEnd() == FAIL)
        //    Antenna_AllDriveEnd();
        OSTaskDel ((OS_TCB  *)0,&err);
 8000422:	f04f 0000 	mov.w	r0, #0
    {         
        if( ACUDevInfo.ACUParam.SeekSatParam.SeekSat_Mode == 0x02)
        {
            //if( APP_Satellite_Track_Start() == FAIL)
            {
                ACUDevInfo.ACUParam.SeekSatParam.SeekSat_Mode = 0x00;
 8000426:	bf04      	itt	eq
 8000428:	f887 41dc 	strbeq.w	r4, [r7, #476]	; 0x1dc
                ACUDevInfo.ACUCurrSta.dev_work_sta = 0x00;
 800042c:	f887 427d 	strbeq.w	r4, [r7, #637]	; 0x27d
            //else
            {
                //APP_OptLOG_SaveCode(LOG_OPT_AUTO_AIM_STAR_END_BY_ACU_LOCK);
            }
        }
        Task_Run_Flag[0] = 0;
 8000430:	7034      	strb	r4, [r6, #0]

        //if(Antenna_AllDriveEnd() == FAIL)
        //    Antenna_AllDriveEnd();
        OSTaskDel ((OS_TCB  *)0,&err);
 8000432:	f006 ff2d 	bl	8007290 <OSTaskDel>
        BSP_Delay_ms(50);
 8000436:	2032      	movs	r0, #50	; 0x32
 8000438:	f000 fbae 	bl	8000b98 <BSP_Delay_ms>
    }
 800043c:	e7ec      	b.n	8000418 <TaskSatelliteTrack+0xc>
 800043e:	bf00      	nop
 8000440:	20004d00 	.word	0x20004d00
 8000444:	20007124 	.word	0x20007124

08000448 <TaskSatelliteTrackDel>:
*
* Note(s)     : none.
*********************************************************************************************************
*/
void  TaskSatelliteTrackDel (void)
{
 8000448:	b500      	push	{lr}
    OS_ERR err;

    Task_Run_Flag[0] = 0;
 800044a:	4b06      	ldr	r3, [pc, #24]	; (8000464 <TaskSatelliteTrackDel+0x1c>)
*
* Note(s)     : none.
*********************************************************************************************************
*/
void  TaskSatelliteTrackDel (void)
{
 800044c:	b083      	sub	sp, #12
    OS_ERR err;

    Task_Run_Flag[0] = 0;
 800044e:	2200      	movs	r2, #0
    OSTaskDel ((OS_TCB  *)&TaskSatelliteTrackTCB,&err);
 8000450:	f10d 0106 	add.w	r1, sp, #6
 8000454:	4804      	ldr	r0, [pc, #16]	; (8000468 <TaskSatelliteTrackDel+0x20>)
*/
void  TaskSatelliteTrackDel (void)
{
    OS_ERR err;

    Task_Run_Flag[0] = 0;
 8000456:	701a      	strb	r2, [r3, #0]
    OSTaskDel ((OS_TCB  *)&TaskSatelliteTrackTCB,&err);
 8000458:	f006 ff1a 	bl	8007290 <OSTaskDel>
    
}
 800045c:	b003      	add	sp, #12
 800045e:	f85d fb04 	ldr.w	pc, [sp], #4
 8000462:	bf00      	nop
 8000464:	20007124 	.word	0x20007124
 8000468:	20005c14 	.word	0x20005c14

0800046c <TaskSatelliteTrackCreate>:
*
* Note(s)     : none.
*********************************************************************************************************
*/
void  TaskSatelliteTrackCreate(void)
{
 800046c:	b570      	push	{r4, r5, r6, lr}
    OS_ERR err;
    OSTaskCreate((OS_TCB     *)&TaskSatelliteTrackTCB,                /* Create the start task                                    */
 800046e:	4e0d      	ldr	r6, [pc, #52]	; (80004a4 <TaskSatelliteTrackCreate+0x38>)
*
* Note(s)     : none.
*********************************************************************************************************
*/
void  TaskSatelliteTrackCreate(void)
{
 8000470:	b08c      	sub	sp, #48	; 0x30
    OS_ERR err;
    OSTaskCreate((OS_TCB     *)&TaskSatelliteTrackTCB,                /* Create the start task                                    */
 8000472:	2300      	movs	r3, #0
 8000474:	f10d 052e 	add.w	r5, sp, #46	; 0x2e
 8000478:	2403      	movs	r4, #3
 800047a:	f44f 7000 	mov.w	r0, #512	; 0x200
 800047e:	2133      	movs	r1, #51	; 0x33
 8000480:	221e      	movs	r2, #30
 8000482:	9003      	str	r0, [sp, #12]
 8000484:	9102      	str	r1, [sp, #8]
 8000486:	9200      	str	r2, [sp, #0]
 8000488:	9601      	str	r6, [sp, #4]
 800048a:	9508      	str	r5, [sp, #32]
 800048c:	9407      	str	r4, [sp, #28]
 800048e:	9306      	str	r3, [sp, #24]
 8000490:	9305      	str	r3, [sp, #20]
 8000492:	9304      	str	r3, [sp, #16]
 8000494:	4a04      	ldr	r2, [pc, #16]	; (80004a8 <TaskSatelliteTrackCreate+0x3c>)
 8000496:	4905      	ldr	r1, [pc, #20]	; (80004ac <TaskSatelliteTrackCreate+0x40>)
 8000498:	4805      	ldr	r0, [pc, #20]	; (80004b0 <TaskSatelliteTrackCreate+0x44>)
 800049a:	f006 fdb7 	bl	800700c <OSTaskCreate>
                 (OS_MSG_QTY  ) 0,
                 (OS_TICK     ) 0,
                 (void       *) 0,
                 (OS_OPT      )(OS_OPT_TASK_STK_CHK | OS_OPT_TASK_STK_CLR),
                 (OS_ERR     *)&err);     
}
 800049e:	b00c      	add	sp, #48	; 0x30
 80004a0:	bd70      	pop	{r4, r5, r6, pc}
 80004a2:	bf00      	nop
 80004a4:	2000aa00 	.word	0x2000aa00
 80004a8:	0800040d 	.word	0x0800040d
 80004ac:	08016240 	.word	0x08016240
 80004b0:	20005c14 	.word	0x20005c14

080004b4 <TaskAntennaRecordGotoDel>:
*/
void  TaskAntennaRecordGotoDel (void)
{
    OS_ERR err;

    Task_Run_Flag[2] = 0;
 80004b4:	4b01      	ldr	r3, [pc, #4]	; (80004bc <TaskAntennaRecordGotoDel+0x8>)
 80004b6:	2200      	movs	r2, #0
 80004b8:	709a      	strb	r2, [r3, #2]
 80004ba:	4770      	bx	lr
 80004bc:	20007124 	.word	0x20007124

080004c0 <TaskAntennaRecordGotoCreate>:
*/
void  TaskAntennaRecordGotoCreate(void)
{
    OS_ERR err;

    Task_Run_Flag[2] = 1;
 80004c0:	4b01      	ldr	r3, [pc, #4]	; (80004c8 <TaskAntennaRecordGotoCreate+0x8>)
 80004c2:	2201      	movs	r2, #1
 80004c4:	709a      	strb	r2, [r3, #2]
 80004c6:	4770      	bx	lr
 80004c8:	20007124 	.word	0x20007124

080004cc <TaskSatGradientTrackDel>:
*
* Note(s)     : none.
*********************************************************************************************************
*/
void  TaskSatGradientTrackDel (void)
{
 80004cc:	b500      	push	{lr}
    OS_ERR err;
    Task_Run_Flag[1] = 0;
 80004ce:	4b06      	ldr	r3, [pc, #24]	; (80004e8 <TaskSatGradientTrackDel+0x1c>)
*
* Note(s)     : none.
*********************************************************************************************************
*/
void  TaskSatGradientTrackDel (void)
{
 80004d0:	b083      	sub	sp, #12
    OS_ERR err;
    Task_Run_Flag[1] = 0;
 80004d2:	2200      	movs	r2, #0
    OSTaskDel ((OS_TCB  *)&TaskSatGradientTrackTCB,&err);
 80004d4:	f10d 0106 	add.w	r1, sp, #6
 80004d8:	4804      	ldr	r0, [pc, #16]	; (80004ec <TaskSatGradientTrackDel+0x20>)
*********************************************************************************************************
*/
void  TaskSatGradientTrackDel (void)
{
    OS_ERR err;
    Task_Run_Flag[1] = 0;
 80004da:	705a      	strb	r2, [r3, #1]
    OSTaskDel ((OS_TCB  *)&TaskSatGradientTrackTCB,&err);
 80004dc:	f006 fed8 	bl	8007290 <OSTaskDel>
}
 80004e0:	b003      	add	sp, #12
 80004e2:	f85d fb04 	ldr.w	pc, [sp], #4
 80004e6:	bf00      	nop
 80004e8:	20007124 	.word	0x20007124
 80004ec:	2000a53c 	.word	0x2000a53c

080004f0 <TaskSatGradientTrackCreate>:
*
* Note(s)     : none.
*********************************************************************************************************
*/
void  TaskSatGradientTrackCreate(void)
{
 80004f0:	b570      	push	{r4, r5, r6, lr}
    OS_ERR err;
    OSTaskCreate((OS_TCB     *)&TaskSatGradientTrackTCB,                /* Create the start task                                    */
 80004f2:	4e0d      	ldr	r6, [pc, #52]	; (8000528 <TaskSatGradientTrackCreate+0x38>)
*
* Note(s)     : none.
*********************************************************************************************************
*/
void  TaskSatGradientTrackCreate(void)
{
 80004f4:	b08c      	sub	sp, #48	; 0x30
    OS_ERR err;
    OSTaskCreate((OS_TCB     *)&TaskSatGradientTrackTCB,                /* Create the start task                                    */
 80004f6:	2300      	movs	r3, #0
 80004f8:	f10d 052e 	add.w	r5, sp, #46	; 0x2e
 80004fc:	2403      	movs	r4, #3
 80004fe:	f44f 7000 	mov.w	r0, #512	; 0x200
 8000502:	2133      	movs	r1, #51	; 0x33
 8000504:	2220      	movs	r2, #32
 8000506:	9003      	str	r0, [sp, #12]
 8000508:	9102      	str	r1, [sp, #8]
 800050a:	9200      	str	r2, [sp, #0]
 800050c:	9601      	str	r6, [sp, #4]
 800050e:	9508      	str	r5, [sp, #32]
 8000510:	9407      	str	r4, [sp, #28]
 8000512:	9306      	str	r3, [sp, #24]
 8000514:	9305      	str	r3, [sp, #20]
 8000516:	9304      	str	r3, [sp, #16]
 8000518:	4a04      	ldr	r2, [pc, #16]	; (800052c <TaskSatGradientTrackCreate+0x3c>)
 800051a:	4905      	ldr	r1, [pc, #20]	; (8000530 <TaskSatGradientTrackCreate+0x40>)
 800051c:	4805      	ldr	r0, [pc, #20]	; (8000534 <TaskSatGradientTrackCreate+0x44>)
 800051e:	f006 fd75 	bl	800700c <OSTaskCreate>
                 (OS_MSG_QTY  ) 0,
                 (OS_TICK     ) 0,
                 (void       *) 0,
                 (OS_OPT      )(OS_OPT_TASK_STK_CHK | OS_OPT_TASK_STK_CLR),
                 (OS_ERR     *)&err);     
}
 8000522:	b00c      	add	sp, #48	; 0x30
 8000524:	bd70      	pop	{r4, r5, r6, pc}
 8000526:	bf00      	nop
 8000528:	20005f24 	.word	0x20005f24
 800052c:	0800033d 	.word	0x0800033d
 8000530:	08016254 	.word	0x08016254
 8000534:	2000a53c 	.word	0x2000a53c

08000538 <AppObjCreate>:
}



void    AppObjCreate(void)
{
 8000538:	4770      	bx	lr
 800053a:	bf00      	nop

0800053c <APP_Shell_Init>:
**return:  FAIL:   SUCC
**autor:  andiman
**date:
************************************************************/
int APP_Shell_Init(void)
{
 800053c:	b508      	push	{r3, lr}
	// 对应的串口驱动初始化
	SWIFT_UART6_Init(115200);
 800053e:	f44f 30e1 	mov.w	r0, #115200	; 0x1c200
 8000542:	f001 fcc5 	bl	8001ed0 <SWIFT_UART6_Init>

	cmd_help_init();
 8000546:	f000 fe73 	bl	8001230 <cmd_help_init>
	cmd_ver_init();
 800054a:	f000 ff0f 	bl	800136c <cmd_ver_init>
	cmd_d_init();
 800054e:	f000 fe3f 	bl	80011d0 <cmd_d_init>
	cmd_m_init();
 8000552:	f000 fead 	bl	80012b0 <cmd_m_init>
	cmd_reset_init();
 8000556:	f000 fecd 	bl	80012f4 <cmd_reset_init>

	cli_init();
 800055a:	f000 fcab 	bl	8000eb4 <cli_init>
	
	return SUCC;
}
 800055e:	2000      	movs	r0, #0
 8000560:	bd08      	pop	{r3, pc}
 8000562:	bf00      	nop

08000564 <BSP_Init>:
*                       requirements.
*********************************************************************************************************
*/

void  BSP_Init (void)
{
 8000564:	b508      	push	{r3, lr}
	INT8U readbuff[10]={0};
	
	BSP_IntInit();
 8000566:	f000 fba5 	bl	8000cb4 <BSP_IntInit>
	//HW_EEPROM_Init();

	//APP_BUZZER_Init();

	//APP_BEACON_Init();
}
 800056a:	e8bd 4008 	ldmia.w	sp!, {r3, lr}
{
	INT8U readbuff[10]={0};
	
	BSP_IntInit();

	HW_LED_Init();
 800056e:	f001 bd57 	b.w	8002020 <HW_LED_Init>
 8000572:	bf00      	nop

08000574 <BSP_RNG_Read>:
CPU_INT32U  BSP_RNG_Read (void)
{
    CPU_INT32U  rng_val;


    RCC_AHB2PeriphClockCmd(RCC_AHB2Periph_RNG, ENABLE);         /* Enable RNG clock.                                    */
 8000574:	2101      	movs	r1, #1
* Note(s)     : none.
*********************************************************************************************************
*/

CPU_INT32U  BSP_RNG_Read (void)
{
 8000576:	b510      	push	{r4, lr}
    CPU_INT32U  rng_val;


    RCC_AHB2PeriphClockCmd(RCC_AHB2Periph_RNG, ENABLE);         /* Enable RNG clock.                                    */
 8000578:	2040      	movs	r0, #64	; 0x40
 800057a:	f008 fc53 	bl	8008e24 <RCC_AHB2PeriphClockCmd>

    RNG_REG->CR |= RNG_CR_IE;                                   /* Enable RNG ISR.                                      */
 800057e:	4b0e      	ldr	r3, [pc, #56]	; (80005b8 <BSP_RNG_Read+0x44>)
    RNG_REG->CR |= RNG_CR_RNGEN;                                /* Enable LFSR & err detector.                          */

    while ((RNG_REG->SR & RNG_SR_DRDY) == 0) {
 8000580:	4619      	mov	r1, r3
    CPU_INT32U  rng_val;


    RCC_AHB2PeriphClockCmd(RCC_AHB2Periph_RNG, ENABLE);         /* Enable RNG clock.                                    */

    RNG_REG->CR |= RNG_CR_IE;                                   /* Enable RNG ISR.                                      */
 8000582:	681a      	ldr	r2, [r3, #0]
 8000584:	f042 0208 	orr.w	r2, r2, #8
 8000588:	601a      	str	r2, [r3, #0]
    RNG_REG->CR |= RNG_CR_RNGEN;                                /* Enable LFSR & err detector.                          */
 800058a:	681a      	ldr	r2, [r3, #0]
 800058c:	f042 0204 	orr.w	r2, r2, #4
 8000590:	601a      	str	r2, [r3, #0]

    while ((RNG_REG->SR & RNG_SR_DRDY) == 0) {
 8000592:	684b      	ldr	r3, [r1, #4]
 8000594:	4a08      	ldr	r2, [pc, #32]	; (80005b8 <BSP_RNG_Read+0x44>)
 8000596:	07db      	lsls	r3, r3, #31
 8000598:	d5fb      	bpl.n	8000592 <BSP_RNG_Read+0x1e>
            ;
    }
    rng_val = (CPU_INT32U)RNG_REG->DR;                          /* Save RNG data reg.                                   */
 800059a:	6894      	ldr	r4, [r2, #8]

    RNG_REG->CR &= ~RNG_CR_IE;                                  /* Disable RNG ISR.                                     */
 800059c:	6813      	ldr	r3, [r2, #0]
    RNG_REG->CR &= ~RNG_CR_RNGEN;                               /* Disable LFSR & err detector.                         */
    RCC_AHB2PeriphClockCmd(RCC_AHB2Periph_RNG, DISABLE);        /* Disable RNG clock.                                   */
 800059e:	2100      	movs	r1, #0
    while ((RNG_REG->SR & RNG_SR_DRDY) == 0) {
            ;
    }
    rng_val = (CPU_INT32U)RNG_REG->DR;                          /* Save RNG data reg.                                   */

    RNG_REG->CR &= ~RNG_CR_IE;                                  /* Disable RNG ISR.                                     */
 80005a0:	f023 0308 	bic.w	r3, r3, #8
 80005a4:	6013      	str	r3, [r2, #0]
    RNG_REG->CR &= ~RNG_CR_RNGEN;                               /* Disable LFSR & err detector.                         */
 80005a6:	6813      	ldr	r3, [r2, #0]
    RCC_AHB2PeriphClockCmd(RCC_AHB2Periph_RNG, DISABLE);        /* Disable RNG clock.                                   */
 80005a8:	2040      	movs	r0, #64	; 0x40
            ;
    }
    rng_val = (CPU_INT32U)RNG_REG->DR;                          /* Save RNG data reg.                                   */

    RNG_REG->CR &= ~RNG_CR_IE;                                  /* Disable RNG ISR.                                     */
    RNG_REG->CR &= ~RNG_CR_RNGEN;                               /* Disable LFSR & err detector.                         */
 80005aa:	f023 0304 	bic.w	r3, r3, #4
 80005ae:	6013      	str	r3, [r2, #0]
    RCC_AHB2PeriphClockCmd(RCC_AHB2Periph_RNG, DISABLE);        /* Disable RNG clock.                                   */
 80005b0:	f008 fc38 	bl	8008e24 <RCC_AHB2PeriphClockCmd>

    return (rng_val);                                           /* Return rand value.                                   */
}
 80005b4:	4620      	mov	r0, r4
 80005b6:	bd10      	pop	{r4, pc}
 80005b8:	50060800 	.word	0x50060800

080005bc <BSP_CPU_ClkFreq>:
* Note(s)     : none.
*********************************************************************************************************
*/

CPU_INT32U  BSP_CPU_ClkFreq (void)
{
 80005bc:	b500      	push	{lr}
 80005be:	b085      	sub	sp, #20
    RCC_ClocksTypeDef  rcc_clocks;


    RCC_GetClocksFreq(&rcc_clocks);
 80005c0:	4668      	mov	r0, sp
 80005c2:	f008 fba3 	bl	8008d0c <RCC_GetClocksFreq>
    return ((CPU_INT32U)rcc_clocks.HCLK_Frequency);
}
 80005c6:	9801      	ldr	r0, [sp, #4]
 80005c8:	b005      	add	sp, #20
 80005ca:	f85d fb04 	ldr.w	pc, [sp], #4
 80005ce:	bf00      	nop

080005d0 <BSP_CPU_TickInit>:
* Note(s)     : none.
*********************************************************************************************************
*/

void  BSP_CPU_TickInit  (void)
{
 80005d0:	b500      	push	{lr}
 80005d2:	b085      	sub	sp, #20
CPU_INT32U  BSP_CPU_ClkFreq (void)
{
    RCC_ClocksTypeDef  rcc_clocks;


    RCC_GetClocksFreq(&rcc_clocks);
 80005d4:	4668      	mov	r0, sp
 80005d6:	f008 fb99 	bl	8008d0c <RCC_GetClocksFreq>
    CPU_INT32U  cnts;


    cpu_clk_freq = BSP_CPU_ClkFreq();                           /* Determine SysTick reference freq.                    */
#if (OS_VERSION >= 30000u)
    cnts         = (cpu_clk_freq / OSCfg_TickRate_Hz);          /* Determine nbr SysTick increments                     */
 80005da:	4b05      	ldr	r3, [pc, #20]	; (80005f0 <BSP_CPU_TickInit+0x20>)
{
    RCC_ClocksTypeDef  rcc_clocks;


    RCC_GetClocksFreq(&rcc_clocks);
    return ((CPU_INT32U)rcc_clocks.HCLK_Frequency);
 80005dc:	9801      	ldr	r0, [sp, #4]
#if (OS_VERSION >= 30000u)
    cnts         = (cpu_clk_freq / OSCfg_TickRate_Hz);          /* Determine nbr SysTick increments                     */
#else
    cnts         = (cpu_clk_freq / OS_TICKS_PER_SEC);
#endif
    OS_CPU_SysTickInit(cnts);                                   /* Initialize the SysTick.                            */
 80005de:	681b      	ldr	r3, [r3, #0]
 80005e0:	fbb0 f0f3 	udiv	r0, r0, r3
 80005e4:	f004 fa16 	bl	8004a14 <OS_CPU_SysTickInit>
}
 80005e8:	b005      	add	sp, #20
 80005ea:	f85d fb04 	ldr.w	pc, [sp], #4
 80005ee:	bf00      	nop
 80005f0:	080160cc 	.word	0x080160cc

080005f4 <BSP_PSRAM_Init>:
* Note(s)     : none.
*********************************************************************************************************
*/

void  BSP_PSRAM_Init(void)
{
 80005f4:	e92d 43f0 	stmdb	sp!, {r4, r5, r6, r7, r8, r9, lr}
    GPIO_InitStructure.GPIO_PuPd  = GPIO_PuPd_NOPULL;
    GPIO_InitStructure.GPIO_PuPd  = GPIO_PuPd_UP;

    GPIO_Init(GPIOB, &GPIO_InitStructure);

    GPIO_InitStructure.GPIO_Pin = GPIO_Pin_0  | GPIO_Pin_1  |
 80005f8:	f64f 79fb 	movw	r9, #65531	; 0xfffb

void  BSP_PSRAM_Init(void)
{
    GPIO_InitTypeDef GPIO_InitStructure;

    RCC_AHB3PeriphClockCmd(RCC_AHB3Periph_FSMC, ENABLE);
 80005fc:	2101      	movs	r1, #1
* Note(s)     : none.
*********************************************************************************************************
*/

void  BSP_PSRAM_Init(void)
{
 80005fe:	b083      	sub	sp, #12
    GPIO_InitTypeDef GPIO_InitStructure;

    RCC_AHB3PeriphClockCmd(RCC_AHB3Periph_FSMC, ENABLE);
 8000600:	4608      	mov	r0, r1
    GPIO_InitStructure.GPIO_Speed = GPIO_Speed_50MHz;
    GPIO_InitStructure.GPIO_OType = GPIO_OType_PP;
    GPIO_InitStructure.GPIO_PuPd  = GPIO_PuPd_NOPULL;
    GPIO_InitStructure.GPIO_PuPd  = GPIO_PuPd_UP;

    GPIO_Init(GPIOD, &GPIO_InitStructure);
 8000602:	4da5      	ldr	r5, [pc, #660]	; (8000898 <BSP_PSRAM_Init+0x2a4>)

void  BSP_PSRAM_Init(void)
{
    GPIO_InitTypeDef GPIO_InitStructure;

    RCC_AHB3PeriphClockCmd(RCC_AHB3Periph_FSMC, ENABLE);
 8000604:	f008 fc1c 	bl	8008e40 <RCC_AHB3PeriphClockCmd>
    RCC_AHB1PeriphClockCmd(RCC_AHB1Periph_GPIOB |
 8000608:	2101      	movs	r1, #1
 800060a:	207a      	movs	r0, #122	; 0x7a
 800060c:	f008 fbfc 	bl	8008e08 <RCC_AHB1PeriphClockCmd>


    GPIO_InitStructure.GPIO_Pin   = GPIO_Pin_7;
    GPIO_InitStructure.GPIO_Mode  = GPIO_Mode_AF;
    GPIO_InitStructure.GPIO_Speed = GPIO_Speed_50MHz;
    GPIO_InitStructure.GPIO_OType = GPIO_OType_PP;
 8000610:	2600      	movs	r6, #0
                           RCC_AHB1Periph_GPIOE |
                           RCC_AHB1Periph_GPIOF |
                           RCC_AHB1Periph_GPIOG, ENABLE);


    GPIO_InitStructure.GPIO_Pin   = GPIO_Pin_7;
 8000612:	2380      	movs	r3, #128	; 0x80
    GPIO_InitStructure.GPIO_Mode  = GPIO_Mode_AF;
    GPIO_InitStructure.GPIO_Speed = GPIO_Speed_50MHz;
    GPIO_InitStructure.GPIO_OType = GPIO_OType_PP;
    GPIO_InitStructure.GPIO_PuPd  = GPIO_PuPd_NOPULL;
    GPIO_InitStructure.GPIO_PuPd  = GPIO_PuPd_UP;
 8000614:	f04f 0801 	mov.w	r8, #1
                           RCC_AHB1Periph_GPIOF |
                           RCC_AHB1Periph_GPIOG, ENABLE);


    GPIO_InitStructure.GPIO_Pin   = GPIO_Pin_7;
    GPIO_InitStructure.GPIO_Mode  = GPIO_Mode_AF;
 8000618:	2702      	movs	r7, #2
    GPIO_InitStructure.GPIO_Speed = GPIO_Speed_50MHz;
    GPIO_InitStructure.GPIO_OType = GPIO_OType_PP;
    GPIO_InitStructure.GPIO_PuPd  = GPIO_PuPd_NOPULL;
    GPIO_InitStructure.GPIO_PuPd  = GPIO_PuPd_UP;

    GPIO_Init(GPIOB, &GPIO_InitStructure);
 800061a:	4669      	mov	r1, sp
 800061c:	489f      	ldr	r0, [pc, #636]	; (800089c <BSP_PSRAM_Init+0x2a8>)
                           RCC_AHB1Periph_GPIOE |
                           RCC_AHB1Periph_GPIOF |
                           RCC_AHB1Periph_GPIOG, ENABLE);


    GPIO_InitStructure.GPIO_Pin   = GPIO_Pin_7;
 800061e:	9300      	str	r3, [sp, #0]
    GPIO_InitStructure.GPIO_Mode  = GPIO_Mode_AF;
 8000620:	f88d 7004 	strb.w	r7, [sp, #4]
    GPIO_InitStructure.GPIO_Speed = GPIO_Speed_50MHz;
 8000624:	f88d 7005 	strb.w	r7, [sp, #5]
    GPIO_InitStructure.GPIO_OType = GPIO_OType_PP;
 8000628:	f88d 6006 	strb.w	r6, [sp, #6]
    GPIO_InitStructure.GPIO_PuPd  = GPIO_PuPd_NOPULL;
    GPIO_InitStructure.GPIO_PuPd  = GPIO_PuPd_UP;
 800062c:	f88d 8007 	strb.w	r8, [sp, #7]

    GPIO_Init(GPIOB, &GPIO_InitStructure);
 8000630:	f008 f9f2 	bl	8008a18 <GPIO_Init>
    GPIO_InitStructure.GPIO_Speed = GPIO_Speed_50MHz;
    GPIO_InitStructure.GPIO_OType = GPIO_OType_PP;
    GPIO_InitStructure.GPIO_PuPd  = GPIO_PuPd_NOPULL;
    GPIO_InitStructure.GPIO_PuPd  = GPIO_PuPd_UP;

    GPIO_Init(GPIOD, &GPIO_InitStructure);
 8000634:	4669      	mov	r1, sp
 8000636:	4628      	mov	r0, r5
                                  GPIO_Pin_9  | GPIO_Pin_10 |
                                  GPIO_Pin_11 | GPIO_Pin_12 |
                                  GPIO_Pin_13 | GPIO_Pin_14 |
                                  GPIO_Pin_15;

    GPIO_InitStructure.GPIO_Mode  = GPIO_Mode_AF;
 8000638:	f88d 7004 	strb.w	r7, [sp, #4]
    GPIO_InitStructure.GPIO_Speed = GPIO_Speed_50MHz;
 800063c:	f88d 7005 	strb.w	r7, [sp, #5]
    GPIO_InitStructure.GPIO_OType = GPIO_OType_PP;
 8000640:	f88d 6006 	strb.w	r6, [sp, #6]
    GPIO_InitStructure.GPIO_PuPd  = GPIO_PuPd_NOPULL;
    GPIO_InitStructure.GPIO_PuPd  = GPIO_PuPd_UP;
 8000644:	f88d 8007 	strb.w	r8, [sp, #7]
    GPIO_InitStructure.GPIO_PuPd  = GPIO_PuPd_NOPULL;
    GPIO_InitStructure.GPIO_PuPd  = GPIO_PuPd_UP;

    GPIO_Init(GPIOB, &GPIO_InitStructure);

    GPIO_InitStructure.GPIO_Pin = GPIO_Pin_0  | GPIO_Pin_1  |
 8000648:	f8cd 9000 	str.w	r9, [sp]
    GPIO_InitStructure.GPIO_Speed = GPIO_Speed_50MHz;
    GPIO_InitStructure.GPIO_OType = GPIO_OType_PP;
    GPIO_InitStructure.GPIO_PuPd  = GPIO_PuPd_NOPULL;
    GPIO_InitStructure.GPIO_PuPd  = GPIO_PuPd_UP;

    GPIO_Init(GPIOD, &GPIO_InitStructure);
 800064c:	f008 f9e4 	bl	8008a18 <GPIO_Init>

    GPIO_PinAFConfig(GPIOD, GPIO_PinSource0, GPIO_AF_FSMC);
 8000650:	4631      	mov	r1, r6
 8000652:	4628      	mov	r0, r5
 8000654:	220c      	movs	r2, #12
 8000656:	f008 fa71 	bl	8008b3c <GPIO_PinAFConfig>
    GPIO_PinAFConfig(GPIOD, GPIO_PinSource1, GPIO_AF_FSMC);
 800065a:	4641      	mov	r1, r8
 800065c:	4628      	mov	r0, r5
 800065e:	220c      	movs	r2, #12
 8000660:	f008 fa6c 	bl	8008b3c <GPIO_PinAFConfig>
    GPIO_PinAFConfig(GPIOD, GPIO_PinSource3, GPIO_AF_FSMC);
 8000664:	4628      	mov	r0, r5
 8000666:	220c      	movs	r2, #12
 8000668:	2103      	movs	r1, #3
 800066a:	f008 fa67 	bl	8008b3c <GPIO_PinAFConfig>
    GPIO_PinAFConfig(GPIOD, GPIO_PinSource4, GPIO_AF_FSMC);
 800066e:	4628      	mov	r0, r5
 8000670:	220c      	movs	r2, #12
 8000672:	2104      	movs	r1, #4
 8000674:	f008 fa62 	bl	8008b3c <GPIO_PinAFConfig>
    GPIO_PinAFConfig(GPIOD, GPIO_PinSource5, GPIO_AF_FSMC);
 8000678:	4628      	mov	r0, r5
 800067a:	220c      	movs	r2, #12
 800067c:	2105      	movs	r1, #5
 800067e:	f008 fa5d 	bl	8008b3c <GPIO_PinAFConfig>
    GPIO_PinAFConfig(GPIOD, GPIO_PinSource6, GPIO_AF_FSMC);
 8000682:	4628      	mov	r0, r5
 8000684:	220c      	movs	r2, #12
 8000686:	2106      	movs	r1, #6
 8000688:	f008 fa58 	bl	8008b3c <GPIO_PinAFConfig>
    GPIO_PinAFConfig(GPIOD, GPIO_PinSource7, GPIO_AF_FSMC);
 800068c:	4628      	mov	r0, r5
 800068e:	220c      	movs	r2, #12
 8000690:	2107      	movs	r1, #7
 8000692:	f008 fa53 	bl	8008b3c <GPIO_PinAFConfig>
    GPIO_PinAFConfig(GPIOD, GPIO_PinSource8, GPIO_AF_FSMC);
 8000696:	4628      	mov	r0, r5
 8000698:	220c      	movs	r2, #12
 800069a:	2108      	movs	r1, #8
 800069c:	f008 fa4e 	bl	8008b3c <GPIO_PinAFConfig>
    GPIO_PinAFConfig(GPIOD, GPIO_PinSource9, GPIO_AF_FSMC);
 80006a0:	4628      	mov	r0, r5
 80006a2:	220c      	movs	r2, #12
 80006a4:	2109      	movs	r1, #9
 80006a6:	f008 fa49 	bl	8008b3c <GPIO_PinAFConfig>
    GPIO_PinAFConfig(GPIOD, GPIO_PinSource10, GPIO_AF_FSMC);
 80006aa:	4628      	mov	r0, r5
 80006ac:	220c      	movs	r2, #12
 80006ae:	210a      	movs	r1, #10
 80006b0:	f008 fa44 	bl	8008b3c <GPIO_PinAFConfig>
    GPIO_PinAFConfig(GPIOD, GPIO_PinSource11, GPIO_AF_FSMC);
 80006b4:	4628      	mov	r0, r5
 80006b6:	220c      	movs	r2, #12
 80006b8:	210b      	movs	r1, #11
 80006ba:	f008 fa3f 	bl	8008b3c <GPIO_PinAFConfig>
    GPIO_PinAFConfig(GPIOD, GPIO_PinSource12, GPIO_AF_FSMC);
 80006be:	220c      	movs	r2, #12
 80006c0:	4628      	mov	r0, r5
 80006c2:	4611      	mov	r1, r2
 80006c4:	f008 fa3a 	bl	8008b3c <GPIO_PinAFConfig>
    GPIO_PinAFConfig(GPIOD, GPIO_PinSource13, GPIO_AF_FSMC);
 80006c8:	4628      	mov	r0, r5
 80006ca:	220c      	movs	r2, #12
 80006cc:	210d      	movs	r1, #13
                                  GPIO_Pin_9  | GPIO_Pin_10 |
                                  GPIO_Pin_11 | GPIO_Pin_12 |
                                  GPIO_Pin_13 | GPIO_Pin_14 |
                                  GPIO_Pin_15;

    GPIO_Init(GPIOE, &GPIO_InitStructure);
 80006ce:	4c74      	ldr	r4, [pc, #464]	; (80008a0 <BSP_PSRAM_Init+0x2ac>)
    GPIO_PinAFConfig(GPIOD, GPIO_PinSource8, GPIO_AF_FSMC);
    GPIO_PinAFConfig(GPIOD, GPIO_PinSource9, GPIO_AF_FSMC);
    GPIO_PinAFConfig(GPIOD, GPIO_PinSource10, GPIO_AF_FSMC);
    GPIO_PinAFConfig(GPIOD, GPIO_PinSource11, GPIO_AF_FSMC);
    GPIO_PinAFConfig(GPIOD, GPIO_PinSource12, GPIO_AF_FSMC);
    GPIO_PinAFConfig(GPIOD, GPIO_PinSource13, GPIO_AF_FSMC);
 80006d0:	f008 fa34 	bl	8008b3c <GPIO_PinAFConfig>
    GPIO_PinAFConfig(GPIOD, GPIO_PinSource14, GPIO_AF_FSMC);
 80006d4:	4628      	mov	r0, r5
 80006d6:	220c      	movs	r2, #12
 80006d8:	210e      	movs	r1, #14
 80006da:	f008 fa2f 	bl	8008b3c <GPIO_PinAFConfig>
    GPIO_PinAFConfig(GPIOD, GPIO_PinSource15, GPIO_AF_FSMC);
 80006de:	4628      	mov	r0, r5
 80006e0:	220c      	movs	r2, #12
 80006e2:	210f      	movs	r1, #15
 80006e4:	f008 fa2a 	bl	8008b3c <GPIO_PinAFConfig>
                                  GPIO_Pin_9  | GPIO_Pin_10 |
                                  GPIO_Pin_11 | GPIO_Pin_12 |
                                  GPIO_Pin_13 | GPIO_Pin_14 |
                                  GPIO_Pin_15;

    GPIO_Init(GPIOE, &GPIO_InitStructure);
 80006e8:	4669      	mov	r1, sp
 80006ea:	4620      	mov	r0, r4
    GPIO_PinAFConfig(GPIOD, GPIO_PinSource12, GPIO_AF_FSMC);
    GPIO_PinAFConfig(GPIOD, GPIO_PinSource13, GPIO_AF_FSMC);
    GPIO_PinAFConfig(GPIOD, GPIO_PinSource14, GPIO_AF_FSMC);
    GPIO_PinAFConfig(GPIOD, GPIO_PinSource15, GPIO_AF_FSMC);

    GPIO_InitStructure.GPIO_Pin = GPIO_Pin_0  | GPIO_Pin_1  |
 80006ec:	f8cd 9000 	str.w	r9, [sp]
                                  GPIO_Pin_9  | GPIO_Pin_10 |
                                  GPIO_Pin_11 | GPIO_Pin_12 |
                                  GPIO_Pin_13 | GPIO_Pin_14 |
                                  GPIO_Pin_15;

    GPIO_Init(GPIOE, &GPIO_InitStructure);
 80006f0:	f008 f992 	bl	8008a18 <GPIO_Init>

    GPIO_PinAFConfig(GPIOE, GPIO_PinSource0, GPIO_AF_FSMC);
 80006f4:	4631      	mov	r1, r6
 80006f6:	4620      	mov	r0, r4
 80006f8:	220c      	movs	r2, #12
 80006fa:	f008 fa1f 	bl	8008b3c <GPIO_PinAFConfig>
    GPIO_PinAFConfig(GPIOE, GPIO_PinSource1, GPIO_AF_FSMC);
 80006fe:	4641      	mov	r1, r8
 8000700:	4620      	mov	r0, r4
 8000702:	220c      	movs	r2, #12
 8000704:	f008 fa1a 	bl	8008b3c <GPIO_PinAFConfig>
    GPIO_PinAFConfig(GPIOE, GPIO_PinSource3, GPIO_AF_FSMC);
 8000708:	4620      	mov	r0, r4
 800070a:	220c      	movs	r2, #12
 800070c:	2103      	movs	r1, #3
 800070e:	f008 fa15 	bl	8008b3c <GPIO_PinAFConfig>
    GPIO_PinAFConfig(GPIOE, GPIO_PinSource4, GPIO_AF_FSMC);
 8000712:	4620      	mov	r0, r4
 8000714:	220c      	movs	r2, #12
 8000716:	2104      	movs	r1, #4
 8000718:	f008 fa10 	bl	8008b3c <GPIO_PinAFConfig>
    GPIO_PinAFConfig(GPIOE, GPIO_PinSource5, GPIO_AF_FSMC);
 800071c:	4620      	mov	r0, r4
 800071e:	220c      	movs	r2, #12
 8000720:	2105      	movs	r1, #5
 8000722:	f008 fa0b 	bl	8008b3c <GPIO_PinAFConfig>
    GPIO_PinAFConfig(GPIOE, GPIO_PinSource6, GPIO_AF_FSMC);
 8000726:	4620      	mov	r0, r4
 8000728:	220c      	movs	r2, #12
 800072a:	2106      	movs	r1, #6
 800072c:	f008 fa06 	bl	8008b3c <GPIO_PinAFConfig>
    GPIO_PinAFConfig(GPIOE, GPIO_PinSource7, GPIO_AF_FSMC);
 8000730:	4620      	mov	r0, r4
 8000732:	220c      	movs	r2, #12
 8000734:	2107      	movs	r1, #7
 8000736:	f008 fa01 	bl	8008b3c <GPIO_PinAFConfig>
    GPIO_PinAFConfig(GPIOE, GPIO_PinSource8, GPIO_AF_FSMC);
 800073a:	4620      	mov	r0, r4
 800073c:	220c      	movs	r2, #12
 800073e:	2108      	movs	r1, #8
 8000740:	f008 f9fc 	bl	8008b3c <GPIO_PinAFConfig>
    GPIO_PinAFConfig(GPIOE, GPIO_PinSource9, GPIO_AF_FSMC);
 8000744:	4620      	mov	r0, r4
 8000746:	220c      	movs	r2, #12
 8000748:	2109      	movs	r1, #9
 800074a:	f008 f9f7 	bl	8008b3c <GPIO_PinAFConfig>
    GPIO_PinAFConfig(GPIOE, GPIO_PinSource10, GPIO_AF_FSMC);
 800074e:	4620      	mov	r0, r4
 8000750:	220c      	movs	r2, #12
 8000752:	210a      	movs	r1, #10
 8000754:	f008 f9f2 	bl	8008b3c <GPIO_PinAFConfig>
    GPIO_PinAFConfig(GPIOE, GPIO_PinSource11, GPIO_AF_FSMC);
 8000758:	4620      	mov	r0, r4
 800075a:	220c      	movs	r2, #12
 800075c:	210b      	movs	r1, #11
 800075e:	f008 f9ed 	bl	8008b3c <GPIO_PinAFConfig>
    GPIO_PinAFConfig(GPIOE, GPIO_PinSource12, GPIO_AF_FSMC);
 8000762:	220c      	movs	r2, #12
 8000764:	4620      	mov	r0, r4
 8000766:	4611      	mov	r1, r2
 8000768:	f008 f9e8 	bl	8008b3c <GPIO_PinAFConfig>
    GPIO_PinAFConfig(GPIOE, GPIO_PinSource13, GPIO_AF_FSMC);
 800076c:	4620      	mov	r0, r4
 800076e:	220c      	movs	r2, #12
 8000770:	210d      	movs	r1, #13
 8000772:	f008 f9e3 	bl	8008b3c <GPIO_PinAFConfig>
    GPIO_PinAFConfig(GPIOE, GPIO_PinSource14, GPIO_AF_FSMC);
 8000776:	4620      	mov	r0, r4
 8000778:	220c      	movs	r2, #12
 800077a:	210e      	movs	r1, #14
 800077c:	f008 f9de 	bl	8008b3c <GPIO_PinAFConfig>
    GPIO_PinAFConfig(GPIOE, GPIO_PinSource15, GPIO_AF_FSMC);
 8000780:	4620      	mov	r0, r4
 8000782:	220c      	movs	r2, #12
 8000784:	210f      	movs	r1, #15
 8000786:	f008 f9d9 	bl	8008b3c <GPIO_PinAFConfig>

    GPIO_InitStructure.GPIO_Pin = GPIO_Pin_0  | GPIO_Pin_1  |
 800078a:	f24f 033f 	movw	r3, #61503	; 0xf03f
                                  GPIO_Pin_2  | GPIO_Pin_3  |
                                  GPIO_Pin_4  | GPIO_Pin_5  |
                                  GPIO_Pin_12 | GPIO_Pin_13 |
                                  GPIO_Pin_14 | GPIO_Pin_15;

    GPIO_Init(GPIOF, &GPIO_InitStructure);
 800078e:	f504 6480 	add.w	r4, r4, #1024	; 0x400
 8000792:	4669      	mov	r1, sp
 8000794:	4620      	mov	r0, r4
    GPIO_PinAFConfig(GPIOE, GPIO_PinSource12, GPIO_AF_FSMC);
    GPIO_PinAFConfig(GPIOE, GPIO_PinSource13, GPIO_AF_FSMC);
    GPIO_PinAFConfig(GPIOE, GPIO_PinSource14, GPIO_AF_FSMC);
    GPIO_PinAFConfig(GPIOE, GPIO_PinSource15, GPIO_AF_FSMC);

    GPIO_InitStructure.GPIO_Pin = GPIO_Pin_0  | GPIO_Pin_1  |
 8000796:	9300      	str	r3, [sp, #0]
                                  GPIO_Pin_2  | GPIO_Pin_3  |
                                  GPIO_Pin_4  | GPIO_Pin_5  |
                                  GPIO_Pin_12 | GPIO_Pin_13 |
                                  GPIO_Pin_14 | GPIO_Pin_15;

    GPIO_Init(GPIOF, &GPIO_InitStructure);
 8000798:	f008 f93e 	bl	8008a18 <GPIO_Init>

    GPIO_PinAFConfig(GPIOF, GPIO_PinSource0, GPIO_AF_FSMC);
 800079c:	4631      	mov	r1, r6
 800079e:	4620      	mov	r0, r4
 80007a0:	220c      	movs	r2, #12
 80007a2:	f008 f9cb 	bl	8008b3c <GPIO_PinAFConfig>
    GPIO_PinAFConfig(GPIOF, GPIO_PinSource1, GPIO_AF_FSMC);
 80007a6:	4641      	mov	r1, r8
 80007a8:	4620      	mov	r0, r4
 80007aa:	220c      	movs	r2, #12
 80007ac:	f008 f9c6 	bl	8008b3c <GPIO_PinAFConfig>
    GPIO_PinAFConfig(GPIOF, GPIO_PinSource2, GPIO_AF_FSMC);
 80007b0:	4639      	mov	r1, r7
 80007b2:	4620      	mov	r0, r4
 80007b4:	220c      	movs	r2, #12
 80007b6:	f008 f9c1 	bl	8008b3c <GPIO_PinAFConfig>
    GPIO_PinAFConfig(GPIOF, GPIO_PinSource3, GPIO_AF_FSMC);
 80007ba:	4620      	mov	r0, r4
 80007bc:	220c      	movs	r2, #12
 80007be:	2103      	movs	r1, #3
 80007c0:	f008 f9bc 	bl	8008b3c <GPIO_PinAFConfig>
    GPIO_PinAFConfig(GPIOF, GPIO_PinSource4, GPIO_AF_FSMC);
 80007c4:	4620      	mov	r0, r4
 80007c6:	220c      	movs	r2, #12
 80007c8:	2104      	movs	r1, #4
 80007ca:	f008 f9b7 	bl	8008b3c <GPIO_PinAFConfig>
    GPIO_PinAFConfig(GPIOF, GPIO_PinSource5, GPIO_AF_FSMC);
 80007ce:	4620      	mov	r0, r4
 80007d0:	220c      	movs	r2, #12
 80007d2:	2105      	movs	r1, #5
 80007d4:	f008 f9b2 	bl	8008b3c <GPIO_PinAFConfig>
    GPIO_PinAFConfig(GPIOF, GPIO_PinSource12, GPIO_AF_FSMC);
 80007d8:	220c      	movs	r2, #12
 80007da:	4620      	mov	r0, r4
 80007dc:	4611      	mov	r1, r2
 80007de:	f008 f9ad 	bl	8008b3c <GPIO_PinAFConfig>
    GPIO_PinAFConfig(GPIOF, GPIO_PinSource13, GPIO_AF_FSMC);
 80007e2:	4620      	mov	r0, r4
 80007e4:	220c      	movs	r2, #12
 80007e6:	210d      	movs	r1, #13
 80007e8:	f008 f9a8 	bl	8008b3c <GPIO_PinAFConfig>
    GPIO_PinAFConfig(GPIOF, GPIO_PinSource14, GPIO_AF_FSMC);
 80007ec:	4620      	mov	r0, r4
 80007ee:	220c      	movs	r2, #12
 80007f0:	210e      	movs	r1, #14

    GPIO_InitStructure.GPIO_Pin = GPIO_Pin_0 | GPIO_Pin_1 |
                                  GPIO_Pin_2 | GPIO_Pin_3 |
                                  GPIO_Pin_4 | GPIO_Pin_5;

    GPIO_Init(GPIOG, &GPIO_InitStructure);
 80007f2:	f505 6540 	add.w	r5, r5, #3072	; 0xc00
    GPIO_PinAFConfig(GPIOF, GPIO_PinSource3, GPIO_AF_FSMC);
    GPIO_PinAFConfig(GPIOF, GPIO_PinSource4, GPIO_AF_FSMC);
    GPIO_PinAFConfig(GPIOF, GPIO_PinSource5, GPIO_AF_FSMC);
    GPIO_PinAFConfig(GPIOF, GPIO_PinSource12, GPIO_AF_FSMC);
    GPIO_PinAFConfig(GPIOF, GPIO_PinSource13, GPIO_AF_FSMC);
    GPIO_PinAFConfig(GPIOF, GPIO_PinSource14, GPIO_AF_FSMC);
 80007f6:	f008 f9a1 	bl	8008b3c <GPIO_PinAFConfig>
    GPIO_PinAFConfig(GPIOF, GPIO_PinSource15, GPIO_AF_FSMC);
 80007fa:	4620      	mov	r0, r4
 80007fc:	220c      	movs	r2, #12
 80007fe:	210f      	movs	r1, #15
 8000800:	f008 f99c 	bl	8008b3c <GPIO_PinAFConfig>


    GPIO_InitStructure.GPIO_Pin = GPIO_Pin_0 | GPIO_Pin_1 |
 8000804:	233f      	movs	r3, #63	; 0x3f
                                  GPIO_Pin_2 | GPIO_Pin_3 |
                                  GPIO_Pin_4 | GPIO_Pin_5;

    GPIO_Init(GPIOG, &GPIO_InitStructure);
 8000806:	4669      	mov	r1, sp
 8000808:	4628      	mov	r0, r5
    GPIO_PinAFConfig(GPIOF, GPIO_PinSource13, GPIO_AF_FSMC);
    GPIO_PinAFConfig(GPIOF, GPIO_PinSource14, GPIO_AF_FSMC);
    GPIO_PinAFConfig(GPIOF, GPIO_PinSource15, GPIO_AF_FSMC);


    GPIO_InitStructure.GPIO_Pin = GPIO_Pin_0 | GPIO_Pin_1 |
 800080a:	9300      	str	r3, [sp, #0]
                                  GPIO_Pin_2 | GPIO_Pin_3 |
                                  GPIO_Pin_4 | GPIO_Pin_5;

    GPIO_Init(GPIOG, &GPIO_InitStructure);
 800080c:	f008 f904 	bl	8008a18 <GPIO_Init>

    GPIO_PinAFConfig(GPIOG, GPIO_PinSource0, GPIO_AF_FSMC);
 8000810:	4631      	mov	r1, r6
 8000812:	4628      	mov	r0, r5
 8000814:	220c      	movs	r2, #12
 8000816:	f008 f991 	bl	8008b3c <GPIO_PinAFConfig>
    GPIO_PinAFConfig(GPIOG, GPIO_PinSource1, GPIO_AF_FSMC);
 800081a:	4641      	mov	r1, r8
 800081c:	4628      	mov	r0, r5
 800081e:	220c      	movs	r2, #12
 8000820:	f008 f98c 	bl	8008b3c <GPIO_PinAFConfig>
    GPIO_PinAFConfig(GPIOG, GPIO_PinSource2, GPIO_AF_FSMC);
 8000824:	4639      	mov	r1, r7
 8000826:	4628      	mov	r0, r5
 8000828:	220c      	movs	r2, #12
 800082a:	f008 f987 	bl	8008b3c <GPIO_PinAFConfig>
    GPIO_PinAFConfig(GPIOG, GPIO_PinSource3, GPIO_AF_FSMC);
 800082e:	4628      	mov	r0, r5
 8000830:	220c      	movs	r2, #12
 8000832:	2103      	movs	r1, #3
 8000834:	f008 f982 	bl	8008b3c <GPIO_PinAFConfig>
    GPIO_PinAFConfig(GPIOG, GPIO_PinSource4, GPIO_AF_FSMC);
 8000838:	4628      	mov	r0, r5
 800083a:	220c      	movs	r2, #12
 800083c:	2104      	movs	r1, #4
 800083e:	f008 f97d 	bl	8008b3c <GPIO_PinAFConfig>
    GPIO_PinAFConfig(GPIOG, GPIO_PinSource5, GPIO_AF_FSMC);
 8000842:	220c      	movs	r2, #12
 8000844:	4628      	mov	r0, r5
 8000846:	2105      	movs	r1, #5
 8000848:	f008 f978 	bl	8008b3c <GPIO_PinAFConfig>


    GPIO_InitStructure.GPIO_Pin   = GPIO_Pin_6;
 800084c:	2540      	movs	r5, #64	; 0x40
    GPIO_InitStructure.GPIO_Mode  = GPIO_Mode_OUT;
    GPIO_InitStructure.GPIO_Speed = GPIO_Speed_50MHz;
    GPIO_InitStructure.GPIO_OType = GPIO_OType_PP;
    GPIO_InitStructure.GPIO_PuPd  = GPIO_PuPd_NOPULL;
    GPIO_Init(GPIOF, &GPIO_InitStructure);
 800084e:	4669      	mov	r1, sp
 8000850:	4620      	mov	r0, r4
    GPIO_PinAFConfig(GPIOG, GPIO_PinSource4, GPIO_AF_FSMC);
    GPIO_PinAFConfig(GPIOG, GPIO_PinSource5, GPIO_AF_FSMC);


    GPIO_InitStructure.GPIO_Pin   = GPIO_Pin_6;
    GPIO_InitStructure.GPIO_Mode  = GPIO_Mode_OUT;
 8000852:	f88d 8004 	strb.w	r8, [sp, #4]
    GPIO_InitStructure.GPIO_Speed = GPIO_Speed_50MHz;
 8000856:	f88d 7005 	strb.w	r7, [sp, #5]
    GPIO_InitStructure.GPIO_OType = GPIO_OType_PP;
 800085a:	f88d 6006 	strb.w	r6, [sp, #6]
    GPIO_InitStructure.GPIO_PuPd  = GPIO_PuPd_NOPULL;
 800085e:	f88d 6007 	strb.w	r6, [sp, #7]
    GPIO_PinAFConfig(GPIOG, GPIO_PinSource3, GPIO_AF_FSMC);
    GPIO_PinAFConfig(GPIOG, GPIO_PinSource4, GPIO_AF_FSMC);
    GPIO_PinAFConfig(GPIOG, GPIO_PinSource5, GPIO_AF_FSMC);


    GPIO_InitStructure.GPIO_Pin   = GPIO_Pin_6;
 8000862:	9500      	str	r5, [sp, #0]
    GPIO_InitStructure.GPIO_Mode  = GPIO_Mode_OUT;
    GPIO_InitStructure.GPIO_Speed = GPIO_Speed_50MHz;
    GPIO_InitStructure.GPIO_OType = GPIO_OType_PP;
    GPIO_InitStructure.GPIO_PuPd  = GPIO_PuPd_NOPULL;
    GPIO_Init(GPIOF, &GPIO_InitStructure);
 8000864:	f008 f8d8 	bl	8008a18 <GPIO_Init>

    GPIO_ResetBits(GPIOF, GPIO_Pin_6);
 8000868:	4629      	mov	r1, r5
 800086a:	4620      	mov	r0, r4
 800086c:	f008 f958 	bl	8008b20 <GPIO_ResetBits>

    FSMC_Bank1->BTCR[0] = FSMC_DataAddressMux_Disable | FSMC_MemoryType_SRAM       |
 8000870:	f241 0410 	movw	r4, #4112	; 0x1010

    FSMC_Bank1->BTCR[0] = FSMC_DataAddressMux_Disable | FSMC_MemoryType_SRAM       |
                          FSMC_MemoryDataWidth_16b    | FSMC_WriteOperation_Enable |
                          FSMC_ExtendedMode_Enable    | FSMC_AsynchronousWait_Disable;

    FSMC_Bank1->BTCR[1]  = 0x00000404;
 8000874:	f240 4204 	movw	r2, #1028	; 0x404

    FSMC_Bank1->BTCR[0] = FSMC_DataAddressMux_Disable | FSMC_MemoryType_SRAM       |
                          FSMC_MemoryDataWidth_16b    | FSMC_WriteOperation_Enable |
                          FSMC_ExtendedMode_Disable   | FSMC_AsynchronousWait_Disable;

    FSMC_Bank1->BTCR[0] = FSMC_DataAddressMux_Disable | FSMC_MemoryType_SRAM       |
 8000878:	f245 0010 	movw	r0, #20496	; 0x5010
                          FSMC_MemoryDataWidth_16b    | FSMC_WriteOperation_Enable |
                          FSMC_ExtendedMode_Enable    | FSMC_AsynchronousWait_Disable;

    FSMC_Bank1->BTCR[1]  = 0x00000404;
    FSMC_Bank1E->BWTR[0] = 0x00000404;
 800087c:	4909      	ldr	r1, [pc, #36]	; (80008a4 <BSP_PSRAM_Init+0x2b0>)
    GPIO_InitStructure.GPIO_PuPd  = GPIO_PuPd_NOPULL;
    GPIO_Init(GPIOF, &GPIO_InitStructure);

    GPIO_ResetBits(GPIOF, GPIO_Pin_6);

    FSMC_Bank1->BTCR[0] = FSMC_DataAddressMux_Disable | FSMC_MemoryType_SRAM       |
 800087e:	f04f 4320 	mov.w	r3, #2684354560	; 0xa0000000
 8000882:	601c      	str	r4, [r3, #0]
                          FSMC_MemoryDataWidth_16b    | FSMC_WriteOperation_Enable |
                          FSMC_ExtendedMode_Disable   | FSMC_AsynchronousWait_Disable;

    FSMC_Bank1->BTCR[0] = FSMC_DataAddressMux_Disable | FSMC_MemoryType_SRAM       |
 8000884:	6018      	str	r0, [r3, #0]
                          FSMC_MemoryDataWidth_16b    | FSMC_WriteOperation_Enable |
                          FSMC_ExtendedMode_Enable    | FSMC_AsynchronousWait_Disable;

    FSMC_Bank1->BTCR[1]  = 0x00000404;
 8000886:	605a      	str	r2, [r3, #4]
    FSMC_Bank1E->BWTR[0] = 0x00000404;
 8000888:	600a      	str	r2, [r1, #0]

    FSMC_Bank1->BTCR[0] |= 0x0001;
 800088a:	681a      	ldr	r2, [r3, #0]
 800088c:	ea42 0208 	orr.w	r2, r2, r8
 8000890:	601a      	str	r2, [r3, #0]
}
 8000892:	b003      	add	sp, #12
 8000894:	e8bd 83f0 	ldmia.w	sp!, {r4, r5, r6, r7, r8, r9, pc}
 8000898:	40020c00 	.word	0x40020c00
 800089c:	40020400 	.word	0x40020400
 80008a0:	40021000 	.word	0x40021000
 80008a4:	a0000104 	.word	0xa0000104

080008a8 <BSP_SRAM_Init>:
* Note(s)     : none.
*********************************************************************************************************
*/

void  BSP_SRAM_Init(void)
{
 80008a8:	b5f0      	push	{r4, r5, r6, r7, lr}
    FSMC_NORSRAMInitTypeDef        FSMC_SRAM_Init;
    FSMC_NORSRAMTimingInitTypeDef  FSMC_SRAM_TimingInit;
    GPIO_InitTypeDef               GPIO_InitStructure;


    RCC_AHB3PeriphClockCmd(RCC_AHB3Periph_FSMC, ENABLE);
 80008aa:	2101      	movs	r1, #1
* Note(s)     : none.
*********************************************************************************************************
*/

void  BSP_SRAM_Init(void)
{
 80008ac:	b099      	sub	sp, #100	; 0x64
    FSMC_NORSRAMInitTypeDef        FSMC_SRAM_Init;
    FSMC_NORSRAMTimingInitTypeDef  FSMC_SRAM_TimingInit;
    GPIO_InitTypeDef               GPIO_InitStructure;


    RCC_AHB3PeriphClockCmd(RCC_AHB3Periph_FSMC, ENABLE);
 80008ae:	4608      	mov	r0, r1
 80008b0:	f008 fac6 	bl	8008e40 <RCC_AHB3PeriphClockCmd>
    RCC_AHB1PeriphClockCmd(RCC_AHB1Periph_GPIOD |
 80008b4:	2101      	movs	r1, #1
 80008b6:	2078      	movs	r0, #120	; 0x78
 80008b8:	f008 faa6 	bl	8008e08 <RCC_AHB1PeriphClockCmd>
                           RCC_AHB1Periph_GPIOE |
                           RCC_AHB1Periph_GPIOF |
                           RCC_AHB1Periph_GPIOG,
                           ENABLE);

    GPIO_InitStructure.GPIO_Pin = GPIO_Pin_0  | GPIO_Pin_1  |
 80008bc:	f64f 7333 	movw	r3, #65331	; 0xff33
    GPIO_InitStructure.GPIO_Mode  = GPIO_Mode_AF;
    GPIO_InitStructure.GPIO_Speed = GPIO_Speed_100MHz;
    GPIO_InitStructure.GPIO_OType = GPIO_OType_PP;
    GPIO_InitStructure.GPIO_PuPd  = GPIO_PuPd_NOPULL;

    GPIO_Init(GPIOD, &GPIO_InitStructure);
 80008c0:	4d98      	ldr	r5, [pc, #608]	; (8000b24 <BSP_SRAM_Init+0x27c>)
                                  GPIO_Pin_12 | GPIO_Pin_13 |
                                  GPIO_Pin_14 | GPIO_Pin_15;

    GPIO_InitStructure.GPIO_Mode  = GPIO_Mode_AF;
    GPIO_InitStructure.GPIO_Speed = GPIO_Speed_100MHz;
    GPIO_InitStructure.GPIO_OType = GPIO_OType_PP;
 80008c2:	2400      	movs	r4, #0
                                  GPIO_Pin_8  | GPIO_Pin_9  |
                                  GPIO_Pin_10 | GPIO_Pin_11 |
                                  GPIO_Pin_12 | GPIO_Pin_13 |
                                  GPIO_Pin_14 | GPIO_Pin_15;

    GPIO_InitStructure.GPIO_Mode  = GPIO_Mode_AF;
 80008c4:	2602      	movs	r6, #2
    GPIO_InitStructure.GPIO_Speed = GPIO_Speed_100MHz;
 80008c6:	2703      	movs	r7, #3
    GPIO_InitStructure.GPIO_OType = GPIO_OType_PP;
    GPIO_InitStructure.GPIO_PuPd  = GPIO_PuPd_NOPULL;

    GPIO_Init(GPIOD, &GPIO_InitStructure);
 80008c8:	4628      	mov	r0, r5
 80008ca:	4669      	mov	r1, sp
                           RCC_AHB1Periph_GPIOE |
                           RCC_AHB1Periph_GPIOF |
                           RCC_AHB1Periph_GPIOG,
                           ENABLE);

    GPIO_InitStructure.GPIO_Pin = GPIO_Pin_0  | GPIO_Pin_1  |
 80008cc:	9300      	str	r3, [sp, #0]
                                  GPIO_Pin_10 | GPIO_Pin_11 |
                                  GPIO_Pin_12 | GPIO_Pin_13 |
                                  GPIO_Pin_14 | GPIO_Pin_15;

    GPIO_InitStructure.GPIO_Mode  = GPIO_Mode_AF;
    GPIO_InitStructure.GPIO_Speed = GPIO_Speed_100MHz;
 80008ce:	f88d 7005 	strb.w	r7, [sp, #5]
                                  GPIO_Pin_8  | GPIO_Pin_9  |
                                  GPIO_Pin_10 | GPIO_Pin_11 |
                                  GPIO_Pin_12 | GPIO_Pin_13 |
                                  GPIO_Pin_14 | GPIO_Pin_15;

    GPIO_InitStructure.GPIO_Mode  = GPIO_Mode_AF;
 80008d2:	f88d 6004 	strb.w	r6, [sp, #4]
    GPIO_InitStructure.GPIO_Speed = GPIO_Speed_100MHz;
    GPIO_InitStructure.GPIO_OType = GPIO_OType_PP;
 80008d6:	f88d 4006 	strb.w	r4, [sp, #6]
    GPIO_InitStructure.GPIO_PuPd  = GPIO_PuPd_NOPULL;
 80008da:	f88d 4007 	strb.w	r4, [sp, #7]

    GPIO_Init(GPIOD, &GPIO_InitStructure);
 80008de:	f008 f89b 	bl	8008a18 <GPIO_Init>

    GPIO_PinAFConfig(GPIOD, GPIO_PinSource0,  GPIO_AF_FSMC);
 80008e2:	4621      	mov	r1, r4
 80008e4:	4628      	mov	r0, r5
 80008e6:	220c      	movs	r2, #12
 80008e8:	f008 f928 	bl	8008b3c <GPIO_PinAFConfig>
    GPIO_PinAFConfig(GPIOD, GPIO_PinSource1,  GPIO_AF_FSMC);
 80008ec:	4628      	mov	r0, r5
 80008ee:	220c      	movs	r2, #12
 80008f0:	2101      	movs	r1, #1
 80008f2:	f008 f923 	bl	8008b3c <GPIO_PinAFConfig>
    GPIO_PinAFConfig(GPIOD, GPIO_PinSource4,  GPIO_AF_FSMC);
 80008f6:	4628      	mov	r0, r5
 80008f8:	220c      	movs	r2, #12
 80008fa:	2104      	movs	r1, #4
 80008fc:	f008 f91e 	bl	8008b3c <GPIO_PinAFConfig>
    GPIO_PinAFConfig(GPIOD, GPIO_PinSource5,  GPIO_AF_FSMC);
 8000900:	4628      	mov	r0, r5
 8000902:	220c      	movs	r2, #12
 8000904:	2105      	movs	r1, #5
 8000906:	f008 f919 	bl	8008b3c <GPIO_PinAFConfig>
    GPIO_PinAFConfig(GPIOD, GPIO_PinSource8,  GPIO_AF_FSMC);
 800090a:	4628      	mov	r0, r5
 800090c:	220c      	movs	r2, #12
 800090e:	2108      	movs	r1, #8
 8000910:	f008 f914 	bl	8008b3c <GPIO_PinAFConfig>
    GPIO_PinAFConfig(GPIOD, GPIO_PinSource9,  GPIO_AF_FSMC);
 8000914:	4628      	mov	r0, r5
 8000916:	220c      	movs	r2, #12
 8000918:	2109      	movs	r1, #9
 800091a:	f008 f90f 	bl	8008b3c <GPIO_PinAFConfig>
    GPIO_PinAFConfig(GPIOD, GPIO_PinSource10, GPIO_AF_FSMC);
 800091e:	4628      	mov	r0, r5
 8000920:	220c      	movs	r2, #12
 8000922:	210a      	movs	r1, #10
 8000924:	f008 f90a 	bl	8008b3c <GPIO_PinAFConfig>
    GPIO_PinAFConfig(GPIOD, GPIO_PinSource11, GPIO_AF_FSMC);
 8000928:	4628      	mov	r0, r5
 800092a:	220c      	movs	r2, #12
 800092c:	210b      	movs	r1, #11
 800092e:	f008 f905 	bl	8008b3c <GPIO_PinAFConfig>
    GPIO_PinAFConfig(GPIOD, GPIO_PinSource12, GPIO_AF_FSMC);
 8000932:	220c      	movs	r2, #12
 8000934:	4628      	mov	r0, r5
 8000936:	4611      	mov	r1, r2
 8000938:	f008 f900 	bl	8008b3c <GPIO_PinAFConfig>
    GPIO_PinAFConfig(GPIOD, GPIO_PinSource13, GPIO_AF_FSMC);
 800093c:	4628      	mov	r0, r5
 800093e:	220c      	movs	r2, #12
 8000940:	210d      	movs	r1, #13
 8000942:	f008 f8fb 	bl	8008b3c <GPIO_PinAFConfig>
    GPIO_PinAFConfig(GPIOD, GPIO_PinSource14, GPIO_AF_FSMC);
 8000946:	4628      	mov	r0, r5
 8000948:	220c      	movs	r2, #12
 800094a:	210e      	movs	r1, #14
 800094c:	f008 f8f6 	bl	8008b3c <GPIO_PinAFConfig>
    GPIO_PinAFConfig(GPIOD, GPIO_PinSource15, GPIO_AF_FSMC);
 8000950:	4628      	mov	r0, r5
 8000952:	220c      	movs	r2, #12
 8000954:	210f      	movs	r1, #15
 8000956:	f008 f8f1 	bl	8008b3c <GPIO_PinAFConfig>


    GPIO_InitStructure.GPIO_Pin = GPIO_Pin_0  | GPIO_Pin_1   |
 800095a:	f64f 73fb 	movw	r3, #65531	; 0xfffb
                                  GPIO_Pin_9  | GPIO_Pin_10  |
                                  GPIO_Pin_11 | GPIO_Pin_12  |
                                  GPIO_Pin_13 | GPIO_Pin_14  |
                                  GPIO_Pin_15;

    GPIO_Init(GPIOE, &GPIO_InitStructure);
 800095e:	f505 6580 	add.w	r5, r5, #1024	; 0x400
 8000962:	4669      	mov	r1, sp
 8000964:	4628      	mov	r0, r5
    GPIO_PinAFConfig(GPIOD, GPIO_PinSource13, GPIO_AF_FSMC);
    GPIO_PinAFConfig(GPIOD, GPIO_PinSource14, GPIO_AF_FSMC);
    GPIO_PinAFConfig(GPIOD, GPIO_PinSource15, GPIO_AF_FSMC);


    GPIO_InitStructure.GPIO_Pin = GPIO_Pin_0  | GPIO_Pin_1   |
 8000966:	9300      	str	r3, [sp, #0]
                                  GPIO_Pin_9  | GPIO_Pin_10  |
                                  GPIO_Pin_11 | GPIO_Pin_12  |
                                  GPIO_Pin_13 | GPIO_Pin_14  |
                                  GPIO_Pin_15;

    GPIO_Init(GPIOE, &GPIO_InitStructure);
 8000968:	f008 f856 	bl	8008a18 <GPIO_Init>

    GPIO_PinAFConfig(GPIOE, GPIO_PinSource0,  GPIO_AF_FSMC);
 800096c:	4621      	mov	r1, r4
 800096e:	4628      	mov	r0, r5
 8000970:	220c      	movs	r2, #12
 8000972:	f008 f8e3 	bl	8008b3c <GPIO_PinAFConfig>
    GPIO_PinAFConfig(GPIOE, GPIO_PinSource1,  GPIO_AF_FSMC);
 8000976:	4628      	mov	r0, r5
 8000978:	220c      	movs	r2, #12
 800097a:	2101      	movs	r1, #1
 800097c:	f008 f8de 	bl	8008b3c <GPIO_PinAFConfig>
    GPIO_PinAFConfig(GPIOE, GPIO_PinSource3,  GPIO_AF_FSMC);
 8000980:	4639      	mov	r1, r7
 8000982:	4628      	mov	r0, r5
 8000984:	220c      	movs	r2, #12
 8000986:	f008 f8d9 	bl	8008b3c <GPIO_PinAFConfig>
    GPIO_PinAFConfig(GPIOE, GPIO_PinSource4,  GPIO_AF_FSMC);
 800098a:	4628      	mov	r0, r5
 800098c:	220c      	movs	r2, #12
 800098e:	2104      	movs	r1, #4
 8000990:	f008 f8d4 	bl	8008b3c <GPIO_PinAFConfig>
    GPIO_PinAFConfig(GPIOE, GPIO_PinSource5,  GPIO_AF_FSMC);
 8000994:	4628      	mov	r0, r5
 8000996:	220c      	movs	r2, #12
 8000998:	2105      	movs	r1, #5
 800099a:	f008 f8cf 	bl	8008b3c <GPIO_PinAFConfig>
    GPIO_PinAFConfig(GPIOE, GPIO_PinSource6,  GPIO_AF_FSMC);
 800099e:	4628      	mov	r0, r5
 80009a0:	220c      	movs	r2, #12
 80009a2:	2106      	movs	r1, #6
 80009a4:	f008 f8ca 	bl	8008b3c <GPIO_PinAFConfig>
    GPIO_PinAFConfig(GPIOE, GPIO_PinSource7,  GPIO_AF_FSMC);
 80009a8:	4628      	mov	r0, r5
 80009aa:	220c      	movs	r2, #12
 80009ac:	2107      	movs	r1, #7
 80009ae:	f008 f8c5 	bl	8008b3c <GPIO_PinAFConfig>
    GPIO_PinAFConfig(GPIOE, GPIO_PinSource8,  GPIO_AF_FSMC);
 80009b2:	4628      	mov	r0, r5
 80009b4:	220c      	movs	r2, #12
 80009b6:	2108      	movs	r1, #8
 80009b8:	f008 f8c0 	bl	8008b3c <GPIO_PinAFConfig>
    GPIO_PinAFConfig(GPIOE, GPIO_PinSource9,  GPIO_AF_FSMC);
 80009bc:	4628      	mov	r0, r5
 80009be:	220c      	movs	r2, #12
 80009c0:	2109      	movs	r1, #9
 80009c2:	f008 f8bb 	bl	8008b3c <GPIO_PinAFConfig>
    GPIO_PinAFConfig(GPIOE, GPIO_PinSource10, GPIO_AF_FSMC);
 80009c6:	4628      	mov	r0, r5
 80009c8:	220c      	movs	r2, #12
 80009ca:	210a      	movs	r1, #10
 80009cc:	f008 f8b6 	bl	8008b3c <GPIO_PinAFConfig>
    GPIO_PinAFConfig(GPIOE, GPIO_PinSource11, GPIO_AF_FSMC);
 80009d0:	4628      	mov	r0, r5
 80009d2:	220c      	movs	r2, #12
 80009d4:	210b      	movs	r1, #11
 80009d6:	f008 f8b1 	bl	8008b3c <GPIO_PinAFConfig>
    GPIO_PinAFConfig(GPIOE, GPIO_PinSource12, GPIO_AF_FSMC);
 80009da:	220c      	movs	r2, #12
 80009dc:	4628      	mov	r0, r5
 80009de:	4611      	mov	r1, r2
 80009e0:	f008 f8ac 	bl	8008b3c <GPIO_PinAFConfig>
    GPIO_PinAFConfig(GPIOE, GPIO_PinSource13, GPIO_AF_FSMC);
 80009e4:	4628      	mov	r0, r5
 80009e6:	220c      	movs	r2, #12
 80009e8:	210d      	movs	r1, #13
 80009ea:	f008 f8a7 	bl	8008b3c <GPIO_PinAFConfig>
    GPIO_PinAFConfig(GPIOE, GPIO_PinSource14, GPIO_AF_FSMC);
 80009ee:	4628      	mov	r0, r5
 80009f0:	220c      	movs	r2, #12
 80009f2:	210e      	movs	r1, #14
 80009f4:	f008 f8a2 	bl	8008b3c <GPIO_PinAFConfig>
    GPIO_PinAFConfig(GPIOE, GPIO_PinSource15, GPIO_AF_FSMC);
 80009f8:	4628      	mov	r0, r5
 80009fa:	220c      	movs	r2, #12
 80009fc:	210f      	movs	r1, #15
 80009fe:	f008 f89d 	bl	8008b3c <GPIO_PinAFConfig>

    GPIO_InitStructure.GPIO_Pin = GPIO_Pin_0  | GPIO_Pin_1  |
 8000a02:	f24f 033f 	movw	r3, #61503	; 0xf03f
                                  GPIO_Pin_2  | GPIO_Pin_3  |
                                  GPIO_Pin_4  | GPIO_Pin_5  |
                                  GPIO_Pin_12 | GPIO_Pin_13 |
                                  GPIO_Pin_14 | GPIO_Pin_15;

    GPIO_Init(GPIOF, &GPIO_InitStructure);
 8000a06:	f505 6580 	add.w	r5, r5, #1024	; 0x400
 8000a0a:	4669      	mov	r1, sp
 8000a0c:	4628      	mov	r0, r5
    GPIO_PinAFConfig(GPIOE, GPIO_PinSource12, GPIO_AF_FSMC);
    GPIO_PinAFConfig(GPIOE, GPIO_PinSource13, GPIO_AF_FSMC);
    GPIO_PinAFConfig(GPIOE, GPIO_PinSource14, GPIO_AF_FSMC);
    GPIO_PinAFConfig(GPIOE, GPIO_PinSource15, GPIO_AF_FSMC);

    GPIO_InitStructure.GPIO_Pin = GPIO_Pin_0  | GPIO_Pin_1  |
 8000a0e:	9300      	str	r3, [sp, #0]
                                  GPIO_Pin_2  | GPIO_Pin_3  |
                                  GPIO_Pin_4  | GPIO_Pin_5  |
                                  GPIO_Pin_12 | GPIO_Pin_13 |
                                  GPIO_Pin_14 | GPIO_Pin_15;

    GPIO_Init(GPIOF, &GPIO_InitStructure);
 8000a10:	f008 f802 	bl	8008a18 <GPIO_Init>

    GPIO_PinAFConfig(GPIOF, GPIO_PinSource0,  GPIO_AF_FSMC);
 8000a14:	4621      	mov	r1, r4
 8000a16:	4628      	mov	r0, r5
 8000a18:	220c      	movs	r2, #12
 8000a1a:	f008 f88f 	bl	8008b3c <GPIO_PinAFConfig>
    GPIO_PinAFConfig(GPIOF, GPIO_PinSource1,  GPIO_AF_FSMC);
 8000a1e:	4628      	mov	r0, r5
 8000a20:	220c      	movs	r2, #12
 8000a22:	2101      	movs	r1, #1
 8000a24:	f008 f88a 	bl	8008b3c <GPIO_PinAFConfig>
    GPIO_PinAFConfig(GPIOF, GPIO_PinSource2,  GPIO_AF_FSMC);
 8000a28:	4631      	mov	r1, r6
 8000a2a:	4628      	mov	r0, r5
 8000a2c:	220c      	movs	r2, #12
 8000a2e:	f008 f885 	bl	8008b3c <GPIO_PinAFConfig>
    GPIO_PinAFConfig(GPIOF, GPIO_PinSource3,  GPIO_AF_FSMC);
 8000a32:	4639      	mov	r1, r7
 8000a34:	4628      	mov	r0, r5
 8000a36:	220c      	movs	r2, #12
 8000a38:	f008 f880 	bl	8008b3c <GPIO_PinAFConfig>
    GPIO_PinAFConfig(GPIOF, GPIO_PinSource4,  GPIO_AF_FSMC);
 8000a3c:	4628      	mov	r0, r5
 8000a3e:	220c      	movs	r2, #12
 8000a40:	2104      	movs	r1, #4
 8000a42:	f008 f87b 	bl	8008b3c <GPIO_PinAFConfig>
    GPIO_PinAFConfig(GPIOF, GPIO_PinSource5,  GPIO_AF_FSMC);
 8000a46:	4628      	mov	r0, r5
 8000a48:	220c      	movs	r2, #12
 8000a4a:	2105      	movs	r1, #5
 8000a4c:	f008 f876 	bl	8008b3c <GPIO_PinAFConfig>
    GPIO_PinAFConfig(GPIOF, GPIO_PinSource12, GPIO_AF_FSMC);
 8000a50:	220c      	movs	r2, #12
 8000a52:	4628      	mov	r0, r5
 8000a54:	4611      	mov	r1, r2
 8000a56:	f008 f871 	bl	8008b3c <GPIO_PinAFConfig>
    GPIO_PinAFConfig(GPIOF, GPIO_PinSource13, GPIO_AF_FSMC);
 8000a5a:	4628      	mov	r0, r5
 8000a5c:	220c      	movs	r2, #12
 8000a5e:	210d      	movs	r1, #13
 8000a60:	f008 f86c 	bl	8008b3c <GPIO_PinAFConfig>
    GPIO_PinAFConfig(GPIOF, GPIO_PinSource14, GPIO_AF_FSMC);
 8000a64:	4628      	mov	r0, r5
 8000a66:	220c      	movs	r2, #12
 8000a68:	210e      	movs	r1, #14
 8000a6a:	f008 f867 	bl	8008b3c <GPIO_PinAFConfig>
    GPIO_PinAFConfig(GPIOF, GPIO_PinSource15, GPIO_AF_FSMC);
 8000a6e:	4628      	mov	r0, r5
 8000a70:	220c      	movs	r2, #12
 8000a72:	210f      	movs	r1, #15
 8000a74:	f008 f862 	bl	8008b3c <GPIO_PinAFConfig>


    GPIO_InitStructure.GPIO_Pin = GPIO_Pin_0 | GPIO_Pin_1 |
 8000a78:	f240 233f 	movw	r3, #575	; 0x23f
                                  GPIO_Pin_2 | GPIO_Pin_3 |
                                  GPIO_Pin_4 | GPIO_Pin_5 |
                                  GPIO_Pin_9;

    GPIO_Init(GPIOG, &GPIO_InitStructure);
 8000a7c:	f505 6580 	add.w	r5, r5, #1024	; 0x400
 8000a80:	4669      	mov	r1, sp
 8000a82:	4628      	mov	r0, r5
    GPIO_PinAFConfig(GPIOF, GPIO_PinSource13, GPIO_AF_FSMC);
    GPIO_PinAFConfig(GPIOF, GPIO_PinSource14, GPIO_AF_FSMC);
    GPIO_PinAFConfig(GPIOF, GPIO_PinSource15, GPIO_AF_FSMC);


    GPIO_InitStructure.GPIO_Pin = GPIO_Pin_0 | GPIO_Pin_1 |
 8000a84:	9300      	str	r3, [sp, #0]
                                  GPIO_Pin_2 | GPIO_Pin_3 |
                                  GPIO_Pin_4 | GPIO_Pin_5 |
                                  GPIO_Pin_9;

    GPIO_Init(GPIOG, &GPIO_InitStructure);
 8000a86:	f007 ffc7 	bl	8008a18 <GPIO_Init>

    GPIO_PinAFConfig(GPIOG, GPIO_PinSource0,  GPIO_AF_FSMC);
 8000a8a:	4621      	mov	r1, r4
 8000a8c:	4628      	mov	r0, r5
 8000a8e:	220c      	movs	r2, #12
 8000a90:	f008 f854 	bl	8008b3c <GPIO_PinAFConfig>
    GPIO_PinAFConfig(GPIOG, GPIO_PinSource1,  GPIO_AF_FSMC);
 8000a94:	4628      	mov	r0, r5
 8000a96:	220c      	movs	r2, #12
 8000a98:	2101      	movs	r1, #1
 8000a9a:	f008 f84f 	bl	8008b3c <GPIO_PinAFConfig>
    GPIO_PinAFConfig(GPIOG, GPIO_PinSource2,  GPIO_AF_FSMC);
 8000a9e:	4631      	mov	r1, r6
 8000aa0:	4628      	mov	r0, r5
 8000aa2:	220c      	movs	r2, #12
 8000aa4:	f008 f84a 	bl	8008b3c <GPIO_PinAFConfig>
    GPIO_PinAFConfig(GPIOG, GPIO_PinSource3,  GPIO_AF_FSMC);
 8000aa8:	4639      	mov	r1, r7
 8000aaa:	4628      	mov	r0, r5
 8000aac:	220c      	movs	r2, #12
 8000aae:	f008 f845 	bl	8008b3c <GPIO_PinAFConfig>
    GPIO_PinAFConfig(GPIOG, GPIO_PinSource4,  GPIO_AF_FSMC);
 8000ab2:	4628      	mov	r0, r5
 8000ab4:	220c      	movs	r2, #12
 8000ab6:	2104      	movs	r1, #4
 8000ab8:	f008 f840 	bl	8008b3c <GPIO_PinAFConfig>
    GPIO_PinAFConfig(GPIOG, GPIO_PinSource5,  GPIO_AF_FSMC);
 8000abc:	4628      	mov	r0, r5
 8000abe:	220c      	movs	r2, #12
 8000ac0:	2105      	movs	r1, #5
 8000ac2:	f008 f83b 	bl	8008b3c <GPIO_PinAFConfig>
    GPIO_PinAFConfig(GPIOG, GPIO_PinSource9,  GPIO_AF_FSMC);
 8000ac6:	4628      	mov	r0, r5
 8000ac8:	220c      	movs	r2, #12
 8000aca:	2109      	movs	r1, #9
 8000acc:	f008 f836 	bl	8008b3c <GPIO_PinAFConfig>

                                                                /*------------------- SRAM BANK 2 ----------------------*/
    FSMC_SRAM_TimingInit.FSMC_AddressSetupTime      = 0;
    FSMC_SRAM_TimingInit.FSMC_AddressHoldTime       = 0;
    FSMC_SRAM_TimingInit.FSMC_DataSetupTime         = 4;
    FSMC_SRAM_TimingInit.FSMC_BusTurnAroundDuration = 1;
 8000ad0:	2501      	movs	r5, #1
    FSMC_SRAM_TimingInit.FSMC_CLKDivision           = 0;
    FSMC_SRAM_TimingInit.FSMC_DataLatency           = 0;
    FSMC_SRAM_TimingInit.FSMC_AccessMode            = FSMC_AccessMode_A;

    FSMC_SRAM_Init.FSMC_ReadWriteTimingStruct = &FSMC_SRAM_TimingInit;
 8000ad2:	ab02      	add	r3, sp, #8
    GPIO_PinAFConfig(GPIOG, GPIO_PinSource9,  GPIO_AF_FSMC);

                                                                /*------------------- SRAM BANK 2 ----------------------*/
    FSMC_SRAM_TimingInit.FSMC_AddressSetupTime      = 0;
    FSMC_SRAM_TimingInit.FSMC_AddressHoldTime       = 0;
    FSMC_SRAM_TimingInit.FSMC_DataSetupTime         = 4;
 8000ad4:	f04f 0e04 	mov.w	lr, #4
    FSMC_SRAM_Init.FSMC_DataAddressMux        = FSMC_DataAddressMux_Disable;
    FSMC_SRAM_Init.FSMC_MemoryType            = FSMC_MemoryType_SRAM;
    FSMC_SRAM_Init.FSMC_MemoryDataWidth       = FSMC_MemoryDataWidth_16b;
    FSMC_SRAM_Init.FSMC_AsynchronousWait      = FSMC_AsynchronousWait_Disable;
    FSMC_SRAM_Init.FSMC_ExtendedMode          = FSMC_ExtendedMode_Enable;
    FSMC_SRAM_Init.FSMC_WriteOperation        = FSMC_WriteOperation_Enable;
 8000ad8:	f44f 5280 	mov.w	r2, #4096	; 0x1000

    FSMC_SRAM_Init.FSMC_DataAddressMux        = FSMC_DataAddressMux_Disable;
    FSMC_SRAM_Init.FSMC_MemoryType            = FSMC_MemoryType_SRAM;
    FSMC_SRAM_Init.FSMC_MemoryDataWidth       = FSMC_MemoryDataWidth_16b;
    FSMC_SRAM_Init.FSMC_AsynchronousWait      = FSMC_AsynchronousWait_Disable;
    FSMC_SRAM_Init.FSMC_ExtendedMode          = FSMC_ExtendedMode_Enable;
 8000adc:	f44f 4180 	mov.w	r1, #16384	; 0x4000
    FSMC_SRAM_Init.FSMC_WrapMode              = FSMC_WrapMode_Disable;
    FSMC_SRAM_Init.FSMC_WaitSignalActive      = FSMC_WaitSignalActive_BeforeWaitState;
    FSMC_SRAM_Init.FSMC_WaitSignal            = FSMC_WaitSignal_Disable;
    FSMC_SRAM_Init.FSMC_WriteBurst            = FSMC_WriteBurst_Disable;

    FSMC_NORSRAMInit(&FSMC_SRAM_Init);
 8000ae0:	a809      	add	r0, sp, #36	; 0x24

    FSMC_SRAM_Init.FSMC_Bank                  = FSMC_Bank1_NORSRAM2;

    FSMC_SRAM_Init.FSMC_DataAddressMux        = FSMC_DataAddressMux_Disable;
    FSMC_SRAM_Init.FSMC_MemoryType            = FSMC_MemoryType_SRAM;
    FSMC_SRAM_Init.FSMC_MemoryDataWidth       = FSMC_MemoryDataWidth_16b;
 8000ae2:	2710      	movs	r7, #16
    GPIO_PinAFConfig(GPIOG, GPIO_PinSource9,  GPIO_AF_FSMC);

                                                                /*------------------- SRAM BANK 2 ----------------------*/
    FSMC_SRAM_TimingInit.FSMC_AddressSetupTime      = 0;
    FSMC_SRAM_TimingInit.FSMC_AddressHoldTime       = 0;
    FSMC_SRAM_TimingInit.FSMC_DataSetupTime         = 4;
 8000ae4:	f8cd e010 	str.w	lr, [sp, #16]
    FSMC_SRAM_TimingInit.FSMC_BusTurnAroundDuration = 1;
    FSMC_SRAM_TimingInit.FSMC_CLKDivision           = 0;
    FSMC_SRAM_TimingInit.FSMC_DataLatency           = 0;
    FSMC_SRAM_TimingInit.FSMC_AccessMode            = FSMC_AccessMode_A;

    FSMC_SRAM_Init.FSMC_ReadWriteTimingStruct = &FSMC_SRAM_TimingInit;
 8000ae8:	9316      	str	r3, [sp, #88]	; 0x58
    FSMC_SRAM_Init.FSMC_WriteTimingStruct     = &FSMC_SRAM_TimingInit;
 8000aea:	9317      	str	r3, [sp, #92]	; 0x5c

    FSMC_SRAM_Init.FSMC_DataAddressMux        = FSMC_DataAddressMux_Disable;
    FSMC_SRAM_Init.FSMC_MemoryType            = FSMC_MemoryType_SRAM;
    FSMC_SRAM_Init.FSMC_MemoryDataWidth       = FSMC_MemoryDataWidth_16b;
    FSMC_SRAM_Init.FSMC_AsynchronousWait      = FSMC_AsynchronousWait_Disable;
    FSMC_SRAM_Init.FSMC_ExtendedMode          = FSMC_ExtendedMode_Enable;
 8000aec:	9114      	str	r1, [sp, #80]	; 0x50
    FSMC_SRAM_Init.FSMC_WriteOperation        = FSMC_WriteOperation_Enable;
 8000aee:	9212      	str	r2, [sp, #72]	; 0x48
    GPIO_PinAFConfig(GPIOG, GPIO_PinSource4,  GPIO_AF_FSMC);
    GPIO_PinAFConfig(GPIOG, GPIO_PinSource5,  GPIO_AF_FSMC);
    GPIO_PinAFConfig(GPIOG, GPIO_PinSource9,  GPIO_AF_FSMC);

                                                                /*------------------- SRAM BANK 2 ----------------------*/
    FSMC_SRAM_TimingInit.FSMC_AddressSetupTime      = 0;
 8000af0:	9402      	str	r4, [sp, #8]
    FSMC_SRAM_TimingInit.FSMC_AddressHoldTime       = 0;
 8000af2:	9403      	str	r4, [sp, #12]
    FSMC_SRAM_TimingInit.FSMC_DataSetupTime         = 4;
    FSMC_SRAM_TimingInit.FSMC_BusTurnAroundDuration = 1;
    FSMC_SRAM_TimingInit.FSMC_CLKDivision           = 0;
 8000af4:	9406      	str	r4, [sp, #24]
    FSMC_SRAM_TimingInit.FSMC_DataLatency           = 0;
 8000af6:	9407      	str	r4, [sp, #28]
    FSMC_SRAM_TimingInit.FSMC_AccessMode            = FSMC_AccessMode_A;
 8000af8:	9408      	str	r4, [sp, #32]

    FSMC_SRAM_Init.FSMC_ReadWriteTimingStruct = &FSMC_SRAM_TimingInit;
    FSMC_SRAM_Init.FSMC_WriteTimingStruct     = &FSMC_SRAM_TimingInit;

    FSMC_SRAM_Init.FSMC_Bank                  = FSMC_Bank1_NORSRAM2;
 8000afa:	9609      	str	r6, [sp, #36]	; 0x24

    FSMC_SRAM_Init.FSMC_DataAddressMux        = FSMC_DataAddressMux_Disable;
 8000afc:	940a      	str	r4, [sp, #40]	; 0x28
    FSMC_SRAM_Init.FSMC_MemoryType            = FSMC_MemoryType_SRAM;
 8000afe:	940b      	str	r4, [sp, #44]	; 0x2c
    FSMC_SRAM_Init.FSMC_MemoryDataWidth       = FSMC_MemoryDataWidth_16b;
    FSMC_SRAM_Init.FSMC_AsynchronousWait      = FSMC_AsynchronousWait_Disable;
 8000b00:	940e      	str	r4, [sp, #56]	; 0x38
    FSMC_SRAM_Init.FSMC_ExtendedMode          = FSMC_ExtendedMode_Enable;
    FSMC_SRAM_Init.FSMC_WriteOperation        = FSMC_WriteOperation_Enable;

    FSMC_SRAM_Init.FSMC_BurstAccessMode       = FSMC_BurstAccessMode_Disable;
 8000b02:	940d      	str	r4, [sp, #52]	; 0x34
    FSMC_SRAM_Init.FSMC_WaitSignalPolarity    = FSMC_WaitSignalPolarity_Low;
 8000b04:	940f      	str	r4, [sp, #60]	; 0x3c
    FSMC_SRAM_Init.FSMC_WrapMode              = FSMC_WrapMode_Disable;
 8000b06:	9410      	str	r4, [sp, #64]	; 0x40
    FSMC_SRAM_Init.FSMC_WaitSignalActive      = FSMC_WaitSignalActive_BeforeWaitState;
 8000b08:	9411      	str	r4, [sp, #68]	; 0x44
    FSMC_SRAM_Init.FSMC_WaitSignal            = FSMC_WaitSignal_Disable;
 8000b0a:	9413      	str	r4, [sp, #76]	; 0x4c
    FSMC_SRAM_Init.FSMC_WriteBurst            = FSMC_WriteBurst_Disable;
 8000b0c:	9415      	str	r4, [sp, #84]	; 0x54

                                                                /*------------------- SRAM BANK 2 ----------------------*/
    FSMC_SRAM_TimingInit.FSMC_AddressSetupTime      = 0;
    FSMC_SRAM_TimingInit.FSMC_AddressHoldTime       = 0;
    FSMC_SRAM_TimingInit.FSMC_DataSetupTime         = 4;
    FSMC_SRAM_TimingInit.FSMC_BusTurnAroundDuration = 1;
 8000b0e:	9505      	str	r5, [sp, #20]

    FSMC_SRAM_Init.FSMC_Bank                  = FSMC_Bank1_NORSRAM2;

    FSMC_SRAM_Init.FSMC_DataAddressMux        = FSMC_DataAddressMux_Disable;
    FSMC_SRAM_Init.FSMC_MemoryType            = FSMC_MemoryType_SRAM;
    FSMC_SRAM_Init.FSMC_MemoryDataWidth       = FSMC_MemoryDataWidth_16b;
 8000b10:	970c      	str	r7, [sp, #48]	; 0x30
    FSMC_SRAM_Init.FSMC_WrapMode              = FSMC_WrapMode_Disable;
    FSMC_SRAM_Init.FSMC_WaitSignalActive      = FSMC_WaitSignalActive_BeforeWaitState;
    FSMC_SRAM_Init.FSMC_WaitSignal            = FSMC_WaitSignal_Disable;
    FSMC_SRAM_Init.FSMC_WriteBurst            = FSMC_WriteBurst_Disable;

    FSMC_NORSRAMInit(&FSMC_SRAM_Init);
 8000b12:	f007 fcd3 	bl	80084bc <FSMC_NORSRAMInit>

    FSMC_NORSRAMCmd(FSMC_Bank1_NORSRAM2, ENABLE);
 8000b16:	4629      	mov	r1, r5
 8000b18:	4630      	mov	r0, r6
 8000b1a:	f007 fd4f 	bl	80085bc <FSMC_NORSRAMCmd>
}
 8000b1e:	b019      	add	sp, #100	; 0x64
 8000b20:	bdf0      	pop	{r4, r5, r6, r7, pc}
 8000b22:	bf00      	nop
 8000b24:	40020c00 	.word	0x40020c00

08000b28 <BSP_SoftReset>:

    \param [in]    faultMask  Fault Mask value to set
 */
__attribute__( ( always_inline ) ) static __INLINE void __set_FAULTMASK(uint32_t faultMask)
{
  __ASM volatile ("MSR faultmask, %0" : : "r" (faultMask) );
 8000b28:	2301      	movs	r3, #1
 8000b2a:	f383 8813 	msr	FAULTMASK, r3
    This function acts as a special kind of Data Memory Barrier. 
    It completes when all explicit memory accesses before this instruction complete.
 */
__attribute__( ( always_inline ) ) static __INLINE void __DSB(void)
{
  __ASM volatile ("dsb");
 8000b2e:	f3bf 8f4f 	dsb	sy
static __INLINE void NVIC_SystemReset(void)
{
  __DSB();                                                     /* Ensure all outstanding memory accesses included
                                                                  buffered write are completed before reset */              
  SCB->AIRCR  = ((0x5FA << SCB_AIRCR_VECTKEY_Pos)      | 
                 (SCB->AIRCR & SCB_AIRCR_PRIGROUP_Msk) | 
 8000b32:	4905      	ldr	r1, [pc, #20]	; (8000b48 <BSP_SoftReset+0x20>)
 8000b34:	4b05      	ldr	r3, [pc, #20]	; (8000b4c <BSP_SoftReset+0x24>)
 8000b36:	68ca      	ldr	r2, [r1, #12]
 8000b38:	f402 62e0 	and.w	r2, r2, #1792	; 0x700
 8000b3c:	4313      	orrs	r3, r2
 */
static __INLINE void NVIC_SystemReset(void)
{
  __DSB();                                                     /* Ensure all outstanding memory accesses included
                                                                  buffered write are completed before reset */              
  SCB->AIRCR  = ((0x5FA << SCB_AIRCR_VECTKEY_Pos)      | 
 8000b3e:	60cb      	str	r3, [r1, #12]
 8000b40:	f3bf 8f4f 	dsb	sy
 8000b44:	e7fe      	b.n	8000b44 <BSP_SoftReset+0x1c>
 8000b46:	bf00      	nop
 8000b48:	e000ed00 	.word	0xe000ed00
 8000b4c:	05fa0004 	.word	0x05fa0004

08000b50 <CPU_TS_TmrInit>:
void  CPU_TS_TmrInit (void)
{
    CPU_INT32U  cpu_clk_freq_hz;


    DEM_CR         |= (CPU_INT32U)DEM_CR_TRCENA;                /* Enable Cortex-M3's DWT CYCCNT reg.                   */
 8000b50:	490b      	ldr	r1, [pc, #44]	; (8000b80 <CPU_TS_TmrInit+0x30>)
*********************************************************************************************************
*/

#if (CPU_CFG_TS_TMR_EN == DEF_ENABLED)
void  CPU_TS_TmrInit (void)
{
 8000b52:	b510      	push	{r4, lr}
    CPU_INT32U  cpu_clk_freq_hz;


    DEM_CR         |= (CPU_INT32U)DEM_CR_TRCENA;                /* Enable Cortex-M3's DWT CYCCNT reg.                   */
 8000b54:	680b      	ldr	r3, [r1, #0]
    DWT_CYCCNT      = (CPU_INT32U)0u;
 8000b56:	480b      	ldr	r0, [pc, #44]	; (8000b84 <CPU_TS_TmrInit+0x34>)
    DWT_CR         |= (CPU_INT32U)DWT_CR_CYCCNTENA;
 8000b58:	4a0b      	ldr	r2, [pc, #44]	; (8000b88 <CPU_TS_TmrInit+0x38>)
{
    CPU_INT32U  cpu_clk_freq_hz;


    DEM_CR         |= (CPU_INT32U)DEM_CR_TRCENA;                /* Enable Cortex-M3's DWT CYCCNT reg.                   */
    DWT_CYCCNT      = (CPU_INT32U)0u;
 8000b5a:	2400      	movs	r4, #0
void  CPU_TS_TmrInit (void)
{
    CPU_INT32U  cpu_clk_freq_hz;


    DEM_CR         |= (CPU_INT32U)DEM_CR_TRCENA;                /* Enable Cortex-M3's DWT CYCCNT reg.                   */
 8000b5c:	f043 7380 	orr.w	r3, r3, #16777216	; 0x1000000
 8000b60:	600b      	str	r3, [r1, #0]
    DWT_CYCCNT      = (CPU_INT32U)0u;
 8000b62:	6004      	str	r4, [r0, #0]
    DWT_CR         |= (CPU_INT32U)DWT_CR_CYCCNTENA;
 8000b64:	6813      	ldr	r3, [r2, #0]
*********************************************************************************************************
*/

#if (CPU_CFG_TS_TMR_EN == DEF_ENABLED)
void  CPU_TS_TmrInit (void)
{
 8000b66:	b084      	sub	sp, #16
    CPU_INT32U  cpu_clk_freq_hz;


    DEM_CR         |= (CPU_INT32U)DEM_CR_TRCENA;                /* Enable Cortex-M3's DWT CYCCNT reg.                   */
    DWT_CYCCNT      = (CPU_INT32U)0u;
    DWT_CR         |= (CPU_INT32U)DWT_CR_CYCCNTENA;
 8000b68:	f043 0301 	orr.w	r3, r3, #1
CPU_INT32U  BSP_CPU_ClkFreq (void)
{
    RCC_ClocksTypeDef  rcc_clocks;


    RCC_GetClocksFreq(&rcc_clocks);
 8000b6c:	4668      	mov	r0, sp
    CPU_INT32U  cpu_clk_freq_hz;


    DEM_CR         |= (CPU_INT32U)DEM_CR_TRCENA;                /* Enable Cortex-M3's DWT CYCCNT reg.                   */
    DWT_CYCCNT      = (CPU_INT32U)0u;
    DWT_CR         |= (CPU_INT32U)DWT_CR_CYCCNTENA;
 8000b6e:	6013      	str	r3, [r2, #0]
CPU_INT32U  BSP_CPU_ClkFreq (void)
{
    RCC_ClocksTypeDef  rcc_clocks;


    RCC_GetClocksFreq(&rcc_clocks);
 8000b70:	f008 f8cc 	bl	8008d0c <RCC_GetClocksFreq>
    DEM_CR         |= (CPU_INT32U)DEM_CR_TRCENA;                /* Enable Cortex-M3's DWT CYCCNT reg.                   */
    DWT_CYCCNT      = (CPU_INT32U)0u;
    DWT_CR         |= (CPU_INT32U)DWT_CR_CYCCNTENA;

    cpu_clk_freq_hz = BSP_CPU_ClkFreq();
    CPU_TS_TmrFreqSet(cpu_clk_freq_hz);
 8000b74:	9801      	ldr	r0, [sp, #4]
 8000b76:	f001 f8dd 	bl	8001d34 <CPU_TS_TmrFreqSet>
}
 8000b7a:	b004      	add	sp, #16
 8000b7c:	bd10      	pop	{r4, pc}
 8000b7e:	bf00      	nop
 8000b80:	e000edfc 	.word	0xe000edfc
 8000b84:	e0001004 	.word	0xe0001004
 8000b88:	e0001000 	.word	0xe0001000

08000b8c <CPU_TS_TmrRd>:
*/

#if (CPU_CFG_TS_TMR_EN == DEF_ENABLED)
CPU_TS_TMR  CPU_TS_TmrRd (void)
{
    return ((CPU_TS_TMR)DWT_CYCCNT);
 8000b8c:	4b01      	ldr	r3, [pc, #4]	; (8000b94 <CPU_TS_TmrRd+0x8>)
 8000b8e:	6818      	ldr	r0, [r3, #0]
}
 8000b90:	4770      	bx	lr
 8000b92:	bf00      	nop
 8000b94:	e0001004 	.word	0xe0001004

08000b98 <BSP_Delay_ms>:

void BSP_Delay_ms(INT16U ms)
{
	INT16U ms_time;
	OS_ERR    os_err;
	while(ms)
 8000b98:	b1d8      	cbz	r0, 8000bd2 <BSP_Delay_ms+0x3a>

#include "bsp_delay.h"


void BSP_Delay_ms(INT16U ms)
{
 8000b9a:	e92d 41f0 	stmdb	sp!, {r4, r5, r6, r7, r8, lr}
 8000b9e:	4604      	mov	r4, r0
 8000ba0:	f240 38e7 	movw	r8, #999	; 0x3e7
 8000ba4:	b084      	sub	sp, #16
 8000ba6:	f10d 070e 	add.w	r7, sp, #14
	{
		if(ms > 999)
			ms_time = 999;
		else
			ms_time = ms;
		OSTimeDlyHMSM(0, 0, 0, ms_time,OS_OPT_TIME_HMSM_STRICT, &os_err);
 8000baa:	2600      	movs	r6, #0
 8000bac:	4544      	cmp	r4, r8
 8000bae:	4625      	mov	r5, r4
 8000bb0:	bf28      	it	cs
 8000bb2:	4645      	movcs	r5, r8
 8000bb4:	2200      	movs	r2, #0
		ms -= ms_time;
 8000bb6:	1b64      	subs	r4, r4, r5
	{
		if(ms > 999)
			ms_time = 999;
		else
			ms_time = ms;
		OSTimeDlyHMSM(0, 0, 0, ms_time,OS_OPT_TIME_HMSM_STRICT, &os_err);
 8000bb8:	e88d 00c0 	stmia.w	sp, {r6, r7}
 8000bbc:	462b      	mov	r3, r5
 8000bbe:	4611      	mov	r1, r2
 8000bc0:	4610      	mov	r0, r2
		ms -= ms_time;
 8000bc2:	b2a4      	uxth	r4, r4
	{
		if(ms > 999)
			ms_time = 999;
		else
			ms_time = ms;
		OSTimeDlyHMSM(0, 0, 0, ms_time,OS_OPT_TIME_HMSM_STRICT, &os_err);
 8000bc4:	f006 ff9e 	bl	8007b04 <OSTimeDlyHMSM>

void BSP_Delay_ms(INT16U ms)
{
	INT16U ms_time;
	OS_ERR    os_err;
	while(ms)
 8000bc8:	2c00      	cmp	r4, #0
 8000bca:	d1ef      	bne.n	8000bac <BSP_Delay_ms+0x14>
		else
			ms_time = ms;
		OSTimeDlyHMSM(0, 0, 0, ms_time,OS_OPT_TIME_HMSM_STRICT, &os_err);
		ms -= ms_time;
	}
}
 8000bcc:	b004      	add	sp, #16
 8000bce:	e8bd 81f0 	ldmia.w	sp!, {r4, r5, r6, r7, r8, pc}
 8000bd2:	4770      	bx	lr

08000bd4 <BSP_Delay_s>:

void BSP_Delay_s(INT8U sec)
{
	INT8U s_time;
	OS_ERR    os_err;
	while(sec)
 8000bd4:	b1b8      	cbz	r0, 8000c06 <BSP_Delay_s+0x32>
		ms -= ms_time;
	}
}

void BSP_Delay_s(INT8U sec)
{
 8000bd6:	b5f0      	push	{r4, r5, r6, r7, lr}
 8000bd8:	4604      	mov	r4, r0
 8000bda:	b085      	sub	sp, #20
 8000bdc:	f10d 070e 	add.w	r7, sp, #14
	{
		if(sec > 59)
			s_time = 59;
		else
			s_time = sec;
		OSTimeDlyHMSM(0, 0, s_time, 0,OS_OPT_TIME_HMSM_STRICT, &os_err);
 8000be0:	2600      	movs	r6, #0
 8000be2:	4625      	mov	r5, r4
 8000be4:	2c3b      	cmp	r4, #59	; 0x3b
 8000be6:	bf28      	it	cs
 8000be8:	253b      	movcs	r5, #59	; 0x3b
 8000bea:	2300      	movs	r3, #0
 8000bec:	e88d 00c0 	stmia.w	sp, {r6, r7}
 8000bf0:	462a      	mov	r2, r5
 8000bf2:	4619      	mov	r1, r3
 8000bf4:	4618      	mov	r0, r3
		sec -= s_time;
 8000bf6:	1b64      	subs	r4, r4, r5
	{
		if(sec > 59)
			s_time = 59;
		else
			s_time = sec;
		OSTimeDlyHMSM(0, 0, s_time, 0,OS_OPT_TIME_HMSM_STRICT, &os_err);
 8000bf8:	f006 ff84 	bl	8007b04 <OSTimeDlyHMSM>

void BSP_Delay_s(INT8U sec)
{
	INT8U s_time;
	OS_ERR    os_err;
	while(sec)
 8000bfc:	f014 04ff 	ands.w	r4, r4, #255	; 0xff
 8000c00:	d1ef      	bne.n	8000be2 <BSP_Delay_s+0xe>
		else
			s_time = sec;
		OSTimeDlyHMSM(0, 0, s_time, 0,OS_OPT_TIME_HMSM_STRICT, &os_err);
		sec -= s_time;
	}
}
 8000c02:	b005      	add	sp, #20
 8000c04:	bdf0      	pop	{r4, r5, r6, r7, pc}
 8000c06:	4770      	bx	lr

08000c08 <BSP_Delay_us>:

void BSP_Delay_us(INT32U us)
{
 8000c08:	4770      	bx	lr
 8000c0a:	bf00      	nop

08000c0c <BSP_IntHandlerDummy>:
* Note(s)     : none.
*********************************************************************************************************
*/

static  void  BSP_IntHandlerDummy (void)
{
 8000c0c:	4770      	bx	lr
 8000c0e:	bf00      	nop

08000c10 <BSP_IntHandler>:
* Note(s)     : none.
*********************************************************************************************************
*/

static  void  BSP_IntHandler (CPU_DATA  int_id)
{
 8000c10:	b538      	push	{r3, r4, r5, lr}
 8000c12:	4604      	mov	r4, r0
    CPU_FNCT_VOID  isr;
    CPU_SR_ALLOC();


    CPU_CRITICAL_ENTER();                                       /* Tell the OS that we are starting an ISR            */
 8000c14:	f000 fdae 	bl	8001774 <CPU_SR_Save>
 8000c18:	4605      	mov	r5, r0

    OSIntEnter();
 8000c1a:	f002 ff29 	bl	8003a70 <OSIntEnter>

    CPU_CRITICAL_EXIT();
 8000c1e:	4628      	mov	r0, r5
 8000c20:	f000 fdac 	bl	800177c <CPU_SR_Restore>

    if (int_id < BSP_INT_SRC_NBR) {
 8000c24:	2c50      	cmp	r4, #80	; 0x50
 8000c26:	d804      	bhi.n	8000c32 <BSP_IntHandler+0x22>
        isr = BSP_IntVectTbl[int_id];
 8000c28:	4b04      	ldr	r3, [pc, #16]	; (8000c3c <BSP_IntHandler+0x2c>)
 8000c2a:	f853 3024 	ldr.w	r3, [r3, r4, lsl #2]
        if (isr != (CPU_FNCT_VOID)0) {
 8000c2e:	b103      	cbz	r3, 8000c32 <BSP_IntHandler+0x22>
            isr();
 8000c30:	4798      	blx	r3
        }
    }

    OSIntExit();                                                /* Tell the OS that we are leaving the ISR            */
}
 8000c32:	e8bd 4038 	ldmia.w	sp!, {r3, r4, r5, lr}
        if (isr != (CPU_FNCT_VOID)0) {
            isr();
        }
    }

    OSIntExit();                                                /* Tell the OS that we are leaving the ISR            */
 8000c36:	f002 bf2b 	b.w	8003a90 <OSIntExit>
 8000c3a:	bf00      	nop
 8000c3c:	20000220 	.word	0x20000220

08000c40 <BSP_IntClr>:
* Note(s)     : (1) An interrupt does not need to be cleared within the interrupt controller.
*********************************************************************************************************
*/

void  BSP_IntClr (CPU_DATA  int_id)
{
 8000c40:	4770      	bx	lr
 8000c42:	bf00      	nop

08000c44 <BSP_IntDis>:
*********************************************************************************************************
*/

void  BSP_IntDis (CPU_DATA  int_id)
{
    if (int_id < BSP_INT_SRC_NBR) {
 8000c44:	2850      	cmp	r0, #80	; 0x50
 8000c46:	d900      	bls.n	8000c4a <BSP_IntDis+0x6>
 8000c48:	4770      	bx	lr
        CPU_IntSrcDis(int_id + 16);
 8000c4a:	3010      	adds	r0, #16
 8000c4c:	b2c0      	uxtb	r0, r0
 8000c4e:	f000 bddb 	b.w	8001808 <CPU_IntSrcDis>
 8000c52:	bf00      	nop

08000c54 <BSP_IntDisAll>:
*********************************************************************************************************
*/

void  BSP_IntDisAll (void)
{
    CPU_IntDis();
 8000c54:	f000 bd8a 	b.w	800176c <CPU_IntDis>

08000c58 <BSP_IntEn>:
*********************************************************************************************************
*/

void  BSP_IntEn (CPU_DATA  int_id)
{
    if (int_id < BSP_INT_SRC_NBR) {
 8000c58:	2850      	cmp	r0, #80	; 0x50
 8000c5a:	d900      	bls.n	8000c5e <BSP_IntEn+0x6>
 8000c5c:	4770      	bx	lr
        CPU_IntSrcEn(int_id + 16);
 8000c5e:	3010      	adds	r0, #16
 8000c60:	b2c0      	uxtb	r0, r0
 8000c62:	f000 be3f 	b.w	80018e4 <CPU_IntSrcEn>
 8000c66:	bf00      	nop

08000c68 <BSP_IntVectSet>:
                      CPU_FNCT_VOID  isr)
{
    CPU_SR_ALLOC();


    if (int_id < BSP_INT_SRC_NBR) {
 8000c68:	2850      	cmp	r0, #80	; 0x50
 8000c6a:	d900      	bls.n	8000c6e <BSP_IntVectSet+0x6>
 8000c6c:	4770      	bx	lr
*********************************************************************************************************
*/

void  BSP_IntVectSet (CPU_DATA       int_id,
                      CPU_FNCT_VOID  isr)
{
 8000c6e:	b538      	push	{r3, r4, r5, lr}
 8000c70:	460d      	mov	r5, r1
 8000c72:	4604      	mov	r4, r0
    CPU_SR_ALLOC();


    if (int_id < BSP_INT_SRC_NBR) {
        CPU_CRITICAL_ENTER();
 8000c74:	f000 fd7e 	bl	8001774 <CPU_SR_Save>
        BSP_IntVectTbl[int_id] = isr;
 8000c78:	4b03      	ldr	r3, [pc, #12]	; (8000c88 <BSP_IntVectSet+0x20>)
 8000c7a:	f843 5024 	str.w	r5, [r3, r4, lsl #2]
        CPU_CRITICAL_EXIT();
    }
}
 8000c7e:	e8bd 4038 	ldmia.w	sp!, {r3, r4, r5, lr}


    if (int_id < BSP_INT_SRC_NBR) {
        CPU_CRITICAL_ENTER();
        BSP_IntVectTbl[int_id] = isr;
        CPU_CRITICAL_EXIT();
 8000c82:	f000 bd7b 	b.w	800177c <CPU_SR_Restore>
 8000c86:	bf00      	nop
 8000c88:	20000220 	.word	0x20000220

08000c8c <BSP_IntPrioSet>:
                      CPU_INT08U  prio)
{
    CPU_SR_ALLOC();


    if (int_id < BSP_INT_SRC_NBR) {
 8000c8c:	2850      	cmp	r0, #80	; 0x50
 8000c8e:	d900      	bls.n	8000c92 <BSP_IntPrioSet+0x6>
 8000c90:	4770      	bx	lr
*********************************************************************************************************
*/

void  BSP_IntPrioSet (CPU_DATA    int_id,
                      CPU_INT08U  prio)
{
 8000c92:	b570      	push	{r4, r5, r6, lr}
 8000c94:	460d      	mov	r5, r1
 8000c96:	4604      	mov	r4, r0
    CPU_SR_ALLOC();


    if (int_id < BSP_INT_SRC_NBR) {
        CPU_CRITICAL_ENTER();
 8000c98:	f000 fd6c 	bl	8001774 <CPU_SR_Save>
 8000c9c:	4606      	mov	r6, r0
        CPU_IntSrcPrioSet(int_id + 16, prio);
 8000c9e:	f104 0010 	add.w	r0, r4, #16
 8000ca2:	b2c0      	uxtb	r0, r0
 8000ca4:	4629      	mov	r1, r5
 8000ca6:	f000 fec1 	bl	8001a2c <CPU_IntSrcPrioSet>
        CPU_CRITICAL_EXIT();
 8000caa:	4630      	mov	r0, r6
    }
}
 8000cac:	e8bd 4070 	ldmia.w	sp!, {r4, r5, r6, lr}


    if (int_id < BSP_INT_SRC_NBR) {
        CPU_CRITICAL_ENTER();
        CPU_IntSrcPrioSet(int_id + 16, prio);
        CPU_CRITICAL_EXIT();
 8000cb0:	f000 bd64 	b.w	800177c <CPU_SR_Restore>

08000cb4 <BSP_IntInit>:
* Note(s)     : none.
*********************************************************************************************************
*/

void  BSP_IntInit (void)
{
 8000cb4:	b570      	push	{r4, r5, r6, lr}
 8000cb6:	4c06      	ldr	r4, [pc, #24]	; (8000cd0 <BSP_IntInit+0x1c>)
 8000cb8:	4e06      	ldr	r6, [pc, #24]	; (8000cd4 <BSP_IntInit+0x20>)
 8000cba:	f504 75a2 	add.w	r5, r4, #324	; 0x144
{
    CPU_SR_ALLOC();


    if (int_id < BSP_INT_SRC_NBR) {
        CPU_CRITICAL_ENTER();
 8000cbe:	f000 fd59 	bl	8001774 <CPU_SR_Save>
        BSP_IntVectTbl[int_id] = isr;
 8000cc2:	f844 6f04 	str.w	r6, [r4, #4]!
        CPU_CRITICAL_EXIT();
 8000cc6:	f000 fd59 	bl	800177c <CPU_SR_Restore>
void  BSP_IntInit (void)
{
    CPU_DATA  int_id;


    for (int_id = 0; int_id < BSP_INT_SRC_NBR; int_id++) {
 8000cca:	42ac      	cmp	r4, r5
 8000ccc:	d1f7      	bne.n	8000cbe <BSP_IntInit+0xa>
        BSP_IntVectSet(int_id, BSP_IntHandlerDummy);
    }

    //BSP_IntVectSet(BSP_INT_ID_EXTI15_10, BSP_EXTI_15_10_IntHandler);
	//BSP_IntEn(BSP_INT_ID_EXTI15_10);
}
 8000cce:	bd70      	pop	{r4, r5, r6, pc}
 8000cd0:	2000021c 	.word	0x2000021c
 8000cd4:	08000c0d 	.word	0x08000c0d

08000cd8 <BSP_IntHandlerWWDG>:
*
* Note(s)     : none.
*********************************************************************************************************
*/

void  BSP_IntHandlerWWDG               (void)  { BSP_IntHandler(BSP_INT_ID_WWDG);                }
 8000cd8:	2000      	movs	r0, #0
 8000cda:	e799      	b.n	8000c10 <BSP_IntHandler>

08000cdc <BSP_IntHandlerPVD>:
void  BSP_IntHandlerPVD                (void)  { BSP_IntHandler(BSP_INT_ID_PVD);                 }
 8000cdc:	2001      	movs	r0, #1
 8000cde:	e797      	b.n	8000c10 <BSP_IntHandler>

08000ce0 <BSP_IntHandlerTAMPER>:
void  BSP_IntHandlerTAMPER             (void)  { BSP_IntHandler(BSP_INT_ID_TAMPER);              }
 8000ce0:	2002      	movs	r0, #2
 8000ce2:	e795      	b.n	8000c10 <BSP_IntHandler>

08000ce4 <BSP_IntHandlerRTC>:
void  BSP_IntHandlerRTC                (void)  { BSP_IntHandler(BSP_INT_ID_RTC);                 }
 8000ce4:	2003      	movs	r0, #3
 8000ce6:	e793      	b.n	8000c10 <BSP_IntHandler>

08000ce8 <BSP_IntHandlerFLASH>:
void  BSP_IntHandlerFLASH              (void)  { BSP_IntHandler(BSP_INT_ID_FLASH);               }
 8000ce8:	2004      	movs	r0, #4
 8000cea:	e791      	b.n	8000c10 <BSP_IntHandler>

08000cec <BSP_IntHandlerRCC>:
void  BSP_IntHandlerRCC                (void)  { BSP_IntHandler(BSP_INT_ID_RCC);                 }
 8000cec:	2005      	movs	r0, #5
 8000cee:	e78f      	b.n	8000c10 <BSP_IntHandler>

08000cf0 <BSP_IntHandlerEXTI0>:
void  BSP_IntHandlerEXTI0              (void)  { BSP_IntHandler(BSP_INT_ID_EXTI0);               }
 8000cf0:	2006      	movs	r0, #6
 8000cf2:	e78d      	b.n	8000c10 <BSP_IntHandler>

08000cf4 <BSP_IntHandlerEXTI1>:
void  BSP_IntHandlerEXTI1              (void)  { BSP_IntHandler(BSP_INT_ID_EXTI1);               }
 8000cf4:	2007      	movs	r0, #7
 8000cf6:	e78b      	b.n	8000c10 <BSP_IntHandler>

08000cf8 <BSP_IntHandlerEXTI2>:
void  BSP_IntHandlerEXTI2              (void)  { BSP_IntHandler(BSP_INT_ID_EXTI2);               }
 8000cf8:	2008      	movs	r0, #8
 8000cfa:	e789      	b.n	8000c10 <BSP_IntHandler>

08000cfc <BSP_IntHandlerEXTI3>:
void  BSP_IntHandlerEXTI3              (void)  { BSP_IntHandler(BSP_INT_ID_EXTI3);               }
 8000cfc:	2009      	movs	r0, #9
 8000cfe:	e787      	b.n	8000c10 <BSP_IntHandler>

08000d00 <BSP_IntHandlerEXTI4>:
void  BSP_IntHandlerEXTI4              (void)  { BSP_IntHandler(BSP_INT_ID_EXTI4);               }
 8000d00:	200a      	movs	r0, #10
 8000d02:	e785      	b.n	8000c10 <BSP_IntHandler>

08000d04 <BSP_IntHandlerDMA1_CH1>:
void  BSP_IntHandlerDMA1_CH1           (void)  { BSP_IntHandler(BSP_INT_ID_DMA1_CH1);            }
 8000d04:	200b      	movs	r0, #11
 8000d06:	e783      	b.n	8000c10 <BSP_IntHandler>

08000d08 <BSP_IntHandlerDMA1_CH2>:
void  BSP_IntHandlerDMA1_CH2           (void)  { BSP_IntHandler(BSP_INT_ID_DMA1_CH2);            }
 8000d08:	200c      	movs	r0, #12
 8000d0a:	e781      	b.n	8000c10 <BSP_IntHandler>

08000d0c <BSP_IntHandlerDMA1_CH3>:
void  BSP_IntHandlerDMA1_CH3           (void)  { BSP_IntHandler(BSP_INT_ID_DMA1_CH3);            }
 8000d0c:	200d      	movs	r0, #13
 8000d0e:	e77f      	b.n	8000c10 <BSP_IntHandler>

08000d10 <BSP_IntHandlerDMA1_CH4>:
void  BSP_IntHandlerDMA1_CH4           (void)  { BSP_IntHandler(BSP_INT_ID_DMA1_CH4);            }
 8000d10:	200e      	movs	r0, #14
 8000d12:	e77d      	b.n	8000c10 <BSP_IntHandler>

08000d14 <BSP_IntHandlerDMA1_CH5>:
void  BSP_IntHandlerDMA1_CH5           (void)  { BSP_IntHandler(BSP_INT_ID_DMA1_CH5);            }
 8000d14:	200f      	movs	r0, #15
 8000d16:	e77b      	b.n	8000c10 <BSP_IntHandler>

08000d18 <BSP_IntHandlerDMA1_CH6>:
void  BSP_IntHandlerDMA1_CH6           (void)  { BSP_IntHandler(BSP_INT_ID_DMA1_CH6);            }
 8000d18:	2010      	movs	r0, #16
 8000d1a:	e779      	b.n	8000c10 <BSP_IntHandler>

08000d1c <BSP_IntHandlerDMA1_CH7>:
void  BSP_IntHandlerDMA1_CH7           (void)  { BSP_IntHandler(BSP_INT_ID_DMA1_CH7);            }
 8000d1c:	2011      	movs	r0, #17
 8000d1e:	e777      	b.n	8000c10 <BSP_IntHandler>

08000d20 <BSP_IntHandlerADC1_2>:
void  BSP_IntHandlerADC1_2             (void)  { BSP_IntHandler(BSP_INT_ID_ADC1_2);              }
 8000d20:	2012      	movs	r0, #18
 8000d22:	e775      	b.n	8000c10 <BSP_IntHandler>

08000d24 <BSP_IntHandlerCAN1_TX>:
void  BSP_IntHandlerCAN1_TX            (void)  { BSP_IntHandler(BSP_INT_ID_CAN1_TX);             }
 8000d24:	2013      	movs	r0, #19
 8000d26:	e773      	b.n	8000c10 <BSP_IntHandler>

08000d28 <BSP_IntHandlerCAN1_RX0>:
void  BSP_IntHandlerCAN1_RX0           (void)  { BSP_IntHandler(BSP_INT_ID_CAN1_RX0);            }
 8000d28:	2014      	movs	r0, #20
 8000d2a:	e771      	b.n	8000c10 <BSP_IntHandler>

08000d2c <BSP_IntHandlerCAN1_RX1>:
void  BSP_IntHandlerCAN1_RX1           (void)  { BSP_IntHandler(BSP_INT_ID_CAN1_RX1);            }
 8000d2c:	2015      	movs	r0, #21
 8000d2e:	e76f      	b.n	8000c10 <BSP_IntHandler>

08000d30 <BSP_IntHandlerCAN1_SCE>:
void  BSP_IntHandlerCAN1_SCE           (void)  { BSP_IntHandler(BSP_INT_ID_CAN1_SCE);            }
 8000d30:	2016      	movs	r0, #22
 8000d32:	e76d      	b.n	8000c10 <BSP_IntHandler>

08000d34 <BSP_IntHandlerEXTI9_5>:
void  BSP_IntHandlerEXTI9_5            (void)  { BSP_IntHandler(BSP_INT_ID_EXTI9_5);             }
 8000d34:	2017      	movs	r0, #23
 8000d36:	e76b      	b.n	8000c10 <BSP_IntHandler>

08000d38 <BSP_IntHandlerTIM1_BRK>:
void  BSP_IntHandlerTIM1_BRK           (void)  { BSP_IntHandler(BSP_INT_ID_TIM1_BRK);            }
 8000d38:	2018      	movs	r0, #24
 8000d3a:	e769      	b.n	8000c10 <BSP_IntHandler>

08000d3c <BSP_IntHandlerTIM1_UP>:
void  BSP_IntHandlerTIM1_UP            (void)  { BSP_IntHandler(BSP_INT_ID_TIM1_UP);             }
 8000d3c:	2019      	movs	r0, #25
 8000d3e:	e767      	b.n	8000c10 <BSP_IntHandler>

08000d40 <BSP_IntHandlerTIM1_TRG_COM>:
void  BSP_IntHandlerTIM1_TRG_COM       (void)  { BSP_IntHandler(BSP_INT_ID_TIM1_TRG_COM);        }
 8000d40:	201a      	movs	r0, #26
 8000d42:	e765      	b.n	8000c10 <BSP_IntHandler>

08000d44 <BSP_IntHandlerTIM1_CC>:
void  BSP_IntHandlerTIM1_CC            (void)  { BSP_IntHandler(BSP_INT_ID_TIM1_CC);             }
 8000d44:	201b      	movs	r0, #27
 8000d46:	e763      	b.n	8000c10 <BSP_IntHandler>

08000d48 <BSP_IntHandlerTIM2>:
void  BSP_IntHandlerTIM2               (void)  { BSP_IntHandler(BSP_INT_ID_TIM2);                }
 8000d48:	201c      	movs	r0, #28
 8000d4a:	e761      	b.n	8000c10 <BSP_IntHandler>

08000d4c <BSP_IntHandlerTIM3>:
void  BSP_IntHandlerTIM3               (void)  { BSP_IntHandler(BSP_INT_ID_TIM3);                }
 8000d4c:	201d      	movs	r0, #29
 8000d4e:	e75f      	b.n	8000c10 <BSP_IntHandler>

08000d50 <BSP_IntHandlerTIM4>:
void  BSP_IntHandlerTIM4               (void)  { BSP_IntHandler(BSP_INT_ID_TIM4);                }
 8000d50:	201e      	movs	r0, #30
 8000d52:	e75d      	b.n	8000c10 <BSP_IntHandler>

08000d54 <BSP_IntHandlerI2C1_EV>:
void  BSP_IntHandlerI2C1_EV            (void)  { BSP_IntHandler(BSP_INT_ID_I2C1_EV);             }
 8000d54:	201f      	movs	r0, #31
 8000d56:	e75b      	b.n	8000c10 <BSP_IntHandler>

08000d58 <BSP_IntHandlerI2C1_ER>:
void  BSP_IntHandlerI2C1_ER            (void)  { BSP_IntHandler(BSP_INT_ID_I2C1_ER);             }
 8000d58:	2020      	movs	r0, #32
 8000d5a:	e759      	b.n	8000c10 <BSP_IntHandler>

08000d5c <BSP_IntHandlerI2C2_EV>:
void  BSP_IntHandlerI2C2_EV            (void)  { BSP_IntHandler(BSP_INT_ID_I2C2_EV);             }
 8000d5c:	2021      	movs	r0, #33	; 0x21
 8000d5e:	e757      	b.n	8000c10 <BSP_IntHandler>

08000d60 <BSP_IntHandlerI2C2_ER>:
void  BSP_IntHandlerI2C2_ER            (void)  { BSP_IntHandler(BSP_INT_ID_I2C2_ER);             }
 8000d60:	2022      	movs	r0, #34	; 0x22
 8000d62:	e755      	b.n	8000c10 <BSP_IntHandler>

08000d64 <BSP_IntHandlerSPI1>:
void  BSP_IntHandlerSPI1               (void)  { BSP_IntHandler(BSP_INT_ID_SPI1);                }
 8000d64:	2023      	movs	r0, #35	; 0x23
 8000d66:	e753      	b.n	8000c10 <BSP_IntHandler>

08000d68 <BSP_IntHandlerSPI2>:
void  BSP_IntHandlerSPI2               (void)  { BSP_IntHandler(BSP_INT_ID_SPI2);                }
 8000d68:	2024      	movs	r0, #36	; 0x24
 8000d6a:	e751      	b.n	8000c10 <BSP_IntHandler>

08000d6c <BSP_IntHandlerUSART1>:
void  BSP_IntHandlerUSART1             (void)  { BSP_IntHandler(BSP_INT_ID_USART1);              }
 8000d6c:	2025      	movs	r0, #37	; 0x25
 8000d6e:	e74f      	b.n	8000c10 <BSP_IntHandler>

08000d70 <BSP_IntHandlerUSART2>:
void  BSP_IntHandlerUSART2             (void)  { BSP_IntHandler(BSP_INT_ID_USART2);              }
 8000d70:	2026      	movs	r0, #38	; 0x26
 8000d72:	e74d      	b.n	8000c10 <BSP_IntHandler>

08000d74 <BSP_IntHandlerUSART3>:
void  BSP_IntHandlerUSART3             (void)  { BSP_IntHandler(BSP_INT_ID_USART3);              }
 8000d74:	2027      	movs	r0, #39	; 0x27
 8000d76:	e74b      	b.n	8000c10 <BSP_IntHandler>

08000d78 <BSP_IntHandlerEXTI15_10>:
void  BSP_IntHandlerEXTI15_10          (void)  { BSP_IntHandler(BSP_INT_ID_EXTI15_10);           }
 8000d78:	2028      	movs	r0, #40	; 0x28
 8000d7a:	e749      	b.n	8000c10 <BSP_IntHandler>

08000d7c <BSP_IntHandlerRTCAlarm>:
void  BSP_IntHandlerRTCAlarm           (void)  { BSP_IntHandler(BSP_INT_ID_RTC_ALARM);           }
 8000d7c:	2029      	movs	r0, #41	; 0x29
 8000d7e:	e747      	b.n	8000c10 <BSP_IntHandler>

08000d80 <BSP_IntHandlerUSBWakeUp>:
void  BSP_IntHandlerUSBWakeUp          (void)  { BSP_IntHandler(BSP_INT_ID_OTG_FS_WKUP);         }
 8000d80:	202a      	movs	r0, #42	; 0x2a
 8000d82:	e745      	b.n	8000c10 <BSP_IntHandler>

08000d84 <BSP_IntHandlerTIM8_BRK_TIM12>:
void  BSP_IntHandlerTIM8_BRK_TIM12     (void)  { BSP_IntHandler(BSP_INT_ID_TIM8_BRK_TIM12);      }
 8000d84:	202b      	movs	r0, #43	; 0x2b
 8000d86:	e743      	b.n	8000c10 <BSP_IntHandler>

08000d88 <BSP_IntHandlerTIM8_UP_TIM13>:
void  BSP_IntHandlerTIM8_UP_TIM13      (void)  { BSP_IntHandler(BSP_INT_ID_TIM8_UP_TIM13);       }
 8000d88:	202c      	movs	r0, #44	; 0x2c
 8000d8a:	e741      	b.n	8000c10 <BSP_IntHandler>

08000d8c <BSP_IntHandlerTIM8_TRG_COM_TIM14>:
void  BSP_IntHandlerTIM8_TRG_COM_TIM14 (void)  { BSP_IntHandler(BSP_INT_ID_TIM8_TRG_COM_TIM14);  }
 8000d8c:	202d      	movs	r0, #45	; 0x2d
 8000d8e:	e73f      	b.n	8000c10 <BSP_IntHandler>

08000d90 <BSP_IntHandlerTIM8_CC>:
void  BSP_IntHandlerTIM8_CC            (void)  { BSP_IntHandler(BSP_INT_ID_TIM8_CC);             }
 8000d90:	202e      	movs	r0, #46	; 0x2e
 8000d92:	e73d      	b.n	8000c10 <BSP_IntHandler>

08000d94 <BSP_IntHandlerDMA1_STREAM7>:
void  BSP_IntHandlerDMA1_STREAM7       (void)  { BSP_IntHandler(BSP_INT_ID_DMA1_STREAM7);        }
 8000d94:	202f      	movs	r0, #47	; 0x2f
 8000d96:	e73b      	b.n	8000c10 <BSP_IntHandler>

08000d98 <BSP_IntHandlerFSMC>:
void  BSP_IntHandlerFSMC               (void)  { BSP_IntHandler(BSP_INT_ID_FSMC);                }
 8000d98:	2030      	movs	r0, #48	; 0x30
 8000d9a:	e739      	b.n	8000c10 <BSP_IntHandler>

08000d9c <BSP_IntHandlerSDIO>:
void  BSP_IntHandlerSDIO               (void)  { BSP_IntHandler(BSP_INT_ID_SDIO);                }
 8000d9c:	2031      	movs	r0, #49	; 0x31
 8000d9e:	e737      	b.n	8000c10 <BSP_IntHandler>

08000da0 <BSP_IntHandlerTIM5>:
void  BSP_IntHandlerTIM5               (void)  { BSP_IntHandler(BSP_INT_ID_TIM5);                }
 8000da0:	2032      	movs	r0, #50	; 0x32
 8000da2:	e735      	b.n	8000c10 <BSP_IntHandler>

08000da4 <BSP_IntHandlerSPI3>:
void  BSP_IntHandlerSPI3               (void)  { BSP_IntHandler(BSP_INT_ID_SPI3);                }
 8000da4:	2033      	movs	r0, #51	; 0x33
 8000da6:	e733      	b.n	8000c10 <BSP_IntHandler>

08000da8 <BSP_IntHandlerUSART4>:
void  BSP_IntHandlerUSART4             (void)  { BSP_IntHandler(BSP_INT_ID_USART4);              }
 8000da8:	2034      	movs	r0, #52	; 0x34
 8000daa:	e731      	b.n	8000c10 <BSP_IntHandler>

08000dac <BSP_IntHandlerUSART5>:
void  BSP_IntHandlerUSART5             (void)  { BSP_IntHandler(BSP_INT_ID_USART5);              }
 8000dac:	2035      	movs	r0, #53	; 0x35
 8000dae:	e72f      	b.n	8000c10 <BSP_IntHandler>

08000db0 <BSP_IntHandlerTIM6>:
void  BSP_IntHandlerTIM6               (void)  { BSP_IntHandler(BSP_INT_ID_TIM6);                }
 8000db0:	2036      	movs	r0, #54	; 0x36
 8000db2:	e72d      	b.n	8000c10 <BSP_IntHandler>

08000db4 <BSP_IntHandlerTIM7>:
void  BSP_IntHandlerTIM7               (void)  { BSP_IntHandler(BSP_INT_ID_TIM7);                }
 8000db4:	2037      	movs	r0, #55	; 0x37
 8000db6:	e72b      	b.n	8000c10 <BSP_IntHandler>

08000db8 <BSP_IntHandlerDMA2_CH1>:
void  BSP_IntHandlerDMA2_CH1           (void)  { BSP_IntHandler(BSP_INT_ID_DMA2_CH1);            }
 8000db8:	2038      	movs	r0, #56	; 0x38
 8000dba:	e729      	b.n	8000c10 <BSP_IntHandler>

08000dbc <BSP_IntHandlerDMA2_CH2>:
void  BSP_IntHandlerDMA2_CH2           (void)  { BSP_IntHandler(BSP_INT_ID_DMA2_CH2);            }
 8000dbc:	2039      	movs	r0, #57	; 0x39
 8000dbe:	e727      	b.n	8000c10 <BSP_IntHandler>

08000dc0 <BSP_IntHandlerDMA2_CH3>:
void  BSP_IntHandlerDMA2_CH3           (void)  { BSP_IntHandler(BSP_INT_ID_DMA2_CH3);            }
 8000dc0:	203a      	movs	r0, #58	; 0x3a
 8000dc2:	e725      	b.n	8000c10 <BSP_IntHandler>

08000dc4 <BSP_IntHandlerDMA2_CH4>:
void  BSP_IntHandlerDMA2_CH4           (void)  { BSP_IntHandler(BSP_INT_ID_DMA2_CH4);            }
 8000dc4:	203b      	movs	r0, #59	; 0x3b
 8000dc6:	e723      	b.n	8000c10 <BSP_IntHandler>

08000dc8 <BSP_IntHandlerDMA2_CH5>:
void  BSP_IntHandlerDMA2_CH5           (void)  { BSP_IntHandler(BSP_INT_ID_DMA2_CH5);            }
 8000dc8:	203c      	movs	r0, #60	; 0x3c
 8000dca:	e721      	b.n	8000c10 <BSP_IntHandler>

08000dcc <BSP_IntHandlerETH>:
void  BSP_IntHandlerETH                (void)  { BSP_IntHandler(BSP_INT_ID_ETH);                 }
 8000dcc:	203d      	movs	r0, #61	; 0x3d
 8000dce:	e71f      	b.n	8000c10 <BSP_IntHandler>

08000dd0 <BSP_IntHandlerETHWakeup>:
void  BSP_IntHandlerETHWakeup          (void)  { BSP_IntHandler(BSP_INT_ID_ETH_WKUP);            }
 8000dd0:	203e      	movs	r0, #62	; 0x3e
 8000dd2:	e71d      	b.n	8000c10 <BSP_IntHandler>

08000dd4 <BSP_IntHandlerCAN2_TX>:
void  BSP_IntHandlerCAN2_TX            (void)  { BSP_IntHandler(BSP_INT_ID_CAN2_TX);             }
 8000dd4:	203f      	movs	r0, #63	; 0x3f
 8000dd6:	e71b      	b.n	8000c10 <BSP_IntHandler>

08000dd8 <BSP_IntHandlerCAN2_RX0>:
void  BSP_IntHandlerCAN2_RX0           (void)  { BSP_IntHandler(BSP_INT_ID_CAN2_RX0);            }
 8000dd8:	2040      	movs	r0, #64	; 0x40
 8000dda:	e719      	b.n	8000c10 <BSP_IntHandler>

08000ddc <BSP_IntHandlerCAN2_RX1>:
void  BSP_IntHandlerCAN2_RX1           (void)  { BSP_IntHandler(BSP_INT_ID_CAN2_RX1);            }
 8000ddc:	2041      	movs	r0, #65	; 0x41
 8000dde:	e717      	b.n	8000c10 <BSP_IntHandler>

08000de0 <BSP_IntHandlerCAN2_SCE>:
void  BSP_IntHandlerCAN2_SCE           (void)  { BSP_IntHandler(BSP_INT_ID_CAN2_SCE);            }
 8000de0:	2042      	movs	r0, #66	; 0x42
 8000de2:	e715      	b.n	8000c10 <BSP_IntHandler>

08000de4 <BSP_IntHandlerOTG>:
void  BSP_IntHandlerOTG                (void)  { BSP_IntHandler(BSP_INT_ID_OTG_FS);              }
 8000de4:	2043      	movs	r0, #67	; 0x43
 8000de6:	e713      	b.n	8000c10 <BSP_IntHandler>

08000de8 <BSP_IntHandlerDMA2_CH6>:
void  BSP_IntHandlerDMA2_CH6           (void)  { BSP_IntHandler(BSP_INT_ID_DMA2_CH6);            }
 8000de8:	2044      	movs	r0, #68	; 0x44
 8000dea:	e711      	b.n	8000c10 <BSP_IntHandler>

08000dec <BSP_IntHandlerDMA2_CH7>:
void  BSP_IntHandlerDMA2_CH7           (void)  { BSP_IntHandler(BSP_INT_ID_DMA2_CH7);            }
 8000dec:	2045      	movs	r0, #69	; 0x45
 8000dee:	e70f      	b.n	8000c10 <BSP_IntHandler>

08000df0 <BSP_IntHandlerDMA2_CH8>:
void  BSP_IntHandlerDMA2_CH8           (void)  { BSP_IntHandler(BSP_INT_ID_DMA2_CH8);            }
 8000df0:	2046      	movs	r0, #70	; 0x46
 8000df2:	e70d      	b.n	8000c10 <BSP_IntHandler>

08000df4 <BSP_IntHandlerUSART6>:
void  BSP_IntHandlerUSART6             (void)  { BSP_IntHandler(BSP_INT_ID_USART6);              }
 8000df4:	2047      	movs	r0, #71	; 0x47
 8000df6:	e70b      	b.n	8000c10 <BSP_IntHandler>

08000df8 <BSP_IntHandlerI2C3_EV>:
void  BSP_IntHandlerI2C3_EV            (void)  { BSP_IntHandler(BSP_INT_ID_I2C3_EV);             }
 8000df8:	2048      	movs	r0, #72	; 0x48
 8000dfa:	e709      	b.n	8000c10 <BSP_IntHandler>

08000dfc <BSP_IntHandlerI2C3_ER>:
void  BSP_IntHandlerI2C3_ER            (void)  { BSP_IntHandler(BSP_INT_ID_I2C3_ER);             }
 8000dfc:	2049      	movs	r0, #73	; 0x49
 8000dfe:	e707      	b.n	8000c10 <BSP_IntHandler>

08000e00 <BSP_IntHandlerOTG_HS_EP1_OUT>:
void  BSP_IntHandlerOTG_HS_EP1_OUT     (void)  { BSP_IntHandler(BSP_INT_ID_OTG_HS_EP1_OUT);      }
 8000e00:	204a      	movs	r0, #74	; 0x4a
 8000e02:	e705      	b.n	8000c10 <BSP_IntHandler>

08000e04 <BSP_IntHandlerOTG_HS_EP1_IN>:
void  BSP_IntHandlerOTG_HS_EP1_IN      (void)  { BSP_IntHandler(BSP_INT_ID_OTG_HS_EP1_IN);       }
 8000e04:	204b      	movs	r0, #75	; 0x4b
 8000e06:	e703      	b.n	8000c10 <BSP_IntHandler>

08000e08 <BSP_IntHandlerOTG_HS_WKUP>:
void  BSP_IntHandlerOTG_HS_WKUP        (void)  { BSP_IntHandler(BSP_INT_ID_OTG_HS_WKUP);         }
 8000e08:	204c      	movs	r0, #76	; 0x4c
 8000e0a:	e701      	b.n	8000c10 <BSP_IntHandler>

08000e0c <BSP_IntHandlerOTG_HS>:
void  BSP_IntHandlerOTG_HS             (void)  { BSP_IntHandler(BSP_INT_ID_OTG_HS);              }
 8000e0c:	204d      	movs	r0, #77	; 0x4d
 8000e0e:	e6ff      	b.n	8000c10 <BSP_IntHandler>

08000e10 <BSP_IntHandlerDCMI>:
void  BSP_IntHandlerDCMI               (void)  { BSP_IntHandler(BSP_INT_ID_DCMI);                }
 8000e10:	204e      	movs	r0, #78	; 0x4e
 8000e12:	e6fd      	b.n	8000c10 <BSP_IntHandler>

08000e14 <BSP_IntHandlerCRYP>:
void  BSP_IntHandlerCRYP               (void)  { BSP_IntHandler(BSP_INT_ID_CRYP);                }
 8000e14:	204f      	movs	r0, #79	; 0x4f
 8000e16:	e6fb      	b.n	8000c10 <BSP_IntHandler>

08000e18 <BSP_IntHandlerHASH_RNG>:
void  BSP_IntHandlerHASH_RNG           (void)  { BSP_IntHandler(BSP_INT_ID_HASH_RNG);            }
 8000e18:	2050      	movs	r0, #80	; 0x50
 8000e1a:	e6f9      	b.n	8000c10 <BSP_IntHandler>

08000e1c <BSP_EXTI_15_10_IntHandler>:
*
* Note(s)     : none.
*********************************************************************************************************
*/
void BSP_EXTI_15_10_IntHandler(void)
{
 8000e1c:	b508      	push	{r3, lr}
	if(EXTI_GetFlagStatus(EXTI_Line10))
 8000e1e:	f44f 6080 	mov.w	r0, #1024	; 0x400
 8000e22:	f007 fb11 	bl	8008448 <EXTI_GetFlagStatus>
 8000e26:	b9f8      	cbnz	r0, 8000e68 <BSP_EXTI_15_10_IntHandler+0x4c>
	{
		;
		EXTI_ClearITPendingBit(EXTI_Line10);
	}
	else if(EXTI_GetFlagStatus(EXTI_Line11))
 8000e28:	f44f 6000 	mov.w	r0, #2048	; 0x800
 8000e2c:	f007 fb0c 	bl	8008448 <EXTI_GetFlagStatus>
 8000e30:	b9a0      	cbnz	r0, 8000e5c <BSP_EXTI_15_10_IntHandler+0x40>
	{
		
		EXTI_ClearITPendingBit(EXTI_Line11);
	}
	else if(EXTI_GetFlagStatus(EXTI_Line12))
 8000e32:	f44f 5080 	mov.w	r0, #4096	; 0x1000
 8000e36:	f007 fb07 	bl	8008448 <EXTI_GetFlagStatus>
 8000e3a:	bb08      	cbnz	r0, 8000e80 <BSP_EXTI_15_10_IntHandler+0x64>
	{
		Eth_Link_ITHandler(DP83848_PHY_ADDRESS);
		EXTI_ClearITPendingBit(EXTI_Line12);
	}
	else if(EXTI_GetFlagStatus(EXTI_Line13))
 8000e3c:	f44f 5000 	mov.w	r0, #8192	; 0x2000
 8000e40:	f007 fb02 	bl	8008448 <EXTI_GetFlagStatus>
 8000e44:	b9b0      	cbnz	r0, 8000e74 <BSP_EXTI_15_10_IntHandler+0x58>
	{
		EXTI_ClearITPendingBit(EXTI_Line13);
	}
	else if(EXTI_GetFlagStatus(EXTI_Line14))
 8000e46:	f44f 4080 	mov.w	r0, #16384	; 0x4000
 8000e4a:	f007 fafd 	bl	8008448 <EXTI_GetFlagStatus>
 8000e4e:	bb00      	cbnz	r0, 8000e92 <BSP_EXTI_15_10_IntHandler+0x76>
	{
		;
		EXTI_ClearITPendingBit(EXTI_Line14);
	}
	else if(EXTI_GetFlagStatus(EXTI_Line15))
 8000e50:	f44f 4000 	mov.w	r0, #32768	; 0x8000
 8000e54:	f007 faf8 	bl	8008448 <EXTI_GetFlagStatus>
 8000e58:	bb08      	cbnz	r0, 8000e9e <BSP_EXTI_15_10_IntHandler+0x82>
 8000e5a:	bd08      	pop	{r3, pc}
		EXTI_ClearITPendingBit(EXTI_Line10);
	}
	else if(EXTI_GetFlagStatus(EXTI_Line11))
	{
		
		EXTI_ClearITPendingBit(EXTI_Line11);
 8000e5c:	f44f 6000 	mov.w	r0, #2048	; 0x800
	{
		;
		EXTI_ClearITPendingBit(EXTI_Line15);
	}
	
}
 8000e60:	e8bd 4008 	ldmia.w	sp!, {r3, lr}
		EXTI_ClearITPendingBit(EXTI_Line10);
	}
	else if(EXTI_GetFlagStatus(EXTI_Line11))
	{
		
		EXTI_ClearITPendingBit(EXTI_Line11);
 8000e64:	f007 bb0e 	b.w	8008484 <EXTI_ClearITPendingBit>
void BSP_EXTI_15_10_IntHandler(void)
{
	if(EXTI_GetFlagStatus(EXTI_Line10))
	{
		;
		EXTI_ClearITPendingBit(EXTI_Line10);
 8000e68:	f44f 6080 	mov.w	r0, #1024	; 0x400
	{
		;
		EXTI_ClearITPendingBit(EXTI_Line15);
	}
	
}
 8000e6c:	e8bd 4008 	ldmia.w	sp!, {r3, lr}
void BSP_EXTI_15_10_IntHandler(void)
{
	if(EXTI_GetFlagStatus(EXTI_Line10))
	{
		;
		EXTI_ClearITPendingBit(EXTI_Line10);
 8000e70:	f007 bb08 	b.w	8008484 <EXTI_ClearITPendingBit>
		Eth_Link_ITHandler(DP83848_PHY_ADDRESS);
		EXTI_ClearITPendingBit(EXTI_Line12);
	}
	else if(EXTI_GetFlagStatus(EXTI_Line13))
	{
		EXTI_ClearITPendingBit(EXTI_Line13);
 8000e74:	f44f 5000 	mov.w	r0, #8192	; 0x2000
	{
		;
		EXTI_ClearITPendingBit(EXTI_Line15);
	}
	
}
 8000e78:	e8bd 4008 	ldmia.w	sp!, {r3, lr}
		Eth_Link_ITHandler(DP83848_PHY_ADDRESS);
		EXTI_ClearITPendingBit(EXTI_Line12);
	}
	else if(EXTI_GetFlagStatus(EXTI_Line13))
	{
		EXTI_ClearITPendingBit(EXTI_Line13);
 8000e7c:	f007 bb02 	b.w	8008484 <EXTI_ClearITPendingBit>
		
		EXTI_ClearITPendingBit(EXTI_Line11);
	}
	else if(EXTI_GetFlagStatus(EXTI_Line12))
	{
		Eth_Link_ITHandler(DP83848_PHY_ADDRESS);
 8000e80:	2001      	movs	r0, #1
 8000e82:	f00c fa33 	bl	800d2ec <Eth_Link_ITHandler>
	{
		;
		EXTI_ClearITPendingBit(EXTI_Line15);
	}
	
}
 8000e86:	e8bd 4008 	ldmia.w	sp!, {r3, lr}
		EXTI_ClearITPendingBit(EXTI_Line11);
	}
	else if(EXTI_GetFlagStatus(EXTI_Line12))
	{
		Eth_Link_ITHandler(DP83848_PHY_ADDRESS);
		EXTI_ClearITPendingBit(EXTI_Line12);
 8000e8a:	f44f 5080 	mov.w	r0, #4096	; 0x1000
 8000e8e:	f007 baf9 	b.w	8008484 <EXTI_ClearITPendingBit>
		EXTI_ClearITPendingBit(EXTI_Line13);
	}
	else if(EXTI_GetFlagStatus(EXTI_Line14))
	{
		;
		EXTI_ClearITPendingBit(EXTI_Line14);
 8000e92:	f44f 4080 	mov.w	r0, #16384	; 0x4000
	{
		;
		EXTI_ClearITPendingBit(EXTI_Line15);
	}
	
}
 8000e96:	e8bd 4008 	ldmia.w	sp!, {r3, lr}
		EXTI_ClearITPendingBit(EXTI_Line13);
	}
	else if(EXTI_GetFlagStatus(EXTI_Line14))
	{
		;
		EXTI_ClearITPendingBit(EXTI_Line14);
 8000e9a:	f007 baf3 	b.w	8008484 <EXTI_ClearITPendingBit>
	}
	else if(EXTI_GetFlagStatus(EXTI_Line15))
	{
		;
		EXTI_ClearITPendingBit(EXTI_Line15);
 8000e9e:	f44f 4000 	mov.w	r0, #32768	; 0x8000
	}
	
}
 8000ea2:	e8bd 4008 	ldmia.w	sp!, {r3, lr}
		EXTI_ClearITPendingBit(EXTI_Line14);
	}
	else if(EXTI_GetFlagStatus(EXTI_Line15))
	{
		;
		EXTI_ClearITPendingBit(EXTI_Line15);
 8000ea6:	f007 baed 	b.w	8008484 <EXTI_ClearITPendingBit>
 8000eaa:	bf00      	nop

08000eac <run_command_repeatable>:
 * @return 0 (not repeatable) or 1 (repeatable) on success, -1 on error.
 */
int run_command_repeatable(const char *cmd, int flag)
{
#if 1
	return cli_simple_run_command(cmd, flag);
 8000eac:	f000 b8c4 	b.w	8001038 <cli_simple_run_command>

08000eb0 <cli_loop>:
#endif
}

void cli_loop(void)
{
	cli_simple_loop();
 8000eb0:	f000 b926 	b.w	8001100 <cli_simple_loop>

08000eb4 <cli_init>:
}

void cli_init(void)
{
 8000eb4:	4770      	bx	lr
 8000eb6:	bf00      	nop

08000eb8 <cli_simple_parse_line>:

#define debug_parser(fmt, args...)	


int cli_simple_parse_line(char *line, char *argv[])
{
 8000eb8:	e92d 43f8 	stmdb	sp!, {r3, r4, r5, r6, r7, r8, r9, lr}
	int nargs = 0;
 8000ebc:	2600      	movs	r6, #0

#define debug_parser(fmt, args...)	


int cli_simple_parse_line(char *line, char *argv[])
{
 8000ebe:	4689      	mov	r9, r1
			argv[nargs] = NULL;
			debug_parser("parse_line: nargs=%d\n", nargs);
			return nargs;
		}

		*line++ = '\0';		/* terminate current arg	 */
 8000ec0:	46b0      	mov	r8, r6
 8000ec2:	1f0f      	subs	r7, r1, #4
 8000ec4:	4605      	mov	r5, r0
	int nargs = 0;

	debug_parser("%s: \"%s\"\n", __func__, line);
	while (nargs < SHELL_SYS_MAXARGS) {
		/* skip any white space */
		while (isblank(*line))
 8000ec6:	7828      	ldrb	r0, [r5, #0]
 8000ec8:	462c      	mov	r4, r5
 8000eca:	3501      	adds	r5, #1
 8000ecc:	f013 fef6 	bl	8014cbc <isblank>
 8000ed0:	2800      	cmp	r0, #0
 8000ed2:	d1f8      	bne.n	8000ec6 <cli_simple_parse_line+0xe>
			++line;

		if (*line == '\0') {	/* end of line, no more args	*/
 8000ed4:	7823      	ldrb	r3, [r4, #0]
 8000ed6:	b1e3      	cbz	r3, 8000f12 <cli_simple_parse_line+0x5a>
			argv[nargs] = NULL;
			debug_parser("%s: nargs=%d\n", __func__, nargs);
			return nargs;
		}

		argv[nargs++] = line;	/* begin of argument string	*/
 8000ed8:	f847 4f04 	str.w	r4, [r7, #4]!

		/* find end of string */
		while (*line && !isblank(*line))
 8000edc:	7820      	ldrb	r0, [r4, #0]
			argv[nargs] = NULL;
			debug_parser("%s: nargs=%d\n", __func__, nargs);
			return nargs;
		}

		argv[nargs++] = line;	/* begin of argument string	*/
 8000ede:	3601      	adds	r6, #1

		/* find end of string */
		while (*line && !isblank(*line))
 8000ee0:	b918      	cbnz	r0, 8000eea <cli_simple_parse_line+0x32>
 8000ee2:	e015      	b.n	8000f10 <cli_simple_parse_line+0x58>
 8000ee4:	f814 0f01 	ldrb.w	r0, [r4, #1]!
 8000ee8:	b190      	cbz	r0, 8000f10 <cli_simple_parse_line+0x58>
 8000eea:	f013 fee7 	bl	8014cbc <isblank>
 8000eee:	2800      	cmp	r0, #0
 8000ef0:	d0f8      	beq.n	8000ee4 <cli_simple_parse_line+0x2c>
			++line;

		if (*line == '\0') {	/* end of line, no more args	*/
 8000ef2:	7823      	ldrb	r3, [r4, #0]
 8000ef4:	b163      	cbz	r3, 8000f10 <cli_simple_parse_line+0x58>
int cli_simple_parse_line(char *line, char *argv[])
{
	int nargs = 0;

	debug_parser("%s: \"%s\"\n", __func__, line);
	while (nargs < SHELL_SYS_MAXARGS) {
 8000ef6:	2e10      	cmp	r6, #16
			argv[nargs] = NULL;
			debug_parser("parse_line: nargs=%d\n", nargs);
			return nargs;
		}

		*line++ = '\0';		/* terminate current arg	 */
 8000ef8:	f884 8000 	strb.w	r8, [r4]
 8000efc:	f104 0001 	add.w	r0, r4, #1
int cli_simple_parse_line(char *line, char *argv[])
{
	int nargs = 0;

	debug_parser("%s: \"%s\"\n", __func__, line);
	while (nargs < SHELL_SYS_MAXARGS) {
 8000f00:	d1e0      	bne.n	8000ec4 <cli_simple_parse_line+0xc>
		}

		*line++ = '\0';		/* terminate current arg	 */
	}

	printf("** Too many args (max. %d) **\n", SHELL_SYS_MAXARGS);
 8000f02:	4631      	mov	r1, r6
 8000f04:	4805      	ldr	r0, [pc, #20]	; (8000f1c <cli_simple_parse_line+0x64>)
 8000f06:	f013 ff37 	bl	8014d78 <iprintf>

	debug_parser("%s: nargs=%d\n", __func__, nargs);
	return nargs;
}
 8000f0a:	4630      	mov	r0, r6
 8000f0c:	e8bd 83f8 	ldmia.w	sp!, {r3, r4, r5, r6, r7, r8, r9, pc}
		/* find end of string */
		while (*line && !isblank(*line))
			++line;

		if (*line == '\0') {	/* end of line, no more args	*/
			argv[nargs] = NULL;
 8000f10:	2300      	movs	r3, #0
 8000f12:	f849 3026 	str.w	r3, [r9, r6, lsl #2]

	printf("** Too many args (max. %d) **\n", SHELL_SYS_MAXARGS);

	debug_parser("%s: nargs=%d\n", __func__, nargs);
	return nargs;
}
 8000f16:	4630      	mov	r0, r6
 8000f18:	e8bd 83f8 	ldmia.w	sp!, {r3, r4, r5, r6, r7, r8, r9, pc}
 8000f1c:	0801626c 	.word	0x0801626c

08000f20 <cli_simple_process_macros>:

#if 1
void cli_simple_process_macros(const char *input, char *output)
{
 8000f20:	e92d 41f0 	stmdb	sp!, {r4, r5, r6, r7, r8, lr}
 8000f24:	4688      	mov	r8, r1
 8000f26:	4604      	mov	r4, r0
	char c, prev;
	const char *varname_start = NULL;
	int inputcnt = strlen(input);
 8000f28:	f013 fe6e 	bl	8014c08 <strlen>
	debug_parser("[PROCESS_MACROS] INPUT len %zd: \"%s\"\n", strlen(input),
		     input);

	prev = '\0';		/* previous character   */

	while (inputcnt && outputcnt) {
 8000f2c:	b390      	cbz	r0, 8000f94 <cli_simple_process_macros+0x74>
 8000f2e:	2500      	movs	r5, #0
		c = *input++;
		inputcnt--;

		if (state != 3) {
 8000f30:	2d03      	cmp	r5, #3
	debug_parser("[PROCESS_MACROS] INPUT len %zd: \"%s\"\n", strlen(input),
		     input);

	prev = '\0';		/* previous character   */

	while (inputcnt && outputcnt) {
 8000f32:	4629      	mov	r1, r5
 8000f34:	f04f 0740 	mov.w	r7, #64	; 0x40
			if (c == '(' || c == '{') {
				state++;
				varname_start = input;
			} else {
				state = 0;
				*(output++) = '$';
 8000f38:	f04f 0e24 	mov.w	lr, #36	; 0x24
		     input);

	prev = '\0';		/* previous character   */

	while (inputcnt && outputcnt) {
		c = *input++;
 8000f3c:	f104 0601 	add.w	r6, r4, #1
 8000f40:	7823      	ldrb	r3, [r4, #0]
		inputcnt--;
 8000f42:	f100 32ff 	add.w	r2, r0, #4294967295

		if (state != 3) {
 8000f46:	d017      	beq.n	8000f78 <cli_simple_process_macros+0x58>
			/* remove one level of escape characters */
			if ((c == '\\') && (prev != '\\')) {
 8000f48:	2b5c      	cmp	r3, #92	; 0x5c
 8000f4a:	d036      	beq.n	8000fba <cli_simple_process_macros+0x9a>
				prev = c;
				c = *input++;
			}
		}

		switch (state) {
 8000f4c:	2d01      	cmp	r5, #1
 8000f4e:	d040      	beq.n	8000fd2 <cli_simple_process_macros+0xb2>
 8000f50:	2d02      	cmp	r5, #2
 8000f52:	d124      	bne.n	8000f9e <cli_simple_process_macros+0x7e>
					outputcnt--;
				}
			}
			break;
		case 2:	/* Waiting for )        */
			if (c == ')' || c == '}') {
 8000f54:	2b29      	cmp	r3, #41	; 0x29
 8000f56:	d050      	beq.n	8000ffa <cli_simple_process_macros+0xda>
 8000f58:	2b7d      	cmp	r3, #125	; 0x7d
 8000f5a:	d04e      	beq.n	8000ffa <cli_simple_process_macros+0xda>
 8000f5c:	4619      	mov	r1, r3
 8000f5e:	4634      	mov	r4, r6
 8000f60:	4610      	mov	r0, r2
 8000f62:	2502      	movs	r5, #2
	debug_parser("[PROCESS_MACROS] INPUT len %zd: \"%s\"\n", strlen(input),
		     input);

	prev = '\0';		/* previous character   */

	while (inputcnt && outputcnt) {
 8000f64:	b1a2      	cbz	r2, 8000f90 <cli_simple_process_macros+0x70>
 8000f66:	2f00      	cmp	r7, #0
 8000f68:	d05a      	beq.n	8001020 <cli_simple_process_macros+0x100>
		c = *input++;
		inputcnt--;

		if (state != 3) {
 8000f6a:	2d03      	cmp	r5, #3
		     input);

	prev = '\0';		/* previous character   */

	while (inputcnt && outputcnt) {
		c = *input++;
 8000f6c:	f104 0601 	add.w	r6, r4, #1
 8000f70:	7823      	ldrb	r3, [r4, #0]
		inputcnt--;
 8000f72:	f100 32ff 	add.w	r2, r0, #4294967295

		if (state != 3) {
 8000f76:	d1e7      	bne.n	8000f48 <cli_simple_process_macros+0x28>
				/* Look for another '$' */
				state = 0;
			}
			break;
		case 3:	/* Waiting for '        */
			if ((c == '\'') && (prev != '\\')) {
 8000f78:	2b27      	cmp	r3, #39	; 0x27
 8000f7a:	d03c      	beq.n	8000ff6 <cli_simple_process_macros+0xd6>
				state = 0;
			} else {
				*(output++) = c;
 8000f7c:	f888 3000 	strb.w	r3, [r8]
				outputcnt--;
 8000f80:	3f01      	subs	r7, #1
		     input);

	prev = '\0';		/* previous character   */

	while (inputcnt && outputcnt) {
		c = *input++;
 8000f82:	4619      	mov	r1, r3
			break;
		case 3:	/* Waiting for '        */
			if ((c == '\'') && (prev != '\\')) {
				state = 0;
			} else {
				*(output++) = c;
 8000f84:	f108 0801 	add.w	r8, r8, #1
		     input);

	prev = '\0';		/* previous character   */

	while (inputcnt && outputcnt) {
		c = *input++;
 8000f88:	4634      	mov	r4, r6
		inputcnt--;
 8000f8a:	4610      	mov	r0, r2
	debug_parser("[PROCESS_MACROS] INPUT len %zd: \"%s\"\n", strlen(input),
		     input);

	prev = '\0';		/* previous character   */

	while (inputcnt && outputcnt) {
 8000f8c:	2a00      	cmp	r2, #0
 8000f8e:	d1ea      	bne.n	8000f66 <cli_simple_process_macros+0x46>
			break;
		}
		prev = c;
	}

	if (outputcnt)
 8000f90:	2f00      	cmp	r7, #0
 8000f92:	d045      	beq.n	8001020 <cli_simple_process_macros+0x100>
		*output = 0;
 8000f94:	2300      	movs	r3, #0
 8000f96:	f888 3000 	strb.w	r3, [r8]
 8000f9a:	e8bd 81f0 	ldmia.w	sp!, {r4, r5, r6, r7, r8, pc}
			}
		}

		switch (state) {
		case 0:	/* Waiting for (unescaped) $    */
			if ((c == '\'') && (prev != '\\')) {
 8000f9e:	2b27      	cmp	r3, #39	; 0x27
 8000fa0:	d035      	beq.n	800100e <cli_simple_process_macros+0xee>
				state = 3;
				break;
			}
			if ((c == '$') && (prev != '\\')) {
 8000fa2:	2b24      	cmp	r3, #36	; 0x24
 8000fa4:	d041      	beq.n	800102a <cli_simple_process_macros+0x10a>
				state++;
			} else {
				*(output++) = c;
 8000fa6:	f888 3000 	strb.w	r3, [r8]
				outputcnt--;
 8000faa:	3f01      	subs	r7, #1
 8000fac:	4619      	mov	r1, r3
				break;
			}
			if ((c == '$') && (prev != '\\')) {
				state++;
			} else {
				*(output++) = c;
 8000fae:	f108 0801 	add.w	r8, r8, #1
				outputcnt--;
 8000fb2:	4634      	mov	r4, r6
 8000fb4:	4610      	mov	r0, r2
 8000fb6:	2500      	movs	r5, #0
 8000fb8:	e7d4      	b.n	8000f64 <cli_simple_process_macros+0x44>
		c = *input++;
		inputcnt--;

		if (state != 3) {
			/* remove one level of escape characters */
			if ((c == '\\') && (prev != '\\')) {
 8000fba:	295c      	cmp	r1, #92	; 0x5c
 8000fbc:	d022      	beq.n	8001004 <cli_simple_process_macros+0xe4>
				if (inputcnt-- == 0)
 8000fbe:	3802      	subs	r0, #2
 8000fc0:	2a00      	cmp	r2, #0
 8000fc2:	d0e5      	beq.n	8000f90 <cli_simple_process_macros+0x70>
				prev = c;
				c = *input++;
			}
		}

		switch (state) {
 8000fc4:	2d01      	cmp	r5, #1
			/* remove one level of escape characters */
			if ((c == '\\') && (prev != '\\')) {
				if (inputcnt-- == 0)
					break;
				prev = c;
				c = *input++;
 8000fc6:	4619      	mov	r1, r3
		inputcnt--;

		if (state != 3) {
			/* remove one level of escape characters */
			if ((c == '\\') && (prev != '\\')) {
				if (inputcnt-- == 0)
 8000fc8:	4602      	mov	r2, r0
					break;
				prev = c;
				c = *input++;
 8000fca:	7863      	ldrb	r3, [r4, #1]
 8000fcc:	f104 0602 	add.w	r6, r4, #2
			}
		}

		switch (state) {
 8000fd0:	d1be      	bne.n	8000f50 <cli_simple_process_macros+0x30>
				*(output++) = c;
				outputcnt--;
			}
			break;
		case 1:	/* Waiting for (        */
			if (c == '(' || c == '{') {
 8000fd2:	2b28      	cmp	r3, #40	; 0x28
 8000fd4:	d0c2      	beq.n	8000f5c <cli_simple_process_macros+0x3c>
 8000fd6:	2b7b      	cmp	r3, #123	; 0x7b
 8000fd8:	d0c0      	beq.n	8000f5c <cli_simple_process_macros+0x3c>
			} else {
				state = 0;
				*(output++) = '$';
				outputcnt--;

				if (outputcnt) {
 8000fda:	2f01      	cmp	r7, #1
			if (c == '(' || c == '{') {
				state++;
				varname_start = input;
			} else {
				state = 0;
				*(output++) = '$';
 8000fdc:	f888 e000 	strb.w	lr, [r8]
				outputcnt--;

				if (outputcnt) {
 8000fe0:	d01c      	beq.n	800101c <cli_simple_process_macros+0xfc>
					*(output++) = c;
 8000fe2:	f888 3001 	strb.w	r3, [r8, #1]
					outputcnt--;
 8000fe6:	3f02      	subs	r7, #2
 8000fe8:	4619      	mov	r1, r3
				state = 0;
				*(output++) = '$';
				outputcnt--;

				if (outputcnt) {
					*(output++) = c;
 8000fea:	f108 0802 	add.w	r8, r8, #2
					outputcnt--;
 8000fee:	4634      	mov	r4, r6
 8000ff0:	4610      	mov	r0, r2
		case 1:	/* Waiting for (        */
			if (c == '(' || c == '{') {
				state++;
				varname_start = input;
			} else {
				state = 0;
 8000ff2:	2500      	movs	r5, #0
 8000ff4:	e7b6      	b.n	8000f64 <cli_simple_process_macros+0x44>
				/* Look for another '$' */
				state = 0;
			}
			break;
		case 3:	/* Waiting for '        */
			if ((c == '\'') && (prev != '\\')) {
 8000ff6:	295c      	cmp	r1, #92	; 0x5c
 8000ff8:	d0c0      	beq.n	8000f7c <cli_simple_process_macros+0x5c>
 8000ffa:	4619      	mov	r1, r3
		     input);

	prev = '\0';		/* previous character   */

	while (inputcnt && outputcnt) {
		c = *input++;
 8000ffc:	4634      	mov	r4, r6
		inputcnt--;
 8000ffe:	4610      	mov	r0, r2
				state = 0;
			}
			break;
		case 3:	/* Waiting for '        */
			if ((c == '\'') && (prev != '\\')) {
				state = 0;
 8001000:	2500      	movs	r5, #0
 8001002:	e7af      	b.n	8000f64 <cli_simple_process_macros+0x44>
				prev = c;
				c = *input++;
			}
		}

		switch (state) {
 8001004:	2d01      	cmp	r5, #1
 8001006:	d0e8      	beq.n	8000fda <cli_simple_process_macros+0xba>
 8001008:	2d02      	cmp	r5, #2
 800100a:	d0a7      	beq.n	8000f5c <cli_simple_process_macros+0x3c>
 800100c:	e7cb      	b.n	8000fa6 <cli_simple_process_macros+0x86>
		case 0:	/* Waiting for (unescaped) $    */
			if ((c == '\'') && (prev != '\\')) {
 800100e:	295c      	cmp	r1, #92	; 0x5c
 8001010:	d0c9      	beq.n	8000fa6 <cli_simple_process_macros+0x86>
 8001012:	4619      	mov	r1, r3
 8001014:	4634      	mov	r4, r6
 8001016:	4610      	mov	r0, r2
				state = 3;
 8001018:	2503      	movs	r5, #3
 800101a:	e7a3      	b.n	8000f64 <cli_simple_process_macros+0x44>
			if (c == '(' || c == '{') {
				state++;
				varname_start = input;
			} else {
				state = 0;
				*(output++) = '$';
 800101c:	f108 0801 	add.w	r8, r8, #1
	}

	if (outputcnt)
		*output = 0;
	else
		*(output - 1) = 0;
 8001020:	2300      	movs	r3, #0
 8001022:	f808 3c01 	strb.w	r3, [r8, #-1]

	debug_parser("[PROCESS_MACROS] OUTPUT len %zd: \"%s\"\n",
		     strlen(output_start), output_start);
}
 8001026:	e8bd 81f0 	ldmia.w	sp!, {r4, r5, r6, r7, r8, pc}
		case 0:	/* Waiting for (unescaped) $    */
			if ((c == '\'') && (prev != '\\')) {
				state = 3;
				break;
			}
			if ((c == '$') && (prev != '\\')) {
 800102a:	295c      	cmp	r1, #92	; 0x5c
 800102c:	d0bb      	beq.n	8000fa6 <cli_simple_process_macros+0x86>
 800102e:	4619      	mov	r1, r3
 8001030:	4634      	mov	r4, r6
 8001032:	4610      	mov	r0, r2
				state++;
 8001034:	2501      	movs	r5, #1
 8001036:	e795      	b.n	8000f64 <cli_simple_process_macros+0x44>

08001038 <cli_simple_run_command>:
 * may be the result from env_get(), which returns a pointer directly to
 * the environment data, which may change magicly when the command we run
 * creates or modifies environment variables (like "bootp" does).
 */
int cli_simple_run_command(const char *cmd, int flag)
{
 8001038:	b570      	push	{r4, r5, r6, lr}
 800103a:	4604      	mov	r4, r0
 800103c:	b0b4      	sub	sp, #208	; 0xd0
	char *sep;			/* end of token (separator) in cmdbuf */
	char finaltoken[SHELL_SYS_CBSIZE];
	char *str = cmdbuf;
	char *argv[SHELL_SYS_MAXARGS + 1];	/* NULL terminated	*/
	int argc, inquotes;
	int repeatable = 1;
 800103e:	2301      	movs	r3, #1
 * may be the result from env_get(), which returns a pointer directly to
 * the environment data, which may change magicly when the command we run
 * creates or modifies environment variables (like "bootp" does).
 */
int cli_simple_run_command(const char *cmd, int flag)
{
 8001040:	460e      	mov	r6, r1
	char *sep;			/* end of token (separator) in cmdbuf */
	char finaltoken[SHELL_SYS_CBSIZE];
	char *str = cmdbuf;
	char *argv[SHELL_SYS_MAXARGS + 1];	/* NULL terminated	*/
	int argc, inquotes;
	int repeatable = 1;
 8001042:	9302      	str	r3, [sp, #8]
	if (DEBUG_PARSER) {
		/* use puts - string may be loooong */
		puts(cmd ? cmd : "NULL");
		puts("\"\n");
	}
	clear_ctrlc();		/* forget any previous Control C */
 8001044:	f000 fb8c 	bl	8001760 <clear_ctrlc>

	if (!cmd || !*cmd)
 8001048:	2c00      	cmp	r4, #0
 800104a:	d04e      	beq.n	80010ea <cli_simple_run_command+0xb2>
 800104c:	7823      	ldrb	r3, [r4, #0]
 800104e:	2b00      	cmp	r3, #0
 8001050:	d04b      	beq.n	80010ea <cli_simple_run_command+0xb2>
		return -1;	/* empty command */

	if (strlen(cmd) >= SHELL_SYS_CBSIZE) {
 8001052:	4620      	mov	r0, r4
 8001054:	f013 fdd8 	bl	8014c08 <strlen>
 8001058:	283f      	cmp	r0, #63	; 0x3f
 800105a:	dc4a      	bgt.n	80010f2 <cli_simple_run_command+0xba>
		puts("## Command too long!\n");
		return -1;
	}

	strcpy(cmdbuf, cmd);
 800105c:	4621      	mov	r1, r4
 800105e:	a803      	add	r0, sp, #12
 8001060:	f013 ff42 	bl	8014ee8 <strcpy>
{
	char cmdbuf[SHELL_SYS_CBSIZE];	/* working copy of cmd		*/
	char *token;			/* start of token in cmdbuf	*/
	char *sep;			/* end of token (separator) in cmdbuf */
	char finaltoken[SHELL_SYS_CBSIZE];
	char *str = cmdbuf;
 8001064:	a803      	add	r0, sp, #12
	/* Process separators and check for invalid
	 * repeatable commands
	 */

	debug_parser("[PROCESS_SEPARATORS] %s\n", cmd);
	while (*str) {
 8001066:	7803      	ldrb	r3, [r0, #0]
	char finaltoken[SHELL_SYS_CBSIZE];
	char *str = cmdbuf;
	char *argv[SHELL_SYS_MAXARGS + 1];	/* NULL terminated	*/
	int argc, inquotes;
	int repeatable = 1;
	int rc = 0;
 8001068:	2500      	movs	r5, #0
	/* Process separators and check for invalid
	 * repeatable commands
	 */

	debug_parser("[PROCESS_SEPARATORS] %s\n", cmd);
	while (*str) {
 800106a:	b353      	cbz	r3, 80010c2 <cli_simple_run_command+0x8a>
 800106c:	4604      	mov	r4, r0
 800106e:	2200      	movs	r2, #0
 8001070:	e004      	b.n	800107c <cli_simple_run_command+0x44>
		for (inquotes = 0, sep = str; *sep; sep++) {
			if ((*sep == '\'') &&
			    (*(sep - 1) != '\\'))
				inquotes = !inquotes;

			if (!inquotes &&
 8001072:	2b3b      	cmp	r3, #59	; 0x3b
 8001074:	d00f      	beq.n	8001096 <cli_simple_run_command+0x5e>
	while (*str) {
		/*
		 * Find separator, or string end
		 * Allow simple escape of ';' by writing "\;"
		 */
		for (inquotes = 0, sep = str; *sep; sep++) {
 8001076:	f814 3f01 	ldrb.w	r3, [r4, #1]!
 800107a:	b1a3      	cbz	r3, 80010a6 <cli_simple_run_command+0x6e>
			if ((*sep == '\'') &&
 800107c:	2b27      	cmp	r3, #39	; 0x27
 800107e:	d003      	beq.n	8001088 <cli_simple_run_command+0x50>
			    (*(sep - 1) != '\\'))
				inquotes = !inquotes;

			if (!inquotes &&
 8001080:	2a00      	cmp	r2, #0
 8001082:	d0f6      	beq.n	8001072 <cli_simple_run_command+0x3a>
 8001084:	2201      	movs	r2, #1
 8001086:	e7f6      	b.n	8001076 <cli_simple_run_command+0x3e>
		/*
		 * Find separator, or string end
		 * Allow simple escape of ';' by writing "\;"
		 */
		for (inquotes = 0, sep = str; *sep; sep++) {
			if ((*sep == '\'') &&
 8001088:	f814 3c01 	ldrb.w	r3, [r4, #-1]
 800108c:	2b5c      	cmp	r3, #92	; 0x5c
 800108e:	d0f2      	beq.n	8001076 <cli_simple_run_command+0x3e>
 8001090:	f082 0201 	eor.w	r2, r2, #1
 8001094:	e7ef      	b.n	8001076 <cli_simple_run_command+0x3e>
			    (*(sep - 1) != '\\'))
				inquotes = !inquotes;

			if (!inquotes &&
			    (*sep == ';') &&	/* separator		*/
 8001096:	42a0      	cmp	r0, r4
 8001098:	d0ed      	beq.n	8001076 <cli_simple_run_command+0x3e>
			    (sep != str) &&	/* past string start	*/
 800109a:	f814 3c01 	ldrb.w	r3, [r4, #-1]
 800109e:	2b5c      	cmp	r3, #92	; 0x5c
 80010a0:	d0e9      	beq.n	8001076 <cli_simple_run_command+0x3e>
		 * Limit the token to data between separators
		 */
		token = str;
		if (*sep) {
			str = sep + 1;	/* start of command for next pass */
			*sep = '\0';
 80010a2:	7022      	strb	r2, [r4, #0]
		/*
		 * Limit the token to data between separators
		 */
		token = str;
		if (*sep) {
			str = sep + 1;	/* start of command for next pass */
 80010a4:	3401      	adds	r4, #1
			str = sep;	/* no more commands for next pass */
		}
		debug_parser("token: \"%s\"\n", token);

		/* find macros in this token and replace them */
		cli_simple_process_macros(token, finaltoken);
 80010a6:	a913      	add	r1, sp, #76	; 0x4c
 80010a8:	f7ff ff3a 	bl	8000f20 <cli_simple_process_macros>

		/* Extract arguments */
		argc = cli_simple_parse_line(finaltoken, argv);
 80010ac:	a923      	add	r1, sp, #140	; 0x8c
 80010ae:	a813      	add	r0, sp, #76	; 0x4c
 80010b0:	f7ff ff02 	bl	8000eb8 <cli_simple_parse_line>
		if (argc == 0) {
 80010b4:	b948      	cbnz	r0, 80010ca <cli_simple_run_command+0x92>
			rc = -1;	/* no command at all */
 80010b6:	f04f 35ff 	mov.w	r5, #4294967295
 80010ba:	4620      	mov	r0, r4
	/* Process separators and check for invalid
	 * repeatable commands
	 */

	debug_parser("[PROCESS_SEPARATORS] %s\n", cmd);
	while (*str) {
 80010bc:	7803      	ldrb	r3, [r0, #0]
 80010be:	2b00      	cmp	r3, #0
 80010c0:	d1d4      	bne.n	800106c <cli_simple_run_command+0x34>
		/* Did the user stop this? */
		if (had_ctrlc())
			return -1;	/* if stopped then not repeatable */
	}

	return rc ? rc : repeatable;
 80010c2:	b995      	cbnz	r5, 80010ea <cli_simple_run_command+0xb2>
 80010c4:	9802      	ldr	r0, [sp, #8]
}
 80010c6:	b034      	add	sp, #208	; 0xd0
 80010c8:	bd70      	pop	{r4, r5, r6, pc}
		if (argc == 0) {
			rc = -1;	/* no command at all */
			continue;
		}

		if (cmd_process(flag, argc, argv, &repeatable, NULL))
 80010ca:	2300      	movs	r3, #0
 80010cc:	4601      	mov	r1, r0
 80010ce:	9300      	str	r3, [sp, #0]
 80010d0:	aa23      	add	r2, sp, #140	; 0x8c
 80010d2:	ab02      	add	r3, sp, #8
 80010d4:	4630      	mov	r0, r6
 80010d6:	f000 fa77 	bl	80015c8 <cmd_process>
			rc = -1;
 80010da:	2800      	cmp	r0, #0
 80010dc:	bf18      	it	ne
 80010de:	f04f 35ff 	movne.w	r5, #4294967295

		/* Did the user stop this? */
		if (had_ctrlc())
 80010e2:	f000 fb37 	bl	8001754 <had_ctrlc>
 80010e6:	2800      	cmp	r0, #0
 80010e8:	d0e7      	beq.n	80010ba <cli_simple_run_command+0x82>
	if (!cmd || !*cmd)
		return -1;	/* empty command */

	if (strlen(cmd) >= SHELL_SYS_CBSIZE) {
		puts("## Command too long!\n");
		return -1;
 80010ea:	f04f 30ff 	mov.w	r0, #4294967295
		if (had_ctrlc())
			return -1;	/* if stopped then not repeatable */
	}

	return rc ? rc : repeatable;
}
 80010ee:	b034      	add	sp, #208	; 0xd0
 80010f0:	bd70      	pop	{r4, r5, r6, pc}

	if (!cmd || !*cmd)
		return -1;	/* empty command */

	if (strlen(cmd) >= SHELL_SYS_CBSIZE) {
		puts("## Command too long!\n");
 80010f2:	4802      	ldr	r0, [pc, #8]	; (80010fc <cli_simple_run_command+0xc4>)
 80010f4:	f013 fef0 	bl	8014ed8 <puts>
 80010f8:	e7f7      	b.n	80010ea <cli_simple_run_command+0xb2>
 80010fa:	bf00      	nop
 80010fc:	0801628c 	.word	0x0801628c

08001100 <cli_simple_loop>:

	return rc ? rc : repeatable;
}

void cli_simple_loop(void)
{
 8001100:	b510      	push	{r4, lr}
	int flag;
	int rc = 1;

	/* assume no special flags for now */
	flag = 0;
	len = cli_readline(SHELL_SYS_PROMPT);
 8001102:	480f      	ldr	r0, [pc, #60]	; (8001140 <cli_simple_loop+0x40>)
 8001104:	f00c fd3c 	bl	800db80 <cli_readline>
	if (len > 0)
 8001108:	2800      	cmp	r0, #0
 800110a:	dd0e      	ble.n	800112a <cli_simple_loop+0x2a>
		strlcpy(lastcommand, console_buffer, SHELL_SYS_CBSIZE + 1);
 800110c:	490d      	ldr	r1, [pc, #52]	; (8001144 <cli_simple_loop+0x44>)
 800110e:	2241      	movs	r2, #65	; 0x41
 8001110:	480d      	ldr	r0, [pc, #52]	; (8001148 <cli_simple_loop+0x48>)
 8001112:	f013 fef1 	bl	8014ef8 <strlcpy>
	int len;
	int flag;
	int rc = 1;

	/* assume no special flags for now */
	flag = 0;
 8001116:	2100      	movs	r1, #0
		flag |= CMD_FLAG_REPEAT;

	if (len == -1)
		cputs("<INTERRUPT>\n");
	else
		rc = run_command_repeatable(lastcommand, flag);
 8001118:	4c0b      	ldr	r4, [pc, #44]	; (8001148 <cli_simple_loop+0x48>)
 800111a:	4620      	mov	r0, r4
 800111c:	f7ff fec6 	bl	8000eac <run_command_repeatable>

	if (rc <= 0) {
 8001120:	2800      	cmp	r0, #0
		/* invalid command or not repeatable, forget it */
		lastcommand[0] = 0;
 8001122:	bfdc      	itt	le
 8001124:	2300      	movle	r3, #0
 8001126:	7023      	strble	r3, [r4, #0]
 8001128:	bd10      	pop	{r4, pc}
	if (len > 0)
		strlcpy(lastcommand, console_buffer, SHELL_SYS_CBSIZE + 1);
	else if (len == 0)
		flag |= CMD_FLAG_REPEAT;

	if (len == -1)
 800112a:	1c43      	adds	r3, r0, #1
 800112c:	d104      	bne.n	8001138 <cli_simple_loop+0x38>

	if (rc <= 0) {
		/* invalid command or not repeatable, forget it */
		lastcommand[0] = 0;
	}
}
 800112e:	e8bd 4010 	ldmia.w	sp!, {r4, lr}
		strlcpy(lastcommand, console_buffer, SHELL_SYS_CBSIZE + 1);
	else if (len == 0)
		flag |= CMD_FLAG_REPEAT;

	if (len == -1)
		cputs("<INTERRUPT>\n");
 8001132:	4806      	ldr	r0, [pc, #24]	; (800114c <cli_simple_loop+0x4c>)
 8001134:	f000 ba98 	b.w	8001668 <cputs>
	flag = 0;
	len = cli_readline(SHELL_SYS_PROMPT);
	if (len > 0)
		strlcpy(lastcommand, console_buffer, SHELL_SYS_CBSIZE + 1);
	else if (len == 0)
		flag |= CMD_FLAG_REPEAT;
 8001138:	fab0 f180 	clz	r1, r0
 800113c:	0949      	lsrs	r1, r1, #5
 800113e:	e7eb      	b.n	8001118 <cli_simple_loop+0x18>
 8001140:	080162a4 	.word	0x080162a4
 8001144:	2000f058 	.word	0x2000f058
 8001148:	20000364 	.word	0x20000364
 800114c:	080162b0 	.word	0x080162b0

08001150 <cli_simple_run_command_list>:
	 * Break into individual lines, and execute each line; terminate on
	 * error.
	 */
	next = cmd;
	line = cmd;
	while (*next) {
 8001150:	7801      	ldrb	r1, [r0, #0]
 8001152:	b301      	cbz	r1, 8001196 <cli_simple_run_command_list+0x46>
		lastcommand[0] = 0;
	}
}

int cli_simple_run_command_list(char *cmd, int flag)
{
 8001154:	b538      	push	{r3, r4, r5, lr}
 8001156:	1c44      	adds	r4, r0, #1
	 */
	next = cmd;
	line = cmd;
	while (*next) {
		if (*next == '\n') {
			*next = '\0';
 8001158:	2500      	movs	r5, #0
 800115a:	e002      	b.n	8001162 <cli_simple_run_command_list+0x12>
	 * Break into individual lines, and execute each line; terminate on
	 * error.
	 */
	next = cmd;
	line = cmd;
	while (*next) {
 800115c:	f814 1b01 	ldrb.w	r1, [r4], #1
 8001160:	b151      	cbz	r1, 8001178 <cli_simple_run_command_list+0x28>
		if (*next == '\n') {
 8001162:	290a      	cmp	r1, #10
 8001164:	d1fa      	bne.n	800115c <cli_simple_run_command_list+0xc>
			*next = '\0';
 8001166:	f804 5c01 	strb.w	r5, [r4, #-1]
			/* run only non-empty commands */
			if (*line) {
 800116a:	7803      	ldrb	r3, [r0, #0]
 800116c:	b943      	cbnz	r3, 8001180 <cli_simple_run_command_list+0x30>
		lastcommand[0] = 0;
	}
}

int cli_simple_run_command_list(char *cmd, int flag)
{
 800116e:	4620      	mov	r0, r4
	 * Break into individual lines, and execute each line; terminate on
	 * error.
	 */
	next = cmd;
	line = cmd;
	while (*next) {
 8001170:	f814 1b01 	ldrb.w	r1, [r4], #1
 8001174:	2900      	cmp	r1, #0
 8001176:	d1f4      	bne.n	8001162 <cli_simple_run_command_list+0x12>
			}
			line = next + 1;
		}
		++next;
	}
	if (rcode == 0 && *line)
 8001178:	7803      	ldrb	r3, [r0, #0]
 800117a:	b943      	cbnz	r3, 800118e <cli_simple_run_command_list+0x3e>
 800117c:	2000      	movs	r0, #0
 800117e:	bd38      	pop	{r3, r4, r5, pc}
	while (*next) {
		if (*next == '\n') {
			*next = '\0';
			/* run only non-empty commands */
			if (*line) {
				if (cli_simple_run_command(line, 0) < 0) {
 8001180:	2100      	movs	r1, #0
 8001182:	f7ff ff59 	bl	8001038 <cli_simple_run_command>
 8001186:	2800      	cmp	r0, #0
 8001188:	daf1      	bge.n	800116e <cli_simple_run_command_list+0x1e>
 800118a:	2001      	movs	r0, #1
		++next;
	}
	if (rcode == 0 && *line)
		rcode = (cli_simple_run_command(line, 0) < 0);

	return rcode;
 800118c:	bd38      	pop	{r3, r4, r5, pc}
			line = next + 1;
		}
		++next;
	}
	if (rcode == 0 && *line)
		rcode = (cli_simple_run_command(line, 0) < 0);
 800118e:	f7ff ff53 	bl	8001038 <cli_simple_run_command>
 8001192:	0fc0      	lsrs	r0, r0, #31
 8001194:	bd38      	pop	{r3, r4, r5, pc}
 8001196:	2000      	movs	r0, #0

	return rcode;
}
 8001198:	4770      	bx	lr
 800119a:	bf00      	nop

0800119c <show_memory>:
static int show_memory(cmd_tbl_t *cmdtp, int flag, int argc, char * const argv[])
{
	unsigned int val;
	unsigned int *addr;
	
	if (argc != 2)
 800119c:	2a02      	cmp	r2, #2
 800119e:	d10f      	bne.n	80011c0 <show_memory+0x24>
#include "command.h"
#include "cmd_d.h"


static int show_memory(cmd_tbl_t *cmdtp, int flag, int argc, char * const argv[])
{
 80011a0:	b508      	push	{r3, lr}
	if (argc != 2)
	{
		return -1;
	}
	
	val = strtoul(argv[1], NULL, 16);
 80011a2:	6858      	ldr	r0, [r3, #4]
 80011a4:	2210      	movs	r2, #16
 80011a6:	2100      	movs	r1, #0
 80011a8:	f013 ff52 	bl	8015050 <strtoul>
 80011ac:	4601      	mov	r1, r0
	addr = (unsigned int *)val;
#if 1
	printf("0x%p 0x%08x\r\n", addr, *addr);
 80011ae:	4806      	ldr	r0, [pc, #24]	; (80011c8 <show_memory+0x2c>)
 80011b0:	680a      	ldr	r2, [r1, #0]
 80011b2:	f013 fde1 	bl	8014d78 <iprintf>
	printf("\r\n");
 80011b6:	4805      	ldr	r0, [pc, #20]	; (80011cc <show_memory+0x30>)
 80011b8:	f013 fdde 	bl	8014d78 <iprintf>
#else
	printf("0x%p 0x%08x\n", addr, *addr);
#endif
	return 0;
 80011bc:	2000      	movs	r0, #0
 80011be:	bd08      	pop	{r3, pc}
	unsigned int val;
	unsigned int *addr;
	
	if (argc != 2)
	{
		return -1;
 80011c0:	f04f 30ff 	mov.w	r0, #4294967295
 80011c4:	4770      	bx	lr
 80011c6:	bf00      	nop
 80011c8:	080162c0 	.word	0x080162c0
 80011cc:	080164ec 	.word	0x080164ec

080011d0 <cmd_d_init>:
#endif
	return 0;
}

int cmd_d_init(void)
{
 80011d0:	b500      	push	{lr}
	int ret;
	
	ret = cmd_register(
 80011d2:	4a07      	ldr	r2, [pc, #28]	; (80011f0 <cmd_d_init+0x20>)
 80011d4:	4b07      	ldr	r3, [pc, #28]	; (80011f4 <cmd_d_init+0x24>)
#endif
	return 0;
}

int cmd_d_init(void)
{
 80011d6:	b083      	sub	sp, #12
	int ret;
	
	ret = cmd_register(
 80011d8:	9201      	str	r2, [sp, #4]
 80011da:	9300      	str	r3, [sp, #0]
 80011dc:	2200      	movs	r2, #0
 80011de:	4b06      	ldr	r3, [pc, #24]	; (80011f8 <cmd_d_init+0x28>)
 80011e0:	2110      	movs	r1, #16
 80011e2:	4806      	ldr	r0, [pc, #24]	; (80011fc <cmd_d_init+0x2c>)
 80011e4:	f000 f8e0 	bl	80013a8 <cmd_register>
		"addr [arg ...]\n	 - start application at address 'addr'\n"
		"	   passing 'arg' as arguments"
	);

	return ret;
}
 80011e8:	b003      	add	sp, #12
 80011ea:	f85d fb04 	ldr.w	pc, [sp], #4
 80011ee:	bf00      	nop
 80011f0:	080162d0 	.word	0x080162d0
 80011f4:	08016328 	.word	0x08016328
 80011f8:	0800119d 	.word	0x0800119d
 80011fc:	0801783c 	.word	0x0801783c

08001200 <do_help>:
#include "command.h"
#include "cmd_help.h"


static int do_help(cmd_tbl_t *cmdtp, int flag, int argc, char * const argv[])
{
 8001200:	e92d 41f0 	stmdb	sp!, {r4, r5, r6, r7, r8, lr}
 8001204:	b082      	sub	sp, #8
 8001206:	460e      	mov	r6, r1
 8001208:	4617      	mov	r7, r2
 800120a:	4698      	mov	r8, r3
 800120c:	4605      	mov	r5, r0
	cmd_tbl_t *start = cmd_entry_start();
 800120e:	f000 f8c5 	bl	800139c <cmd_entry_start>
 8001212:	4604      	mov	r4, r0
	int len = cmd_entry_count();
 8001214:	f000 f8c6 	bl	80013a4 <cmd_entry_count>
	
	return _do_help(start, len, cmdtp, flag, argc, argv);
 8001218:	f8cd 8004 	str.w	r8, [sp, #4]
 800121c:	4601      	mov	r1, r0
 800121e:	9700      	str	r7, [sp, #0]
 8001220:	4633      	mov	r3, r6
 8001222:	462a      	mov	r2, r5
 8001224:	4620      	mov	r0, r4
 8001226:	f000 f93b 	bl	80014a0 <_do_help>
}
 800122a:	b002      	add	sp, #8
 800122c:	e8bd 81f0 	ldmia.w	sp!, {r4, r5, r6, r7, r8, pc}

08001230 <cmd_help_init>:

int cmd_help_init(void)
{
 8001230:	b510      	push	{r4, lr}
	int ret;
	
	ret = cmd_register(
 8001232:	490c      	ldr	r1, [pc, #48]	; (8001264 <cmd_help_init+0x34>)
 8001234:	4c0c      	ldr	r4, [pc, #48]	; (8001268 <cmd_help_init+0x38>)
 8001236:	4a0d      	ldr	r2, [pc, #52]	; (800126c <cmd_help_init+0x3c>)
	
	return _do_help(start, len, cmdtp, flag, argc, argv);
}

int cmd_help_init(void)
{
 8001238:	b082      	sub	sp, #8
	int ret;
	
	ret = cmd_register(
 800123a:	4623      	mov	r3, r4
 800123c:	9101      	str	r1, [sp, #4]
 800123e:	9200      	str	r2, [sp, #0]
 8001240:	2110      	movs	r1, #16
 8001242:	2200      	movs	r2, #0
 8001244:	480a      	ldr	r0, [pc, #40]	; (8001270 <cmd_help_init+0x40>)
 8001246:	f000 f8af 	bl	80013a8 <cmd_register>
		"	- print brief description of all commands\n"
		"help command ...\n"
		"	- print detailed usage of 'command'"
	);

	ret = cmd_register(
 800124a:	490a      	ldr	r1, [pc, #40]	; (8001274 <cmd_help_init+0x44>)
 800124c:	4a0a      	ldr	r2, [pc, #40]	; (8001278 <cmd_help_init+0x48>)
 800124e:	9101      	str	r1, [sp, #4]
 8001250:	9200      	str	r2, [sp, #0]
 8001252:	4623      	mov	r3, r4
 8001254:	2200      	movs	r2, #0
 8001256:	2110      	movs	r1, #16
 8001258:	4808      	ldr	r0, [pc, #32]	; (800127c <cmd_help_init+0x4c>)
 800125a:	f000 f8a5 	bl	80013a8 <cmd_register>
		"alias for 'help'",
		""
	);

	return ret;
 800125e:	b002      	add	sp, #8
 8001260:	bd10      	pop	{r4, pc}
 8001262:	bf00      	nop
 8001264:	08016354 	.word	0x08016354
 8001268:	08001201 	.word	0x08001201
 800126c:	080163b8 	.word	0x080163b8
 8001270:	0801634c 	.word	0x0801634c
 8001274:	08016544 	.word	0x08016544
 8001278:	080163dc 	.word	0x080163dc
 800127c:	080163d8 	.word	0x080163d8

08001280 <modify_memory>:
static int modify_memory(cmd_tbl_t *cmdtp, int flag, int argc, char * const argv[])
{
	unsigned int val;
	unsigned int *addr;
	
	if (argc != 3)
 8001280:	2a03      	cmp	r2, #3
#include "command.h"
#include "cmd_m.h"


static int modify_memory(cmd_tbl_t *cmdtp, int flag, int argc, char * const argv[])
{
 8001282:	b538      	push	{r3, r4, r5, lr}
	unsigned int val;
	unsigned int *addr;
	
	if (argc != 3)
 8001284:	d10f      	bne.n	80012a6 <modify_memory+0x26>
	{
		return -1;
	}
	
	val = strtoul(argv[1], NULL, 16);
 8001286:	6858      	ldr	r0, [r3, #4]
 8001288:	2210      	movs	r2, #16
 800128a:	2100      	movs	r1, #0
 800128c:	461c      	mov	r4, r3
 800128e:	f013 fedf 	bl	8015050 <strtoul>
	addr = (unsigned int *)val;
	val = strtoul(argv[2], NULL, 16);
 8001292:	2210      	movs	r2, #16
	if (argc != 3)
	{
		return -1;
	}
	
	val = strtoul(argv[1], NULL, 16);
 8001294:	4605      	mov	r5, r0
	addr = (unsigned int *)val;
	val = strtoul(argv[2], NULL, 16);
 8001296:	2100      	movs	r1, #0
 8001298:	68a0      	ldr	r0, [r4, #8]
 800129a:	f013 fed9 	bl	8015050 <strtoul>
	*addr = val;

	return 0;
 800129e:	2300      	movs	r3, #0
	}
	
	val = strtoul(argv[1], NULL, 16);
	addr = (unsigned int *)val;
	val = strtoul(argv[2], NULL, 16);
	*addr = val;
 80012a0:	6028      	str	r0, [r5, #0]

	return 0;
}
 80012a2:	4618      	mov	r0, r3
 80012a4:	bd38      	pop	{r3, r4, r5, pc}
	unsigned int val;
	unsigned int *addr;
	
	if (argc != 3)
	{
		return -1;
 80012a6:	f04f 33ff 	mov.w	r3, #4294967295
	addr = (unsigned int *)val;
	val = strtoul(argv[2], NULL, 16);
	*addr = val;

	return 0;
}
 80012aa:	4618      	mov	r0, r3
 80012ac:	bd38      	pop	{r3, r4, r5, pc}
 80012ae:	bf00      	nop

080012b0 <cmd_m_init>:

int cmd_m_init(void)
{
 80012b0:	b500      	push	{lr}
	int ret;
	
	ret = cmd_register(
 80012b2:	4a07      	ldr	r2, [pc, #28]	; (80012d0 <cmd_m_init+0x20>)
 80012b4:	4b07      	ldr	r3, [pc, #28]	; (80012d4 <cmd_m_init+0x24>)

	return 0;
}

int cmd_m_init(void)
{
 80012b6:	b083      	sub	sp, #12
	int ret;
	
	ret = cmd_register(
 80012b8:	9201      	str	r2, [sp, #4]
 80012ba:	9300      	str	r3, [sp, #0]
 80012bc:	2200      	movs	r2, #0
 80012be:	4b06      	ldr	r3, [pc, #24]	; (80012d8 <cmd_m_init+0x28>)
 80012c0:	2110      	movs	r1, #16
 80012c2:	4806      	ldr	r0, [pc, #24]	; (80012dc <cmd_m_init+0x2c>)
 80012c4:	f000 f870 	bl	80013a8 <cmd_register>
		"addr [arg ...]\n	 - start application at address 'addr'\n"
		"	   passing 'arg' as arguments"
	);

	return ret;
}
 80012c8:	b003      	add	sp, #12
 80012ca:	f85d fb04 	ldr.w	pc, [sp], #4
 80012ce:	bf00      	nop
 80012d0:	080162d0 	.word	0x080162d0
 80012d4:	08016328 	.word	0x08016328
 80012d8:	08001281 	.word	0x08001281
 80012dc:	080163f0 	.word	0x080163f0

080012e0 <do_reset>:
#include "command.h"
#include "cmd_reset.h"


int do_reset(cmd_tbl_t *cmdtp, int flag, int argc, char * const argv[])
{
 80012e0:	b508      	push	{r3, lr}
	printf("Resetting the board...\n");
 80012e2:	4803      	ldr	r0, [pc, #12]	; (80012f0 <do_reset+0x10>)
 80012e4:	f013 fd48 	bl	8014d78 <iprintf>

	BSP_SoftReset();
 80012e8:	f7ff fc1e 	bl	8000b28 <BSP_SoftReset>

	/*NOTREACHED*/
	return 0;
}
 80012ec:	2000      	movs	r0, #0
 80012ee:	bd08      	pop	{r3, pc}
 80012f0:	080163f4 	.word	0x080163f4

080012f4 <cmd_reset_init>:

int cmd_reset_init(void)
{
 80012f4:	b500      	push	{lr}
	int ret;
	
	ret = cmd_register(
 80012f6:	4a07      	ldr	r2, [pc, #28]	; (8001314 <cmd_reset_init+0x20>)
 80012f8:	4b07      	ldr	r3, [pc, #28]	; (8001318 <cmd_reset_init+0x24>)
	/*NOTREACHED*/
	return 0;
}

int cmd_reset_init(void)
{
 80012fa:	b083      	sub	sp, #12
	int ret;
	
	ret = cmd_register(
 80012fc:	9201      	str	r2, [sp, #4]
 80012fe:	9300      	str	r3, [sp, #0]
 8001300:	2200      	movs	r2, #0
 8001302:	4b06      	ldr	r3, [pc, #24]	; (800131c <cmd_reset_init+0x28>)
 8001304:	2101      	movs	r1, #1
 8001306:	4806      	ldr	r0, [pc, #24]	; (8001320 <cmd_reset_init+0x2c>)
 8001308:	f000 f84e 	bl	80013a8 <cmd_register>
		"Perform RESET of the CPU",
		""
	);
	
	return ret;
}
 800130c:	b003      	add	sp, #12
 800130e:	f85d fb04 	ldr.w	pc, [sp], #4
 8001312:	bf00      	nop
 8001314:	08016544 	.word	0x08016544
 8001318:	08016414 	.word	0x08016414
 800131c:	080012e1 	.word	0x080012e1
 8001320:	0801640c 	.word	0x0801640c

08001324 <show_version>:
#include "command.h"
#include "cmd_ver.h"


static int show_version(cmd_tbl_t *cmdtp, int flag, int argc, char * const argv[])
{
 8001324:	b508      	push	{r3, lr}
#if 1
	printf("Hardware version:  %s\r\n", "\tVer.A");
 8001326:	4909      	ldr	r1, [pc, #36]	; (800134c <show_version+0x28>)
 8001328:	4809      	ldr	r0, [pc, #36]	; (8001350 <show_version+0x2c>)
 800132a:	f013 fd25 	bl	8014d78 <iprintf>
	printf("Software version: %s\r\n", "\t1.0.0.0");
 800132e:	4909      	ldr	r1, [pc, #36]	; (8001354 <show_version+0x30>)
 8001330:	4809      	ldr	r0, [pc, #36]	; (8001358 <show_version+0x34>)
 8001332:	f013 fd21 	bl	8014d78 <iprintf>
	printf("build time:\t\t%s %s\r\n", __DATE__, __TIME__);
 8001336:	4a09      	ldr	r2, [pc, #36]	; (800135c <show_version+0x38>)
 8001338:	4909      	ldr	r1, [pc, #36]	; (8001360 <show_version+0x3c>)
 800133a:	480a      	ldr	r0, [pc, #40]	; (8001364 <show_version+0x40>)
 800133c:	f013 fd1c 	bl	8014d78 <iprintf>
	printf("\r\n");
 8001340:	4809      	ldr	r0, [pc, #36]	; (8001368 <show_version+0x44>)
 8001342:	f013 fd19 	bl	8014d78 <iprintf>
	printf("Hardware version:  %s\n", "\tVer.A");
	printf("Software version: %s\n", "\t1.0.0.0");
	printf("build time:\t\t%s %s\n", __DATE__, __TIME__);
#endif
	return 0;
}
 8001346:	2000      	movs	r0, #0
 8001348:	bd08      	pop	{r3, pc}
 800134a:	bf00      	nop
 800134c:	08016430 	.word	0x08016430
 8001350:	08016438 	.word	0x08016438
 8001354:	08016450 	.word	0x08016450
 8001358:	0801645c 	.word	0x0801645c
 800135c:	08016474 	.word	0x08016474
 8001360:	08016480 	.word	0x08016480
 8001364:	0801648c 	.word	0x0801648c
 8001368:	080164ec 	.word	0x080164ec

0800136c <cmd_ver_init>:

int cmd_ver_init(void)
{
 800136c:	b500      	push	{lr}
	int ret;
	
	ret = cmd_register(
 800136e:	4a07      	ldr	r2, [pc, #28]	; (800138c <cmd_ver_init+0x20>)
 8001370:	4b07      	ldr	r3, [pc, #28]	; (8001390 <cmd_ver_init+0x24>)
#endif
	return 0;
}

int cmd_ver_init(void)
{
 8001372:	b083      	sub	sp, #12
	int ret;
	
	ret = cmd_register(
 8001374:	9201      	str	r2, [sp, #4]
 8001376:	9300      	str	r3, [sp, #0]
 8001378:	2200      	movs	r2, #0
 800137a:	4b06      	ldr	r3, [pc, #24]	; (8001394 <cmd_ver_init+0x28>)
 800137c:	2110      	movs	r1, #16
 800137e:	4806      	ldr	r0, [pc, #24]	; (8001398 <cmd_ver_init+0x2c>)
 8001380:	f000 f812 	bl	80013a8 <cmd_register>
		"addr [arg ...]\n	 - start application at address 'addr'\n"
		"	   passing 'arg' as arguments"
	);

	return ret;
}
 8001384:	b003      	add	sp, #12
 8001386:	f85d fb04 	ldr.w	pc, [sp], #4
 800138a:	bf00      	nop
 800138c:	080162d0 	.word	0x080162d0
 8001390:	08016328 	.word	0x08016328
 8001394:	08001325 	.word	0x08001325
 8001398:	080164a4 	.word	0x080164a4

0800139c <cmd_entry_start>:
cmd_tbl_t cmd_tbl[MAX_CMD_LINE] = {0};

cmd_tbl_t *cmd_entry_start(void)
{
	return &cmd_tbl[0];
}
 800139c:	4800      	ldr	r0, [pc, #0]	; (80013a0 <cmd_entry_start+0x4>)
 800139e:	4770      	bx	lr
 80013a0:	200003a8 	.word	0x200003a8

080013a4 <cmd_entry_count>:

int cmd_entry_count(void)
{
	return MAX_CMD_LINE;
}
 80013a4:	2020      	movs	r0, #32
 80013a6:	4770      	bx	lr

080013a8 <cmd_register>:

int cmd_register(char *name, int maxargs, int repeatable, 
	int (*cmd)(struct cmd_tbl_s *, int, int, char * const []), char *usage, char *help)
{
 80013a8:	b4f0      	push	{r4, r5, r6, r7}
	if (cmd_index >= MAX_CMD_LINE)
 80013aa:	4e0d      	ldr	r6, [pc, #52]	; (80013e0 <cmd_register+0x38>)
 80013ac:	f8b6 4380 	ldrh.w	r4, [r6, #896]	; 0x380
 80013b0:	2c1f      	cmp	r4, #31
 80013b2:	d812      	bhi.n	80013da <cmd_register+0x32>
	{
		return CMD_REGISTER_FAIL;
	}
	
	cmd_tbl[cmd_index].name = name;
 80013b4:	ebc4 07c4 	rsb	r7, r4, r4, lsl #3
 80013b8:	00bf      	lsls	r7, r7, #2
 80013ba:	19f5      	adds	r5, r6, r7
	cmd_tbl[cmd_index].maxargs = maxargs;
	cmd_tbl[cmd_index].repeatable = repeatable;
	cmd_tbl[cmd_index].cmd = cmd;
 80013bc:	60eb      	str	r3, [r5, #12]
	cmd_tbl[cmd_index].usage = usage;
 80013be:	9b04      	ldr	r3, [sp, #16]
	cmd_tbl[cmd_index].help = help;
	cmd_tbl[cmd_index].complete = NULL;

	cmd_index++;
 80013c0:	3401      	adds	r4, #1
	
	cmd_tbl[cmd_index].name = name;
	cmd_tbl[cmd_index].maxargs = maxargs;
	cmd_tbl[cmd_index].repeatable = repeatable;
	cmd_tbl[cmd_index].cmd = cmd;
	cmd_tbl[cmd_index].usage = usage;
 80013c2:	612b      	str	r3, [r5, #16]
	cmd_tbl[cmd_index].help = help;
 80013c4:	9b05      	ldr	r3, [sp, #20]
	if (cmd_index >= MAX_CMD_LINE)
	{
		return CMD_REGISTER_FAIL;
	}
	
	cmd_tbl[cmd_index].name = name;
 80013c6:	51f0      	str	r0, [r6, r7]
	cmd_tbl[cmd_index].maxargs = maxargs;
	cmd_tbl[cmd_index].repeatable = repeatable;
	cmd_tbl[cmd_index].cmd = cmd;
	cmd_tbl[cmd_index].usage = usage;
	cmd_tbl[cmd_index].help = help;
	cmd_tbl[cmd_index].complete = NULL;
 80013c8:	2000      	movs	r0, #0
	{
		return CMD_REGISTER_FAIL;
	}
	
	cmd_tbl[cmd_index].name = name;
	cmd_tbl[cmd_index].maxargs = maxargs;
 80013ca:	6069      	str	r1, [r5, #4]
	cmd_tbl[cmd_index].repeatable = repeatable;
 80013cc:	60aa      	str	r2, [r5, #8]
	cmd_tbl[cmd_index].cmd = cmd;
	cmd_tbl[cmd_index].usage = usage;
	cmd_tbl[cmd_index].help = help;
 80013ce:	616b      	str	r3, [r5, #20]
	cmd_tbl[cmd_index].complete = NULL;

	cmd_index++;
 80013d0:	f8a6 4380 	strh.w	r4, [r6, #896]	; 0x380
	cmd_tbl[cmd_index].maxargs = maxargs;
	cmd_tbl[cmd_index].repeatable = repeatable;
	cmd_tbl[cmd_index].cmd = cmd;
	cmd_tbl[cmd_index].usage = usage;
	cmd_tbl[cmd_index].help = help;
	cmd_tbl[cmd_index].complete = NULL;
 80013d4:	61a8      	str	r0, [r5, #24]

	cmd_index++;
	return CMD_REGISTER_OK;
}
 80013d6:	bcf0      	pop	{r4, r5, r6, r7}
 80013d8:	4770      	bx	lr
int cmd_register(char *name, int maxargs, int repeatable, 
	int (*cmd)(struct cmd_tbl_s *, int, int, char * const []), char *usage, char *help)
{
	if (cmd_index >= MAX_CMD_LINE)
	{
		return CMD_REGISTER_FAIL;
 80013da:	f04f 30ff 	mov.w	r0, #4294967295
 80013de:	e7fa      	b.n	80013d6 <cmd_register+0x2e>
 80013e0:	200003a8 	.word	0x200003a8

080013e4 <find_cmd_tbl>:
	cmd_tbl_t *cmdtp_temp = table;	/* Init value */
	const char *p;
	int len;
	int n_found = 0;

	if (!cmd)
 80013e4:	b390      	cbz	r0, 800144c <find_cmd_tbl+0x68>
	return rcode;
}

/* find command table entry for a command */
cmd_tbl_t *find_cmd_tbl(const char *cmd, cmd_tbl_t *table, int table_len)
{
 80013e6:	e92d 43f8 	stmdb	sp!, {r3, r4, r5, r6, r7, r8, r9, lr}
 80013ea:	4615      	mov	r5, r2
 80013ec:	4688      	mov	r8, r1
 80013ee:	4607      	mov	r7, r0
	int n_found = 0;

	if (!cmd)
		return NULL;

	len = strlen (cmd);
 80013f0:	f013 fc0a 	bl	8014c08 <strlen>

	for (cmdtp = table; cmdtp != table + table_len; cmdtp++) {
 80013f4:	ebc5 05c5 	rsb	r5, r5, r5, lsl #3
 80013f8:	eb08 0585 	add.w	r5, r8, r5, lsl #2
 80013fc:	45a8      	cmp	r8, r5
	int n_found = 0;

	if (!cmd)
		return NULL;

	len = strlen (cmd);
 80013fe:	4606      	mov	r6, r0

	for (cmdtp = table; cmdtp != table + table_len; cmdtp++) {
 8001400:	d021      	beq.n	8001446 <find_cmd_tbl+0x62>
 8001402:	4644      	mov	r4, r8
 8001404:	f04f 0900 	mov.w	r9, #0
 8001408:	e002      	b.n	8001410 <find_cmd_tbl+0x2c>
 800140a:	341c      	adds	r4, #28
 800140c:	42ac      	cmp	r4, r5
 800140e:	d011      	beq.n	8001434 <find_cmd_tbl+0x50>
		if (strncmp(cmd, cmdtp->name, len) == 0) {
 8001410:	4632      	mov	r2, r6
 8001412:	6821      	ldr	r1, [r4, #0]
 8001414:	4638      	mov	r0, r7
 8001416:	f013 fd84 	bl	8014f22 <strncmp>
 800141a:	2800      	cmp	r0, #0
 800141c:	d1f5      	bne.n	800140a <find_cmd_tbl+0x26>
			if (len == strlen(cmdtp->name))
 800141e:	6820      	ldr	r0, [r4, #0]
 8001420:	f013 fbf2 	bl	8014c08 <strlen>
 8001424:	4286      	cmp	r6, r0
 8001426:	d00b      	beq.n	8001440 <find_cmd_tbl+0x5c>
				return cmdtp;	/* full match */

			cmdtp_temp = cmdtp;	/* abbreviated command ? */
			n_found++;
 8001428:	46a0      	mov	r8, r4
	if (!cmd)
		return NULL;

	len = strlen (cmd);

	for (cmdtp = table; cmdtp != table + table_len; cmdtp++) {
 800142a:	341c      	adds	r4, #28
 800142c:	42ac      	cmp	r4, r5
		if (strncmp(cmd, cmdtp->name, len) == 0) {
			if (len == strlen(cmdtp->name))
				return cmdtp;	/* full match */

			cmdtp_temp = cmdtp;	/* abbreviated command ? */
			n_found++;
 800142e:	f109 0901 	add.w	r9, r9, #1
	if (!cmd)
		return NULL;

	len = strlen (cmd);

	for (cmdtp = table; cmdtp != table + table_len; cmdtp++) {
 8001432:	d1ed      	bne.n	8001410 <find_cmd_tbl+0x2c>

			cmdtp_temp = cmdtp;	/* abbreviated command ? */
			n_found++;
		}
	}
	if (n_found == 1) {			/* exactly one match */
 8001434:	f1b9 0f01 	cmp.w	r9, #1
 8001438:	d105      	bne.n	8001446 <find_cmd_tbl+0x62>
 800143a:	4640      	mov	r0, r8
 800143c:	e8bd 83f8 	ldmia.w	sp!, {r3, r4, r5, r6, r7, r8, r9, pc}
 8001440:	4620      	mov	r0, r4
		return cmdtp_temp;
	}

	return NULL;	/* not found or ambiguous command */
}
 8001442:	e8bd 83f8 	ldmia.w	sp!, {r3, r4, r5, r6, r7, r8, r9, pc}
	const char *p;
	int len;
	int n_found = 0;

	if (!cmd)
		return NULL;
 8001446:	2000      	movs	r0, #0
 8001448:	e8bd 83f8 	ldmia.w	sp!, {r3, r4, r5, r6, r7, r8, r9, pc}
 800144c:	2000      	movs	r0, #0
	if (n_found == 1) {			/* exactly one match */
		return cmdtp_temp;
	}

	return NULL;	/* not found or ambiguous command */
}
 800144e:	4770      	bx	lr

08001450 <find_cmd>:

cmd_tbl_t *find_cmd(const char *cmd)
{
	return find_cmd_tbl(cmd, cmd_tbl, MAX_CMD_LINE);
 8001450:	2220      	movs	r2, #32
 8001452:	4901      	ldr	r1, [pc, #4]	; (8001458 <find_cmd+0x8>)
 8001454:	f7ff bfc6 	b.w	80013e4 <find_cmd_tbl>
 8001458:	200003a8 	.word	0x200003a8

0800145c <cmd_usage>:
}

int cmd_usage(const cmd_tbl_t *cmdtp)
{
 800145c:	b510      	push	{r4, lr}
 800145e:	4604      	mov	r4, r0
	printf("%s - %s\r\n", cmdtp->name, cmdtp->usage);
 8001460:	480b      	ldr	r0, [pc, #44]	; (8001490 <cmd_usage+0x34>)
 8001462:	6922      	ldr	r2, [r4, #16]
 8001464:	6821      	ldr	r1, [r4, #0]
 8001466:	f013 fc87 	bl	8014d78 <iprintf>

	printf("Usage:\r\n%s ", cmdtp->name);
 800146a:	6821      	ldr	r1, [r4, #0]
 800146c:	4809      	ldr	r0, [pc, #36]	; (8001494 <cmd_usage+0x38>)
 800146e:	f013 fc83 	bl	8014d78 <iprintf>

	if (!cmdtp->help) {
 8001472:	6960      	ldr	r0, [r4, #20]
 8001474:	b130      	cbz	r0, 8001484 <cmd_usage+0x28>
		puts ("- No additional help available.\r\n");
		return 1;
	}

	puts(cmdtp->help);
 8001476:	f013 fd2f 	bl	8014ed8 <puts>
	puts("\r\n");
 800147a:	4807      	ldr	r0, [pc, #28]	; (8001498 <cmd_usage+0x3c>)
 800147c:	f013 fd2c 	bl	8014ed8 <puts>

	return 1;
}
 8001480:	2001      	movs	r0, #1
 8001482:	bd10      	pop	{r4, pc}
	printf("%s - %s\r\n", cmdtp->name, cmdtp->usage);

	printf("Usage:\r\n%s ", cmdtp->name);

	if (!cmdtp->help) {
		puts ("- No additional help available.\r\n");
 8001484:	4805      	ldr	r0, [pc, #20]	; (800149c <cmd_usage+0x40>)
 8001486:	f013 fd27 	bl	8014ed8 <puts>

	puts(cmdtp->help);
	puts("\r\n");

	return 1;
}
 800148a:	2001      	movs	r0, #1
 800148c:	bd10      	pop	{r4, pc}
 800148e:	bf00      	nop
 8001490:	080164a8 	.word	0x080164a8
 8001494:	080164b4 	.word	0x080164b4
 8001498:	080164ec 	.word	0x080164ec
 800149c:	080164c0 	.word	0x080164c0

080014a0 <_do_help>:
 * for long help messages
 */

int _do_help(cmd_tbl_t *cmd_start, int cmd_items, cmd_tbl_t *cmdtp, int flag,
	     int argc, char * const argv[])
{
 80014a0:	e92d 43f8 	stmdb	sp!, {r3, r4, r5, r6, r7, r8, r9, lr}
 80014a4:	f8dd 9020 	ldr.w	r9, [sp, #32]
 80014a8:	4605      	mov	r5, r0
	int i, swaps;
	int rcode = 0;
	cmd_tbl_t *tmp = NULL;
	char *usage = NULL;

	if (argc == 1) {	/* show list of commands */
 80014aa:	f1b9 0f01 	cmp.w	r9, #1
 * for long help messages
 */

int _do_help(cmd_tbl_t *cmd_start, int cmd_items, cmd_tbl_t *cmdtp, int flag,
	     int argc, char * const argv[])
{
 80014ae:	4688      	mov	r8, r1
	int i, swaps;
	int rcode = 0;
	cmd_tbl_t *tmp = NULL;
	char *usage = NULL;

	if (argc == 1) {	/* show list of commands */
 80014b0:	d01f      	beq.n	80014f2 <_do_help+0x52>
		return 0;
	}
	/*
	 * command help (long version)
	 */
	for (i = 1; i < argc; ++i) {
 80014b2:	dd39      	ble.n	8001528 <_do_help+0x88>
 80014b4:	9e09      	ldr	r6, [sp, #36]	; 0x24
 80014b6:	2700      	movs	r7, #0
 80014b8:	2401      	movs	r4, #1
 80014ba:	e006      	b.n	80014ca <_do_help+0x2a>
		cmdtp = find_cmd_tbl(argv[i], cmd_start, cmd_items);
		if (cmdtp != NULL) {
			rcode |= cmd_usage(cmdtp);
 80014bc:	f7ff ffce 	bl	800145c <cmd_usage>
		return 0;
	}
	/*
	 * command help (long version)
	 */
	for (i = 1; i < argc; ++i) {
 80014c0:	3401      	adds	r4, #1
 80014c2:	45a1      	cmp	r9, r4
		cmdtp = find_cmd_tbl(argv[i], cmd_start, cmd_items);
		if (cmdtp != NULL) {
			rcode |= cmd_usage(cmdtp);
 80014c4:	ea47 0700 	orr.w	r7, r7, r0
		return 0;
	}
	/*
	 * command help (long version)
	 */
	for (i = 1; i < argc; ++i) {
 80014c8:	d010      	beq.n	80014ec <_do_help+0x4c>
		cmdtp = find_cmd_tbl(argv[i], cmd_start, cmd_items);
 80014ca:	4642      	mov	r2, r8
 80014cc:	4629      	mov	r1, r5
 80014ce:	f856 0f04 	ldr.w	r0, [r6, #4]!
 80014d2:	f7ff ff87 	bl	80013e4 <find_cmd_tbl>
		if (cmdtp != NULL) {
 80014d6:	2800      	cmp	r0, #0
 80014d8:	d1f0      	bne.n	80014bc <_do_help+0x1c>
			rcode |= cmd_usage(cmdtp);
		} else {
			printf("Unknown command '%s' - try 'help' without arguments for list of all known commands\n\n",
 80014da:	6831      	ldr	r1, [r6, #0]
 80014dc:	4814      	ldr	r0, [pc, #80]	; (8001530 <_do_help+0x90>)
		return 0;
	}
	/*
	 * command help (long version)
	 */
	for (i = 1; i < argc; ++i) {
 80014de:	3401      	adds	r4, #1
		cmdtp = find_cmd_tbl(argv[i], cmd_start, cmd_items);
		if (cmdtp != NULL) {
			rcode |= cmd_usage(cmdtp);
		} else {
			printf("Unknown command '%s' - try 'help' without arguments for list of all known commands\n\n",
 80014e0:	f013 fc4a 	bl	8014d78 <iprintf>
		return 0;
	}
	/*
	 * command help (long version)
	 */
	for (i = 1; i < argc; ++i) {
 80014e4:	45a1      	cmp	r9, r4
		if (cmdtp != NULL) {
			rcode |= cmd_usage(cmdtp);
		} else {
			printf("Unknown command '%s' - try 'help' without arguments for list of all known commands\n\n",
			       argv[i]);
			rcode = 1;
 80014e6:	f04f 0701 	mov.w	r7, #1
		return 0;
	}
	/*
	 * command help (long version)
	 */
	for (i = 1; i < argc; ++i) {
 80014ea:	d1ee      	bne.n	80014ca <_do_help+0x2a>
 80014ec:	4638      	mov	r0, r7
 80014ee:	e8bd 83f8 	ldmia.w	sp!, {r3, r4, r5, r6, r7, r8, r9, pc}
	cmd_tbl_t *tmp = NULL;
	char *usage = NULL;

	if (argc == 1) {	/* show list of commands */
		/* print short help (usage) */
		for (i = 0; i < cmd_items; i++) {
 80014f2:	2900      	cmp	r1, #0
 80014f4:	dd18      	ble.n	8001528 <_do_help+0x88>
 80014f6:	f100 0410 	add.w	r4, r0, #16
 80014fa:	2500      	movs	r5, #0
 80014fc:	e00a      	b.n	8001514 <_do_help+0x74>
			/* allow user abort */
			if (ctrlc())
				return 1;
			if (usage == NULL)
				continue;
			printf("%-*s- %s\r\n", CONFIG_SYS_HELP_CMD_WIDTH,
 80014fe:	480d      	ldr	r0, [pc, #52]	; (8001534 <_do_help+0x94>)
			usage = tmp->usage;

			/* allow user abort */
			if (ctrlc())
				return 1;
			if (usage == NULL)
 8001500:	b126      	cbz	r6, 800150c <_do_help+0x6c>
				continue;
			printf("%-*s- %s\r\n", CONFIG_SYS_HELP_CMD_WIDTH,
 8001502:	4633      	mov	r3, r6
 8001504:	f854 2c10 	ldr.w	r2, [r4, #-16]
 8001508:	f013 fc36 	bl	8014d78 <iprintf>
	cmd_tbl_t *tmp = NULL;
	char *usage = NULL;

	if (argc == 1) {	/* show list of commands */
		/* print short help (usage) */
		for (i = 0; i < cmd_items; i++) {
 800150c:	45a8      	cmp	r8, r5
 800150e:	f104 041c 	add.w	r4, r4, #28
 8001512:	d009      	beq.n	8001528 <_do_help+0x88>
			tmp = &cmd_start[i];
			usage = tmp->usage;
 8001514:	6826      	ldr	r6, [r4, #0]

			/* allow user abort */
			if (ctrlc())
 8001516:	f000 f8b1 	bl	800167c <ctrlc>
	cmd_tbl_t *tmp = NULL;
	char *usage = NULL;

	if (argc == 1) {	/* show list of commands */
		/* print short help (usage) */
		for (i = 0; i < cmd_items; i++) {
 800151a:	3501      	adds	r5, #1
			/* allow user abort */
			if (ctrlc())
				return 1;
			if (usage == NULL)
				continue;
			printf("%-*s- %s\r\n", CONFIG_SYS_HELP_CMD_WIDTH,
 800151c:	2108      	movs	r1, #8
		for (i = 0; i < cmd_items; i++) {
			tmp = &cmd_start[i];
			usage = tmp->usage;

			/* allow user abort */
			if (ctrlc())
 800151e:	2800      	cmp	r0, #0
 8001520:	d0ed      	beq.n	80014fe <_do_help+0x5e>
				return 1;
 8001522:	2001      	movs	r0, #1
			       argv[i]);
			rcode = 1;
		}
	}
	return rcode;
}
 8001524:	e8bd 83f8 	ldmia.w	sp!, {r3, r4, r5, r6, r7, r8, r9, pc}
			tmp = &cmd_start[i];
			usage = tmp->usage;

			/* allow user abort */
			if (ctrlc())
				return 1;
 8001528:	2000      	movs	r0, #0
 800152a:	e8bd 83f8 	ldmia.w	sp!, {r3, r4, r5, r6, r7, r8, r9, pc}
 800152e:	bf00      	nop
 8001530:	080164f0 	.word	0x080164f0
 8001534:	080164e4 	.word	0x080164e4

08001538 <cmd_auto_complete>:
}

static char tmp_buf[SHELL_SYS_CBSIZE + 1];	/* copy of console I/O buffer */

int cmd_auto_complete(const char *const prompt, char *buf, int *np, int *colp)
{
 8001538:	e92d 41f0 	stmdb	sp!, {r4, r5, r6, r7, r8, lr}
 800153c:	460c      	mov	r4, r1
 800153e:	b0a6      	sub	sp, #152	; 0x98
	const char *sep;
	int i, j, k, len, seplen, argc;
	int cnt;
	char last_char;

	if (strcmp(prompt, SHELL_SYS_PROMPT) != 0)
 8001540:	491f      	ldr	r1, [pc, #124]	; (80015c0 <cmd_auto_complete+0x88>)
 8001542:	f013 fb57 	bl	8014bf4 <strcmp>
 8001546:	b118      	cbz	r0, 8001550 <cmd_auto_complete+0x18>
		return 0;	/* not in normal console */
 8001548:	2000      	movs	r0, #0

		puts(prompt);
		puts(buf);
	}
	return 1;
}
 800154a:	b026      	add	sp, #152	; 0x98
 800154c:	e8bd 81f0 	ldmia.w	sp!, {r4, r5, r6, r7, r8, pc}
}
#endif

static int make_argv(char *s, int argvsz, char *argv[])
{
	int argc = 0;
 8001550:	4606      	mov	r6, r0
	char last_char;

	if (strcmp(prompt, SHELL_SYS_PROMPT) != 0)
		return 0;	/* not in normal console */

	cnt = strlen(buf);
 8001552:	4620      	mov	r0, r4
 8001554:	f013 fb58 	bl	8014c08 <strlen>
		last_char = buf[cnt - 1];
	else
		last_char = '\0';

	/* copy to secondary buffer which will be affected */
	strcpy(tmp_buf, buf);
 8001558:	4621      	mov	r1, r4
 800155a:	481a      	ldr	r0, [pc, #104]	; (80015c4 <cmd_auto_complete+0x8c>)
 800155c:	f013 fcc4 	bl	8014ee8 <strcpy>
			++s;

		if (*s == '\0')		/* end of s, no more args	*/
			break;

		*s++ = '\0';		/* terminate current arg	 */
 8001560:	46b0      	mov	r8, r6
		last_char = buf[cnt - 1];
	else
		last_char = '\0';

	/* copy to secondary buffer which will be affected */
	strcpy(tmp_buf, buf);
 8001562:	4d18      	ldr	r5, [pc, #96]	; (80015c4 <cmd_auto_complete+0x8c>)
 8001564:	af01      	add	r7, sp, #4

	/* split into argv */
	while (argc < argvsz - 1) {

		/* skip any white space */
		while (isblank(*s))
 8001566:	7828      	ldrb	r0, [r5, #0]
 8001568:	462c      	mov	r4, r5
 800156a:	3501      	adds	r5, #1
 800156c:	f013 fba6 	bl	8014cbc <isblank>
 8001570:	2800      	cmp	r0, #0
 8001572:	d1f8      	bne.n	8001566 <cmd_auto_complete+0x2e>
			++s;

		if (*s == '\0')	/* end of s, no more args	*/
 8001574:	7820      	ldrb	r0, [r4, #0]
 8001576:	b1b0      	cbz	r0, 80015a6 <cmd_auto_complete+0x6e>
			break;

		argv[argc++] = s;	/* begin of argument string	*/
 8001578:	3601      	adds	r6, #1
 800157a:	f847 4b04 	str.w	r4, [r7], #4
 800157e:	e002      	b.n	8001586 <cmd_auto_complete+0x4e>

		/* find end of string */
		while (*s && !isblank(*s))
 8001580:	f814 0f01 	ldrb.w	r0, [r4, #1]!
 8001584:	b178      	cbz	r0, 80015a6 <cmd_auto_complete+0x6e>
 8001586:	f013 fb99 	bl	8014cbc <isblank>
 800158a:	2800      	cmp	r0, #0
 800158c:	d0f8      	beq.n	8001580 <cmd_auto_complete+0x48>
			++s;

		if (*s == '\0')		/* end of s, no more args	*/
 800158e:	7823      	ldrb	r3, [r4, #0]
 8001590:	b14b      	cbz	r3, 80015a6 <cmd_auto_complete+0x6e>
static int make_argv(char *s, int argvsz, char *argv[])
{
	int argc = 0;

	/* split into argv */
	while (argc < argvsz - 1) {
 8001592:	2e10      	cmp	r6, #16
			++s;

		if (*s == '\0')		/* end of s, no more args	*/
			break;

		*s++ = '\0';		/* terminate current arg	 */
 8001594:	f884 8000 	strb.w	r8, [r4]
 8001598:	f104 0501 	add.w	r5, r4, #1
 800159c:	f04f 0300 	mov.w	r3, #0
static int make_argv(char *s, int argvsz, char *argv[])
{
	int argc = 0;

	/* split into argv */
	while (argc < argvsz - 1) {
 80015a0:	d1e1      	bne.n	8001566 <cmd_auto_complete+0x2e>
		if (*s == '\0')		/* end of s, no more args	*/
			break;

		*s++ = '\0';		/* terminate current arg	 */
	}
	argv[argc] = NULL;
 80015a2:	9311      	str	r3, [sp, #68]	; 0x44
 80015a4:	e7d0      	b.n	8001548 <cmd_auto_complete+0x10>
 80015a6:	ab26      	add	r3, sp, #152	; 0x98
 80015a8:	eb03 0386 	add.w	r3, r3, r6, lsl #2
 80015ac:	2200      	movs	r2, #0
	/* do the completion and return the possible completions */
	//i = complete_cmdv(argc, argv, last_char, sizeof(cmdv) / sizeof(cmdv[0]), cmdv);

	/* no match; bell and out */
	if (i == 0) {
		if (argc > 1)	/* allow tab for non command */
 80015ae:	2e01      	cmp	r6, #1
		if (*s == '\0')		/* end of s, no more args	*/
			break;

		*s++ = '\0';		/* terminate current arg	 */
	}
	argv[argc] = NULL;
 80015b0:	f843 2c94 	str.w	r2, [r3, #-148]
	/* do the completion and return the possible completions */
	//i = complete_cmdv(argc, argv, last_char, sizeof(cmdv) / sizeof(cmdv[0]), cmdv);

	/* no match; bell and out */
	if (i == 0) {
		if (argc > 1)	/* allow tab for non command */
 80015b4:	dcc8      	bgt.n	8001548 <cmd_auto_complete+0x10>
			return 0;
		putc('\a');
 80015b6:	2007      	movs	r0, #7
 80015b8:	f013 fc2c 	bl	8014e14 <putc>
		return 1;
 80015bc:	2001      	movs	r0, #1
 80015be:	e7c4      	b.n	800154a <cmd_auto_complete+0x12>
 80015c0:	080162a4 	.word	0x080162a4
 80015c4:	2000072c 	.word	0x2000072c

080015c8 <cmd_process>:
	return result;
}

enum command_ret_t cmd_process(int flag, int argc, char * const argv[],
			       int *repeatable, unsigned int *ticks)
{
 80015c8:	e92d 41f0 	stmdb	sp!, {r4, r5, r6, r7, r8, lr}
 80015cc:	4615      	mov	r5, r2
 80015ce:	4680      	mov	r8, r0
 80015d0:	460e      	mov	r6, r1
	return NULL;	/* not found or ambiguous command */
}

cmd_tbl_t *find_cmd(const char *cmd)
{
	return find_cmd_tbl(cmd, cmd_tbl, MAX_CMD_LINE);
 80015d2:	6810      	ldr	r0, [r2, #0]
 80015d4:	4912      	ldr	r1, [pc, #72]	; (8001620 <cmd_process+0x58>)
 80015d6:	2220      	movs	r2, #32
	return result;
}

enum command_ret_t cmd_process(int flag, int argc, char * const argv[],
			       int *repeatable, unsigned int *ticks)
{
 80015d8:	461f      	mov	r7, r3
	return NULL;	/* not found or ambiguous command */
}

cmd_tbl_t *find_cmd(const char *cmd)
{
	return find_cmd_tbl(cmd, cmd_tbl, MAX_CMD_LINE);
 80015da:	f7ff ff03 	bl	80013e4 <find_cmd_tbl>
	enum command_ret_t rc = CMD_RET_SUCCESS;
	cmd_tbl_t *cmdtp;

	/* Look up command in command table */
	cmdtp = find_cmd(argv[0]);
	if (cmdtp == NULL) {
 80015de:	b1b8      	cbz	r0, 8001610 <cmd_process+0x48>
		printf("Unknown command '%s' - try 'help'\n", argv[0]);
		return 1;
	}

	/* found - check max args */
	if (argc > cmdtp->maxargs)
 80015e0:	6843      	ldr	r3, [r0, #4]
 80015e2:	4604      	mov	r4, r0
 80015e4:	42b3      	cmp	r3, r6
 80015e6:	db0d      	blt.n	8001604 <cmd_process+0x3c>
 */
static int cmd_call(cmd_tbl_t *cmdtp, int flag, int argc, char * const argv[])
{
	int result;

	result = (cmdtp->cmd)(cmdtp, flag, argc, argv);
 80015e8:	462b      	mov	r3, r5
 80015ea:	4632      	mov	r2, r6
 80015ec:	4641      	mov	r1, r8
 80015ee:	68c5      	ldr	r5, [r0, #12]
 80015f0:	47a8      	blx	r5
		rc = CMD_RET_USAGE;

	/* If OK so far, then do the command */
	if (!rc) {
		rc = cmd_call(cmdtp, flag, argc, argv);
		*repeatable &= cmdtp->repeatable;
 80015f2:	683a      	ldr	r2, [r7, #0]
 80015f4:	68a3      	ldr	r3, [r4, #8]
	if (argc > cmdtp->maxargs)
		rc = CMD_RET_USAGE;

	/* If OK so far, then do the command */
	if (!rc) {
		rc = cmd_call(cmdtp, flag, argc, argv);
 80015f6:	b240      	sxtb	r0, r0
		*repeatable &= cmdtp->repeatable;
 80015f8:	4013      	ands	r3, r2
 80015fa:	603b      	str	r3, [r7, #0]
	}
	if (rc == CMD_RET_USAGE)
 80015fc:	1c43      	adds	r3, r0, #1
 80015fe:	d001      	beq.n	8001604 <cmd_process+0x3c>
		rc = cmd_usage(cmdtp);
	return rc;
}
 8001600:	e8bd 81f0 	ldmia.w	sp!, {r4, r5, r6, r7, r8, pc}
	if (!rc) {
		rc = cmd_call(cmdtp, flag, argc, argv);
		*repeatable &= cmdtp->repeatable;
	}
	if (rc == CMD_RET_USAGE)
		rc = cmd_usage(cmdtp);
 8001604:	4620      	mov	r0, r4
 8001606:	f7ff ff29 	bl	800145c <cmd_usage>
 800160a:	b240      	sxtb	r0, r0
 800160c:	e8bd 81f0 	ldmia.w	sp!, {r4, r5, r6, r7, r8, pc}
	cmd_tbl_t *cmdtp;

	/* Look up command in command table */
	cmdtp = find_cmd(argv[0]);
	if (cmdtp == NULL) {
		printf("Unknown command '%s' - try 'help'\n", argv[0]);
 8001610:	6829      	ldr	r1, [r5, #0]
 8001612:	4804      	ldr	r0, [pc, #16]	; (8001624 <cmd_process+0x5c>)
 8001614:	f013 fbb0 	bl	8014d78 <iprintf>
		return 1;
 8001618:	2001      	movs	r0, #1
 800161a:	e8bd 81f0 	ldmia.w	sp!, {r4, r5, r6, r7, r8, pc}
 800161e:	bf00      	nop
 8001620:	200003a8 	.word	0x200003a8
 8001624:	0801654c 	.word	0x0801654c

08001628 <cmd_process_error>:
	return rc;
}

int cmd_process_error(cmd_tbl_t *cmdtp, int err)
{
	if (err == CMD_RET_USAGE)
 8001628:	1c4a      	adds	r2, r1, #1
 800162a:	d000      	beq.n	800162e <cmd_process_error+0x6>
		return CMD_RET_USAGE;

	if (err) {
 800162c:	b909      	cbnz	r1, 8001632 <cmd_process_error+0xa>
		printf("Command '%s' failed: Error %d\n", cmdtp->name, err);
		return CMD_RET_FAILURE;
	}

	return CMD_RET_SUCCESS;
 800162e:	4608      	mov	r0, r1
 8001630:	4770      	bx	lr
		rc = cmd_usage(cmdtp);
	return rc;
}

int cmd_process_error(cmd_tbl_t *cmdtp, int err)
{
 8001632:	b508      	push	{r3, lr}
 8001634:	460a      	mov	r2, r1
	if (err == CMD_RET_USAGE)
		return CMD_RET_USAGE;

	if (err) {
		printf("Command '%s' failed: Error %d\n", cmdtp->name, err);
 8001636:	6801      	ldr	r1, [r0, #0]
 8001638:	4802      	ldr	r0, [pc, #8]	; (8001644 <cmd_process_error+0x1c>)
 800163a:	f013 fb9d 	bl	8014d78 <iprintf>
		return CMD_RET_FAILURE;
 800163e:	2001      	movs	r0, #1
 8001640:	bd08      	pop	{r3, pc}
 8001642:	bf00      	nop
 8001644:	08016570 	.word	0x08016570

08001648 <cgetc>:
#include <console.h>
#include "hw_beacon.h"

int cgetc(void)
{
	return SWIFT_USART6_GETC();
 8001648:	f000 bcd4 	b.w	8001ff4 <SWIFT_USART6_GETC>

0800164c <ctstc>:
}

int ctstc(void)
{
	return SWIFT_USART6_TSTC();
 800164c:	f000 bce0 	b.w	8002010 <SWIFT_USART6_TSTC>

08001650 <cputc>:
}

void cputc(char c)
{
 8001650:	b500      	push	{lr}
 8001652:	b083      	sub	sp, #12
 8001654:	ab02      	add	r3, sp, #8
 8001656:	f803 0d01 	strb.w	r0, [r3, #-1]!
	SWIFT_UART6_SendBuff(&c, 1);
 800165a:	4618      	mov	r0, r3
 800165c:	2101      	movs	r1, #1
 800165e:	f000 fca5 	bl	8001fac <SWIFT_UART6_SendBuff>
}
 8001662:	b003      	add	sp, #12
 8001664:	f85d fb04 	ldr.w	pc, [sp], #4

08001668 <cputs>:

void cputs(char *s)
{
 8001668:	b510      	push	{r4, lr}
 800166a:	4604      	mov	r4, r0
	/* Send directly to the handler */
	SWIFT_UART6_SendBuff(s, strlen(s));
 800166c:	f013 facc 	bl	8014c08 <strlen>
 8001670:	4601      	mov	r1, r0
 8001672:	4620      	mov	r0, r4
}
 8001674:	e8bd 4010 	ldmia.w	sp!, {r4, lr}
}

void cputs(char *s)
{
	/* Send directly to the handler */
	SWIFT_UART6_SendBuff(s, strlen(s));
 8001678:	f000 bc98 	b.w	8001fac <SWIFT_UART6_SendBuff>

0800167c <ctrlc>:

/* test if ctrl-c was pressed */
static int ctrlc_disabled = 0;	/* see disable_ctrl() */
static int ctrlc_was_pressed = 0;
int ctrlc(void)
{
 800167c:	b538      	push	{r3, r4, r5, lr}
	if (!ctrlc_disabled) {
 800167e:	4d09      	ldr	r5, [pc, #36]	; (80016a4 <ctrlc+0x28>)
 8001680:	682c      	ldr	r4, [r5, #0]
 8001682:	b114      	cbz	r4, 800168a <ctrlc+0xe>
				break;
			}
		}
	}

	return 0;
 8001684:	2400      	movs	r4, #0
}
 8001686:	4620      	mov	r0, r4
 8001688:	bd38      	pop	{r3, r4, r5, pc}
	return SWIFT_USART6_GETC();
}

int ctstc(void)
{
	return SWIFT_USART6_TSTC();
 800168a:	f000 fcc1 	bl	8002010 <SWIFT_USART6_TSTC>
static int ctrlc_disabled = 0;	/* see disable_ctrl() */
static int ctrlc_was_pressed = 0;
int ctrlc(void)
{
	if (!ctrlc_disabled) {
		if (ctstc()) {
 800168e:	2800      	cmp	r0, #0
 8001690:	d0f8      	beq.n	8001684 <ctrlc+0x8>
#include <console.h>
#include "hw_beacon.h"

int cgetc(void)
{
	return SWIFT_USART6_GETC();
 8001692:	f000 fcaf 	bl	8001ff4 <SWIFT_USART6_GETC>
static int ctrlc_was_pressed = 0;
int ctrlc(void)
{
	if (!ctrlc_disabled) {
		if (ctstc()) {
			switch (cgetc()) {
 8001696:	2803      	cmp	r0, #3
 8001698:	d1f5      	bne.n	8001686 <ctrlc+0xa>
			case 0x03:		/* ^C - Control C */
				ctrlc_was_pressed = 1;
 800169a:	2301      	movs	r3, #1
				return 1;
 800169c:	461c      	mov	r4, r3
{
	if (!ctrlc_disabled) {
		if (ctstc()) {
			switch (cgetc()) {
			case 0x03:		/* ^C - Control C */
				ctrlc_was_pressed = 1;
 800169e:	606b      	str	r3, [r5, #4]
				return 1;
 80016a0:	e7f1      	b.n	8001686 <ctrlc+0xa>
 80016a2:	bf00      	nop
 80016a4:	20000770 	.word	0x20000770

080016a8 <confirm_yesno>:

/* Reads user's confirmation.
   Returns 1 if user's input is "y", "Y", "yes" or "YES"
*/
int confirm_yesno(void)
{
 80016a8:	b570      	push	{r4, r5, r6, lr}
 80016aa:	b084      	sub	sp, #16
	int i;
	char str_input[5];

	/* Flush input */
	while (ctstc())
 80016ac:	e001      	b.n	80016b2 <confirm_yesno+0xa>
#include <console.h>
#include "hw_beacon.h"

int cgetc(void)
{
	return SWIFT_USART6_GETC();
 80016ae:	f000 fca1 	bl	8001ff4 <SWIFT_USART6_GETC>
}

int ctstc(void)
{
	return SWIFT_USART6_TSTC();
 80016b2:	f000 fcad 	bl	8002010 <SWIFT_USART6_TSTC>
{
	int i;
	char str_input[5];

	/* Flush input */
	while (ctstc())
 80016b6:	2800      	cmp	r0, #0
 80016b8:	d1f9      	bne.n	80016ae <confirm_yesno+0x6>
 80016ba:	ac02      	add	r4, sp, #8
 80016bc:	f10d 060d 	add.w	r6, sp, #13
#include <console.h>
#include "hw_beacon.h"

int cgetc(void)
{
	return SWIFT_USART6_GETC();
 80016c0:	f000 fc98 	bl	8001ff4 <SWIFT_USART6_GETC>
 80016c4:	4625      	mov	r5, r4
	/* Flush input */
	while (ctstc())
		cgetc();
	i = 0;
	while (i < sizeof(str_input)) {
		str_input[i] = cgetc();
 80016c6:	b2c3      	uxtb	r3, r0
	return SWIFT_USART6_TSTC();
}

void cputc(char c)
{
	SWIFT_UART6_SendBuff(&c, 1);
 80016c8:	2101      	movs	r1, #1
 80016ca:	f10d 0006 	add.w	r0, sp, #6
 80016ce:	f88d 3006 	strb.w	r3, [sp, #6]
	/* Flush input */
	while (ctstc())
		cgetc();
	i = 0;
	while (i < sizeof(str_input)) {
		str_input[i] = cgetc();
 80016d2:	f804 3b01 	strb.w	r3, [r4], #1
	return SWIFT_USART6_TSTC();
}

void cputc(char c)
{
	SWIFT_UART6_SendBuff(&c, 1);
 80016d6:	f000 fc69 	bl	8001fac <SWIFT_UART6_SendBuff>
		cgetc();
	i = 0;
	while (i < sizeof(str_input)) {
		str_input[i] = cgetc();
		cputc(str_input[i]);
		if (str_input[i] == '\r')
 80016da:	782b      	ldrb	r3, [r5, #0]
 80016dc:	2b0d      	cmp	r3, #13
 80016de:	d001      	beq.n	80016e4 <confirm_yesno+0x3c>

	/* Flush input */
	while (ctstc())
		cgetc();
	i = 0;
	while (i < sizeof(str_input)) {
 80016e0:	42b4      	cmp	r4, r6
 80016e2:	d1ed      	bne.n	80016c0 <confirm_yesno+0x18>
 80016e4:	a804      	add	r0, sp, #16
 80016e6:	230a      	movs	r3, #10
 80016e8:	f800 3d09 	strb.w	r3, [r0, #-9]!
	return SWIFT_USART6_TSTC();
}

void cputc(char c)
{
	SWIFT_UART6_SendBuff(&c, 1);
 80016ec:	2101      	movs	r1, #1
 80016ee:	f000 fc5d 	bl	8001fac <SWIFT_UART6_SendBuff>
		if (str_input[i] == '\r')
			break;
		i++;
	}
	cputc('\n');
	if (strncmp(str_input, "y\r", 2) == 0 ||
 80016f2:	2202      	movs	r2, #2
 80016f4:	490f      	ldr	r1, [pc, #60]	; (8001734 <confirm_yesno+0x8c>)
 80016f6:	a802      	add	r0, sp, #8
 80016f8:	f013 fc13 	bl	8014f22 <strncmp>
 80016fc:	b910      	cbnz	r0, 8001704 <confirm_yesno+0x5c>
	    strncmp(str_input, "Y\r", 2) == 0 ||
	    strncmp(str_input, "yes\r", 4) == 0 ||
	    strncmp(str_input, "YES\r", 4) == 0)
		return 1;
 80016fe:	2001      	movs	r0, #1
	return 0;
}
 8001700:	b004      	add	sp, #16
 8001702:	bd70      	pop	{r4, r5, r6, pc}
			break;
		i++;
	}
	cputc('\n');
	if (strncmp(str_input, "y\r", 2) == 0 ||
	    strncmp(str_input, "Y\r", 2) == 0 ||
 8001704:	2202      	movs	r2, #2
 8001706:	490c      	ldr	r1, [pc, #48]	; (8001738 <confirm_yesno+0x90>)
 8001708:	a802      	add	r0, sp, #8
 800170a:	f013 fc0a 	bl	8014f22 <strncmp>
		if (str_input[i] == '\r')
			break;
		i++;
	}
	cputc('\n');
	if (strncmp(str_input, "y\r", 2) == 0 ||
 800170e:	2800      	cmp	r0, #0
 8001710:	d0f5      	beq.n	80016fe <confirm_yesno+0x56>
	    strncmp(str_input, "Y\r", 2) == 0 ||
	    strncmp(str_input, "yes\r", 4) == 0 ||
 8001712:	2204      	movs	r2, #4
 8001714:	4909      	ldr	r1, [pc, #36]	; (800173c <confirm_yesno+0x94>)
 8001716:	a802      	add	r0, sp, #8
 8001718:	f013 fc03 	bl	8014f22 <strncmp>
			break;
		i++;
	}
	cputc('\n');
	if (strncmp(str_input, "y\r", 2) == 0 ||
	    strncmp(str_input, "Y\r", 2) == 0 ||
 800171c:	2800      	cmp	r0, #0
 800171e:	d0ee      	beq.n	80016fe <confirm_yesno+0x56>
	    strncmp(str_input, "yes\r", 4) == 0 ||
	    strncmp(str_input, "YES\r", 4) == 0)
 8001720:	a802      	add	r0, sp, #8
 8001722:	2204      	movs	r2, #4
 8001724:	4906      	ldr	r1, [pc, #24]	; (8001740 <confirm_yesno+0x98>)
 8001726:	f013 fbfc 	bl	8014f22 <strncmp>
		return 1;
 800172a:	fab0 f080 	clz	r0, r0
 800172e:	0940      	lsrs	r0, r0, #5
 8001730:	e7e6      	b.n	8001700 <confirm_yesno+0x58>
 8001732:	bf00      	nop
 8001734:	08016590 	.word	0x08016590
 8001738:	08016594 	.word	0x08016594
 800173c:	08016598 	.word	0x08016598
 8001740:	080165a0 	.word	0x080165a0

08001744 <disable_ctrlc>:
/* pass 1 to disable ctrlc() checking, 0 to enable.
 * returns previous state
 */
int disable_ctrlc(int disable)
{
	int prev = ctrlc_disabled;	/* save previous state */
 8001744:	4b02      	ldr	r3, [pc, #8]	; (8001750 <disable_ctrlc+0xc>)
 8001746:	681a      	ldr	r2, [r3, #0]

	ctrlc_disabled = disable;
 8001748:	6018      	str	r0, [r3, #0]
	return prev;
}
 800174a:	4610      	mov	r0, r2
 800174c:	4770      	bx	lr
 800174e:	bf00      	nop
 8001750:	20000770 	.word	0x20000770

08001754 <had_ctrlc>:

int had_ctrlc (void)
{
	return ctrlc_was_pressed;
 8001754:	4b01      	ldr	r3, [pc, #4]	; (800175c <had_ctrlc+0x8>)
}
 8001756:	6858      	ldr	r0, [r3, #4]
 8001758:	4770      	bx	lr
 800175a:	bf00      	nop
 800175c:	20000770 	.word	0x20000770

08001760 <clear_ctrlc>:

void clear_ctrlc(void)
{
	ctrlc_was_pressed = 0;
 8001760:	4b01      	ldr	r3, [pc, #4]	; (8001768 <clear_ctrlc+0x8>)
 8001762:	2200      	movs	r2, #0
 8001764:	605a      	str	r2, [r3, #4]
 8001766:	4770      	bx	lr
 8001768:	20000770 	.word	0x20000770

0800176c <CPU_IntDis>:
 800176c:	b672      	cpsid	i
 800176e:	4770      	bx	lr

08001770 <CPU_IntEn>:
 8001770:	b662      	cpsie	i
 8001772:	4770      	bx	lr

08001774 <CPU_SR_Save>:
 8001774:	f3ef 8010 	mrs	r0, PRIMASK
 8001778:	b672      	cpsid	i
 800177a:	4770      	bx	lr

0800177c <CPU_SR_Restore>:
 800177c:	f380 8810 	msr	PRIMASK, r0
 8001780:	4770      	bx	lr

08001782 <CPU_WaitForInt>:
 8001782:	bf30      	wfi
 8001784:	4770      	bx	lr

08001786 <CPU_WaitForExcept>:
 8001786:	bf20      	wfe
 8001788:	4770      	bx	lr

0800178a <CPU_CntLeadZeros>:
 800178a:	fab0 f080 	clz	r0, r0
 800178e:	4770      	bx	lr

08001790 <CPU_CntTrailZeros>:
 8001790:	fa90 f0a0 	rbit	r0, r0
 8001794:	fab0 f080 	clz	r0, r0
 8001798:	4770      	bx	lr

0800179a <CPU_RevBits>:
 800179a:	fa90 f0a0 	rbit	r0, r0
 800179e:	4770      	bx	lr

080017a0 <CPU_BitBandClr>:
{
    CPU_ADDR  bit_word_off;
    CPU_ADDR  bit_word_addr;


    if ((addr >= CPU_BIT_BAND_SRAM_REG_LO) &&
 80017a0:	4b0b      	ldr	r3, [pc, #44]	; (80017d0 <CPU_BitBandClr+0x30>)
 80017a2:	f100 4260 	add.w	r2, r0, #3758096384	; 0xe0000000
 80017a6:	429a      	cmp	r2, r3
 80017a8:	d90a      	bls.n	80017c0 <CPU_BitBandClr+0x20>
        bit_word_off  = ((addr - CPU_BIT_BAND_SRAM_REG_LO  ) * 32) + (bit_nbr * 4);
        bit_word_addr = CPU_BIT_BAND_SRAM_BASE   + bit_word_off;

      *(volatile CPU_INT32U *)(bit_word_addr) = 0;

    } else if ((addr >= CPU_BIT_BAND_PERIPH_REG_LO) &&
 80017aa:	f100 4240 	add.w	r2, r0, #3221225472	; 0xc0000000
 80017ae:	429a      	cmp	r2, r3
 80017b0:	d805      	bhi.n	80017be <CPU_BitBandClr+0x1e>
               (addr <= CPU_BIT_BAND_PERIPH_REG_HI)) {
        bit_word_off  = ((addr - CPU_BIT_BAND_PERIPH_REG_LO) * 32) + (bit_nbr * 4);
        bit_word_addr = CPU_BIT_BAND_PERIPH_BASE + bit_word_off;

      *(volatile CPU_INT32U *)(bit_word_addr) = 0;
 80017b2:	0140      	lsls	r0, r0, #5
 80017b4:	f100 4084 	add.w	r0, r0, #1107296256	; 0x42000000
 80017b8:	2300      	movs	r3, #0
 80017ba:	f840 3021 	str.w	r3, [r0, r1, lsl #2]
 80017be:	4770      	bx	lr
    if ((addr >= CPU_BIT_BAND_SRAM_REG_LO) &&
        (addr <= CPU_BIT_BAND_SRAM_REG_HI)) {
        bit_word_off  = ((addr - CPU_BIT_BAND_SRAM_REG_LO  ) * 32) + (bit_nbr * 4);
        bit_word_addr = CPU_BIT_BAND_SRAM_BASE   + bit_word_off;

      *(volatile CPU_INT32U *)(bit_word_addr) = 0;
 80017c0:	0140      	lsls	r0, r0, #5
 80017c2:	f100 5008 	add.w	r0, r0, #570425344	; 0x22000000
 80017c6:	2300      	movs	r3, #0
 80017c8:	f840 3021 	str.w	r3, [r0, r1, lsl #2]
 80017cc:	4770      	bx	lr
 80017ce:	bf00      	nop
 80017d0:	000fffff 	.word	0x000fffff

080017d4 <CPU_BitBandSet>:
{
    CPU_ADDR  bit_word_off;
    CPU_ADDR  bit_word_addr;


    if ((addr >= CPU_BIT_BAND_SRAM_REG_LO) &&
 80017d4:	4b0b      	ldr	r3, [pc, #44]	; (8001804 <CPU_BitBandSet+0x30>)
 80017d6:	f100 4260 	add.w	r2, r0, #3758096384	; 0xe0000000
 80017da:	429a      	cmp	r2, r3
 80017dc:	d90a      	bls.n	80017f4 <CPU_BitBandSet+0x20>
        bit_word_off  = ((addr - CPU_BIT_BAND_SRAM_REG_LO  ) * 32) + (bit_nbr * 4);
        bit_word_addr = CPU_BIT_BAND_SRAM_BASE   + bit_word_off;

      *(volatile CPU_INT32U *)(bit_word_addr) = 1;

    } else if ((addr >= CPU_BIT_BAND_PERIPH_REG_LO) &&
 80017de:	f100 4240 	add.w	r2, r0, #3221225472	; 0xc0000000
 80017e2:	429a      	cmp	r2, r3
 80017e4:	d805      	bhi.n	80017f2 <CPU_BitBandSet+0x1e>
               (addr <= CPU_BIT_BAND_PERIPH_REG_HI)) {
        bit_word_off  = ((addr - CPU_BIT_BAND_PERIPH_REG_LO) * 32) + (bit_nbr * 4);
        bit_word_addr = CPU_BIT_BAND_PERIPH_BASE + bit_word_off;

      *(volatile CPU_INT32U *)(bit_word_addr) = 1;
 80017e6:	0140      	lsls	r0, r0, #5
 80017e8:	f100 4084 	add.w	r0, r0, #1107296256	; 0x42000000
 80017ec:	2301      	movs	r3, #1
 80017ee:	f840 3021 	str.w	r3, [r0, r1, lsl #2]
 80017f2:	4770      	bx	lr
    if ((addr >= CPU_BIT_BAND_SRAM_REG_LO) &&
        (addr <= CPU_BIT_BAND_SRAM_REG_HI)) {
        bit_word_off  = ((addr - CPU_BIT_BAND_SRAM_REG_LO  ) * 32) + (bit_nbr * 4);
        bit_word_addr = CPU_BIT_BAND_SRAM_BASE   + bit_word_off;

      *(volatile CPU_INT32U *)(bit_word_addr) = 1;
 80017f4:	0140      	lsls	r0, r0, #5
 80017f6:	f100 5008 	add.w	r0, r0, #570425344	; 0x22000000
 80017fa:	2301      	movs	r3, #1
 80017fc:	f840 3021 	str.w	r3, [r0, r1, lsl #2]
 8001800:	4770      	bx	lr
 8001802:	bf00      	nop
 8001804:	000fffff 	.word	0x000fffff

08001808 <CPU_IntSrcDis>:
*                   COULD be valid.
*********************************************************************************************************
*/
/*$PAGE*/
void  CPU_IntSrcDis (CPU_INT08U  pos)
{
 8001808:	b538      	push	{r3, r4, r5, lr}
    CPU_INT08U  pos_max;
    CPU_INT08U  nbr;
    CPU_SR_ALLOC();


    switch (pos) {
 800180a:	280f      	cmp	r0, #15
 800180c:	d836      	bhi.n	800187c <CPU_IntSrcDis+0x74>
 800180e:	e8df f000 	tbb	[pc, r0]
 8001812:	0808      	.short	0x0808
 8001814:	2a1f0808 	.word	0x2a1f0808
 8001818:	08080809 	.word	0x08080809
 800181c:	08080808 	.word	0x08080808
 8001820:	1408      	.short	0x1408
 8001822:	bd38      	pop	{r3, r4, r5, pc}
             CPU_REG_NVIC_SHCSR &= ~CPU_REG_NVIC_SHCSR_BUSFAULTENA;
             CPU_CRITICAL_EXIT();
             break;

        case CPU_INT_USAGEFAULT:                                /* Usage fault.                                         */
             CPU_CRITICAL_ENTER();
 8001824:	f7ff ffa6 	bl	8001774 <CPU_SR_Save>
             CPU_REG_NVIC_SHCSR &= ~CPU_REG_NVIC_SHCSR_USGFAULTENA;
 8001828:	4a2a      	ldr	r2, [pc, #168]	; (80018d4 <CPU_IntSrcDis+0xcc>)
 800182a:	6813      	ldr	r3, [r2, #0]
 800182c:	f423 2380 	bic.w	r3, r3, #262144	; 0x40000
 8001830:	6013      	str	r3, [r2, #0]
                 CPU_REG_NVIC_CLREN(group) = DEF_BIT(nbr);
                 CPU_CRITICAL_EXIT();
             }
             break;
    }
}
 8001832:	e8bd 4038 	ldmia.w	sp!, {r3, r4, r5, lr}
             break;

        case CPU_INT_USAGEFAULT:                                /* Usage fault.                                         */
             CPU_CRITICAL_ENTER();
             CPU_REG_NVIC_SHCSR &= ~CPU_REG_NVIC_SHCSR_USGFAULTENA;
             CPU_CRITICAL_EXIT();
 8001836:	f7ff bfa1 	b.w	800177c <CPU_SR_Restore>
             break;

        case CPU_INT_SYSTICK:                                   /* SysTick.                                             */
             CPU_CRITICAL_ENTER();
 800183a:	f7ff ff9b 	bl	8001774 <CPU_SR_Save>
             CPU_REG_NVIC_ST_CTRL &= ~CPU_REG_NVIC_ST_CTRL_ENABLE;
 800183e:	4a26      	ldr	r2, [pc, #152]	; (80018d8 <CPU_IntSrcDis+0xd0>)
 8001840:	6813      	ldr	r3, [r2, #0]
 8001842:	f023 0301 	bic.w	r3, r3, #1
 8001846:	6013      	str	r3, [r2, #0]
                 CPU_REG_NVIC_CLREN(group) = DEF_BIT(nbr);
                 CPU_CRITICAL_EXIT();
             }
             break;
    }
}
 8001848:	e8bd 4038 	ldmia.w	sp!, {r3, r4, r5, lr}
             break;

        case CPU_INT_SYSTICK:                                   /* SysTick.                                             */
             CPU_CRITICAL_ENTER();
             CPU_REG_NVIC_ST_CTRL &= ~CPU_REG_NVIC_ST_CTRL_ENABLE;
             CPU_CRITICAL_EXIT();
 800184c:	f7ff bf96 	b.w	800177c <CPU_SR_Restore>
        case CPU_INT_DBGMON:                                    /* Debug monitor (see Note #2).                         */
        case CPU_INT_PENDSV:                                    /* PendSV (see Note #2).                                */
             break;

        case CPU_INT_MEM:                                       /* Memory management.                                   */
             CPU_CRITICAL_ENTER();
 8001850:	f7ff ff90 	bl	8001774 <CPU_SR_Save>
             CPU_REG_NVIC_SHCSR &= ~CPU_REG_NVIC_SHCSR_MEMFAULTENA;
 8001854:	4a1f      	ldr	r2, [pc, #124]	; (80018d4 <CPU_IntSrcDis+0xcc>)
 8001856:	6813      	ldr	r3, [r2, #0]
 8001858:	f423 3380 	bic.w	r3, r3, #65536	; 0x10000
 800185c:	6013      	str	r3, [r2, #0]
                 CPU_REG_NVIC_CLREN(group) = DEF_BIT(nbr);
                 CPU_CRITICAL_EXIT();
             }
             break;
    }
}
 800185e:	e8bd 4038 	ldmia.w	sp!, {r3, r4, r5, lr}
             break;

        case CPU_INT_MEM:                                       /* Memory management.                                   */
             CPU_CRITICAL_ENTER();
             CPU_REG_NVIC_SHCSR &= ~CPU_REG_NVIC_SHCSR_MEMFAULTENA;
             CPU_CRITICAL_EXIT();
 8001862:	f7ff bf8b 	b.w	800177c <CPU_SR_Restore>
             break;

        case CPU_INT_BUSFAULT:                                  /* Bus fault.                                           */
             CPU_CRITICAL_ENTER();
 8001866:	f7ff ff85 	bl	8001774 <CPU_SR_Save>
             CPU_REG_NVIC_SHCSR &= ~CPU_REG_NVIC_SHCSR_BUSFAULTENA;
 800186a:	4a1a      	ldr	r2, [pc, #104]	; (80018d4 <CPU_IntSrcDis+0xcc>)
 800186c:	6813      	ldr	r3, [r2, #0]
 800186e:	f423 3300 	bic.w	r3, r3, #131072	; 0x20000
 8001872:	6013      	str	r3, [r2, #0]
                 CPU_REG_NVIC_CLREN(group) = DEF_BIT(nbr);
                 CPU_CRITICAL_EXIT();
             }
             break;
    }
}
 8001874:	e8bd 4038 	ldmia.w	sp!, {r3, r4, r5, lr}
             break;

        case CPU_INT_BUSFAULT:                                  /* Bus fault.                                           */
             CPU_CRITICAL_ENTER();
             CPU_REG_NVIC_SHCSR &= ~CPU_REG_NVIC_SHCSR_BUSFAULTENA;
             CPU_CRITICAL_EXIT();
 8001878:	f7ff bf80 	b.w	800177c <CPU_SR_Restore>
             break;


                                                                /* ---------------- EXTERNAL INTERRUPT ---------------- */
        default:
            pos_max = CPU_INT_SRC_POS_MAX;
 800187c:	4b17      	ldr	r3, [pc, #92]	; (80018dc <CPU_IntSrcDis+0xd4>)
 800187e:	4604      	mov	r4, r0
 8001880:	681b      	ldr	r3, [r3, #0]
            if (pos < pos_max) {                                /* See Note #3.                                         */
 8001882:	3301      	adds	r3, #1
 8001884:	f003 031f 	and.w	r3, r3, #31
 8001888:	015b      	lsls	r3, r3, #5
 800188a:	3310      	adds	r3, #16
 800188c:	b2db      	uxtb	r3, r3
 800188e:	4298      	cmp	r0, r3
 8001890:	d2c7      	bcs.n	8001822 <CPU_IntSrcDis+0x1a>
                 group = (pos - 16) / 32;
 8001892:	f1a0 0510 	sub.w	r5, r0, #16
                 nbr   = (pos - 16) % 32;

                 CPU_CRITICAL_ENTER();
 8001896:	f7ff ff6d 	bl	8001774 <CPU_SR_Save>
                 CPU_REG_NVIC_CLREN(group) = DEF_BIT(nbr);
 800189a:	462b      	mov	r3, r5
 800189c:	2d00      	cmp	r5, #0
 800189e:	bfb8      	it	lt
 80018a0:	f104 030f 	addlt.w	r3, r4, #15
 80018a4:	4a0e      	ldr	r2, [pc, #56]	; (80018e0 <CPU_IntSrcDis+0xd8>)
 80018a6:	115b      	asrs	r3, r3, #5
 80018a8:	f103 2338 	add.w	r3, r3, #939538432	; 0x38003800
 80018ac:	402a      	ands	r2, r5
 80018ae:	3360      	adds	r3, #96	; 0x60
 80018b0:	2a00      	cmp	r2, #0
 80018b2:	ea4f 0383 	mov.w	r3, r3, lsl #2
 80018b6:	db08      	blt.n	80018ca <CPU_IntSrcDis+0xc2>
 80018b8:	b2d2      	uxtb	r2, r2
 80018ba:	2101      	movs	r1, #1
 80018bc:	fa01 f202 	lsl.w	r2, r1, r2
 80018c0:	601a      	str	r2, [r3, #0]
                 CPU_CRITICAL_EXIT();
             }
             break;
    }
}
 80018c2:	e8bd 4038 	ldmia.w	sp!, {r3, r4, r5, lr}
                 group = (pos - 16) / 32;
                 nbr   = (pos - 16) % 32;

                 CPU_CRITICAL_ENTER();
                 CPU_REG_NVIC_CLREN(group) = DEF_BIT(nbr);
                 CPU_CRITICAL_EXIT();
 80018c6:	f7ff bf59 	b.w	800177c <CPU_SR_Restore>
            if (pos < pos_max) {                                /* See Note #3.                                         */
                 group = (pos - 16) / 32;
                 nbr   = (pos - 16) % 32;

                 CPU_CRITICAL_ENTER();
                 CPU_REG_NVIC_CLREN(group) = DEF_BIT(nbr);
 80018ca:	3a01      	subs	r2, #1
 80018cc:	f062 021f 	orn	r2, r2, #31
 80018d0:	3201      	adds	r2, #1
 80018d2:	e7f1      	b.n	80018b8 <CPU_IntSrcDis+0xb0>
 80018d4:	e000ed24 	.word	0xe000ed24
 80018d8:	e000e010 	.word	0xe000e010
 80018dc:	e000e004 	.word	0xe000e004
 80018e0:	8000001f 	.word	0x8000001f

080018e4 <CPU_IntSrcEn>:
*               (3) See 'CPU_IntSrcDis()  Note #3'.
*********************************************************************************************************
*/

void  CPU_IntSrcEn (CPU_INT08U  pos)
{
 80018e4:	b538      	push	{r3, r4, r5, lr}
    CPU_INT08U  nbr;
    CPU_INT08U  pos_max;
    CPU_SR_ALLOC();


    switch (pos) {
 80018e6:	280f      	cmp	r0, #15
 80018e8:	d836      	bhi.n	8001958 <CPU_IntSrcEn+0x74>
 80018ea:	e8df f000 	tbb	[pc, r0]
 80018ee:	0808      	.short	0x0808
 80018f0:	2a1f0808 	.word	0x2a1f0808
 80018f4:	08080809 	.word	0x08080809
 80018f8:	08080808 	.word	0x08080808
 80018fc:	1408      	.short	0x1408
 80018fe:	bd38      	pop	{r3, r4, r5, pc}
             CPU_REG_NVIC_SHCSR |= CPU_REG_NVIC_SHCSR_BUSFAULTENA;
             CPU_CRITICAL_EXIT();
             break;

        case CPU_INT_USAGEFAULT:                                /* Usage fault.                                         */
             CPU_CRITICAL_ENTER();
 8001900:	f7ff ff38 	bl	8001774 <CPU_SR_Save>
             CPU_REG_NVIC_SHCSR |= CPU_REG_NVIC_SHCSR_USGFAULTENA;
 8001904:	4a2a      	ldr	r2, [pc, #168]	; (80019b0 <CPU_IntSrcEn+0xcc>)
 8001906:	6813      	ldr	r3, [r2, #0]
 8001908:	f443 2380 	orr.w	r3, r3, #262144	; 0x40000
 800190c:	6013      	str	r3, [r2, #0]
                 CPU_REG_NVIC_SETEN(group) = DEF_BIT(nbr);
                 CPU_CRITICAL_EXIT();
             }
             break;
    }
}
 800190e:	e8bd 4038 	ldmia.w	sp!, {r3, r4, r5, lr}
             break;

        case CPU_INT_USAGEFAULT:                                /* Usage fault.                                         */
             CPU_CRITICAL_ENTER();
             CPU_REG_NVIC_SHCSR |= CPU_REG_NVIC_SHCSR_USGFAULTENA;
             CPU_CRITICAL_EXIT();
 8001912:	f7ff bf33 	b.w	800177c <CPU_SR_Restore>
             break;

        case CPU_INT_SYSTICK:                                   /* SysTick.                                             */
             CPU_CRITICAL_ENTER();
 8001916:	f7ff ff2d 	bl	8001774 <CPU_SR_Save>
             CPU_REG_NVIC_ST_CTRL |= CPU_REG_NVIC_ST_CTRL_ENABLE;
 800191a:	4a26      	ldr	r2, [pc, #152]	; (80019b4 <CPU_IntSrcEn+0xd0>)
 800191c:	6813      	ldr	r3, [r2, #0]
 800191e:	f043 0301 	orr.w	r3, r3, #1
 8001922:	6013      	str	r3, [r2, #0]
                 CPU_REG_NVIC_SETEN(group) = DEF_BIT(nbr);
                 CPU_CRITICAL_EXIT();
             }
             break;
    }
}
 8001924:	e8bd 4038 	ldmia.w	sp!, {r3, r4, r5, lr}
             break;

        case CPU_INT_SYSTICK:                                   /* SysTick.                                             */
             CPU_CRITICAL_ENTER();
             CPU_REG_NVIC_ST_CTRL |= CPU_REG_NVIC_ST_CTRL_ENABLE;
             CPU_CRITICAL_EXIT();
 8001928:	f7ff bf28 	b.w	800177c <CPU_SR_Restore>
        case CPU_INT_DBGMON:                                    /* Debug monitor (see Note #2).                         */
        case CPU_INT_PENDSV:                                    /* PendSV (see Note #2).                                */
             break;

        case CPU_INT_MEM:                                       /* Memory management.                                   */
             CPU_CRITICAL_ENTER();
 800192c:	f7ff ff22 	bl	8001774 <CPU_SR_Save>
             CPU_REG_NVIC_SHCSR |= CPU_REG_NVIC_SHCSR_MEMFAULTENA;
 8001930:	4a1f      	ldr	r2, [pc, #124]	; (80019b0 <CPU_IntSrcEn+0xcc>)
 8001932:	6813      	ldr	r3, [r2, #0]
 8001934:	f443 3380 	orr.w	r3, r3, #65536	; 0x10000
 8001938:	6013      	str	r3, [r2, #0]
                 CPU_REG_NVIC_SETEN(group) = DEF_BIT(nbr);
                 CPU_CRITICAL_EXIT();
             }
             break;
    }
}
 800193a:	e8bd 4038 	ldmia.w	sp!, {r3, r4, r5, lr}
             break;

        case CPU_INT_MEM:                                       /* Memory management.                                   */
             CPU_CRITICAL_ENTER();
             CPU_REG_NVIC_SHCSR |= CPU_REG_NVIC_SHCSR_MEMFAULTENA;
             CPU_CRITICAL_EXIT();
 800193e:	f7ff bf1d 	b.w	800177c <CPU_SR_Restore>
             break;

        case CPU_INT_BUSFAULT:                                  /* Bus fault.                                           */
             CPU_CRITICAL_ENTER();
 8001942:	f7ff ff17 	bl	8001774 <CPU_SR_Save>
             CPU_REG_NVIC_SHCSR |= CPU_REG_NVIC_SHCSR_BUSFAULTENA;
 8001946:	4a1a      	ldr	r2, [pc, #104]	; (80019b0 <CPU_IntSrcEn+0xcc>)
 8001948:	6813      	ldr	r3, [r2, #0]
 800194a:	f443 3300 	orr.w	r3, r3, #131072	; 0x20000
 800194e:	6013      	str	r3, [r2, #0]
                 CPU_REG_NVIC_SETEN(group) = DEF_BIT(nbr);
                 CPU_CRITICAL_EXIT();
             }
             break;
    }
}
 8001950:	e8bd 4038 	ldmia.w	sp!, {r3, r4, r5, lr}
             break;

        case CPU_INT_BUSFAULT:                                  /* Bus fault.                                           */
             CPU_CRITICAL_ENTER();
             CPU_REG_NVIC_SHCSR |= CPU_REG_NVIC_SHCSR_BUSFAULTENA;
             CPU_CRITICAL_EXIT();
 8001954:	f7ff bf12 	b.w	800177c <CPU_SR_Restore>
             break;


                                                                /* ---------------- EXTERNAL INTERRUPT ---------------- */
        default:
            pos_max = CPU_INT_SRC_POS_MAX;
 8001958:	4b17      	ldr	r3, [pc, #92]	; (80019b8 <CPU_IntSrcEn+0xd4>)
 800195a:	4604      	mov	r4, r0
 800195c:	681b      	ldr	r3, [r3, #0]
            if (pos < pos_max) {                                /* See Note #3.                                         */
 800195e:	3301      	adds	r3, #1
 8001960:	f003 031f 	and.w	r3, r3, #31
 8001964:	015b      	lsls	r3, r3, #5
 8001966:	3310      	adds	r3, #16
 8001968:	b2db      	uxtb	r3, r3
 800196a:	4298      	cmp	r0, r3
 800196c:	d2c7      	bcs.n	80018fe <CPU_IntSrcEn+0x1a>
                 group = (pos - 16) / 32;
 800196e:	f1a0 0510 	sub.w	r5, r0, #16
                 nbr   = (pos - 16) % 32;

                 CPU_CRITICAL_ENTER();
 8001972:	f7ff feff 	bl	8001774 <CPU_SR_Save>
                 CPU_REG_NVIC_SETEN(group) = DEF_BIT(nbr);
 8001976:	462b      	mov	r3, r5
 8001978:	2d00      	cmp	r5, #0
 800197a:	bfb8      	it	lt
 800197c:	f104 030f 	addlt.w	r3, r4, #15
 8001980:	4a0e      	ldr	r2, [pc, #56]	; (80019bc <CPU_IntSrcEn+0xd8>)
 8001982:	115b      	asrs	r3, r3, #5
 8001984:	f103 2338 	add.w	r3, r3, #939538432	; 0x38003800
 8001988:	402a      	ands	r2, r5
 800198a:	3340      	adds	r3, #64	; 0x40
 800198c:	2a00      	cmp	r2, #0
 800198e:	ea4f 0383 	mov.w	r3, r3, lsl #2
 8001992:	db08      	blt.n	80019a6 <CPU_IntSrcEn+0xc2>
 8001994:	b2d2      	uxtb	r2, r2
 8001996:	2101      	movs	r1, #1
 8001998:	fa01 f202 	lsl.w	r2, r1, r2
 800199c:	601a      	str	r2, [r3, #0]
                 CPU_CRITICAL_EXIT();
             }
             break;
    }
}
 800199e:	e8bd 4038 	ldmia.w	sp!, {r3, r4, r5, lr}
                 group = (pos - 16) / 32;
                 nbr   = (pos - 16) % 32;

                 CPU_CRITICAL_ENTER();
                 CPU_REG_NVIC_SETEN(group) = DEF_BIT(nbr);
                 CPU_CRITICAL_EXIT();
 80019a2:	f7ff beeb 	b.w	800177c <CPU_SR_Restore>
            if (pos < pos_max) {                                /* See Note #3.                                         */
                 group = (pos - 16) / 32;
                 nbr   = (pos - 16) % 32;

                 CPU_CRITICAL_ENTER();
                 CPU_REG_NVIC_SETEN(group) = DEF_BIT(nbr);
 80019a6:	3a01      	subs	r2, #1
 80019a8:	f062 021f 	orn	r2, r2, #31
 80019ac:	3201      	adds	r2, #1
 80019ae:	e7f1      	b.n	8001994 <CPU_IntSrcEn+0xb0>
 80019b0:	e000ed24 	.word	0xe000ed24
 80019b4:	e000e010 	.word	0xe000e010
 80019b8:	e000e004 	.word	0xe000e004
 80019bc:	8000001f 	.word	0x8000001f

080019c0 <CPU_IntSrcPendClr>:
    CPU_INT08U  nbr;
    CPU_INT08U  pos_max;
    CPU_SR_ALLOC();


    switch (pos) {
 80019c0:	280f      	cmp	r0, #15
 80019c2:	d928      	bls.n	8001a16 <CPU_IntSrcPendClr+0x56>
*********************************************************************************************************
*/

void  CPU_IntSrcPendClr (CPU_INT08U  pos)

{
 80019c4:	b538      	push	{r3, r4, r5, lr}
        case CPU_INT_USAGEFAULT:                                /* Usage fault.                                         */
        case CPU_INT_SYSTICK:                                   /* SysTick.                                             */
             break;
                                                                /* ---------------- EXTERNAL INTERRUPT ---------------- */
        default:
            pos_max = CPU_INT_SRC_POS_MAX;
 80019c6:	4b17      	ldr	r3, [pc, #92]	; (8001a24 <CPU_IntSrcPendClr+0x64>)
 80019c8:	681b      	ldr	r3, [r3, #0]
            if (pos < pos_max) {                                /* See Note #3.                                         */
 80019ca:	3301      	adds	r3, #1
 80019cc:	f003 031f 	and.w	r3, r3, #31
 80019d0:	015b      	lsls	r3, r3, #5
 80019d2:	3310      	adds	r3, #16
 80019d4:	b2db      	uxtb	r3, r3
 80019d6:	4298      	cmp	r0, r3
 80019d8:	d300      	bcc.n	80019dc <CPU_IntSrcPendClr+0x1c>
 80019da:	bd38      	pop	{r3, r4, r5, pc}
                 group = (pos - 16) / 32;
 80019dc:	f1a0 0510 	sub.w	r5, r0, #16
 80019e0:	4604      	mov	r4, r0
                 nbr   = (pos - 16) % 32;

                 CPU_CRITICAL_ENTER();
 80019e2:	f7ff fec7 	bl	8001774 <CPU_SR_Save>
                 CPU_REG_NVIC_CLRPEND(group) = DEF_BIT(nbr);
 80019e6:	462b      	mov	r3, r5
 80019e8:	2d00      	cmp	r5, #0
 80019ea:	bfb8      	it	lt
 80019ec:	f104 030f 	addlt.w	r3, r4, #15
 80019f0:	4a0d      	ldr	r2, [pc, #52]	; (8001a28 <CPU_IntSrcPendClr+0x68>)
 80019f2:	115b      	asrs	r3, r3, #5
 80019f4:	f103 2338 	add.w	r3, r3, #939538432	; 0x38003800
 80019f8:	402a      	ands	r2, r5
 80019fa:	33a0      	adds	r3, #160	; 0xa0
 80019fc:	2a00      	cmp	r2, #0
 80019fe:	ea4f 0383 	mov.w	r3, r3, lsl #2
 8001a02:	db09      	blt.n	8001a18 <CPU_IntSrcPendClr+0x58>
 8001a04:	b2d2      	uxtb	r2, r2
 8001a06:	2101      	movs	r1, #1
 8001a08:	fa01 f202 	lsl.w	r2, r1, r2
 8001a0c:	601a      	str	r2, [r3, #0]
                 CPU_CRITICAL_EXIT();
             }
             break;
    }
}
 8001a0e:	e8bd 4038 	ldmia.w	sp!, {r3, r4, r5, lr}
                 group = (pos - 16) / 32;
                 nbr   = (pos - 16) % 32;

                 CPU_CRITICAL_ENTER();
                 CPU_REG_NVIC_CLRPEND(group) = DEF_BIT(nbr);
                 CPU_CRITICAL_EXIT();
 8001a12:	f7ff beb3 	b.w	800177c <CPU_SR_Restore>
 8001a16:	4770      	bx	lr
            if (pos < pos_max) {                                /* See Note #3.                                         */
                 group = (pos - 16) / 32;
                 nbr   = (pos - 16) % 32;

                 CPU_CRITICAL_ENTER();
                 CPU_REG_NVIC_CLRPEND(group) = DEF_BIT(nbr);
 8001a18:	3a01      	subs	r2, #1
 8001a1a:	f062 021f 	orn	r2, r2, #31
 8001a1e:	3201      	adds	r2, #1
 8001a20:	e7f0      	b.n	8001a04 <CPU_IntSrcPendClr+0x44>
 8001a22:	bf00      	nop
 8001a24:	e000e004 	.word	0xe000e004
 8001a28:	8000001f 	.word	0x8000001f

08001a2c <CPU_IntSrcPrioSet>:
*********************************************************************************************************
*/

void  CPU_IntSrcPrioSet (CPU_INT08U  pos,
                         CPU_INT08U  prio)
{
 8001a2c:	b570      	push	{r4, r5, r6, lr}
 8001a2e:	4604      	mov	r4, r0
    CPU_INT32U  prio_32;
    CPU_INT32U  temp;
    CPU_SR_ALLOC();


    prio_32 = CPU_RevBits((CPU_INT08U)prio);
 8001a30:	4608      	mov	r0, r1
 8001a32:	f7ff feb2 	bl	800179a <CPU_RevBits>
    prio    = (CPU_INT08U)(prio_32 >> (3 * DEF_OCTET_NBR_BITS));
 8001a36:	0e05      	lsrs	r5, r0, #24

    switch (pos) {
 8001a38:	2c0f      	cmp	r4, #15
 8001a3a:	d809      	bhi.n	8001a50 <CPU_IntSrcPrioSet+0x24>
 8001a3c:	e8df f004 	tbb	[pc, r4]
 8001a40:	12121212 	.word	0x12121212
 8001a44:	12392c20 	.word	0x12392c20
 8001a48:	46121212 	.word	0x46121212
 8001a4c:	134e124a 	.word	0x134e124a
             break;


                                                                /* ---------------- EXTERNAL INTERRUPT ---------------- */
        default:
            pos_max = CPU_INT_SRC_POS_MAX;
 8001a50:	4b37      	ldr	r3, [pc, #220]	; (8001b30 <CPU_IntSrcPrioSet+0x104>)
 8001a52:	681b      	ldr	r3, [r3, #0]
            if (pos < pos_max) {                                /* See Note #3.                                         */
 8001a54:	3301      	adds	r3, #1
 8001a56:	f003 031f 	and.w	r3, r3, #31
 8001a5a:	015b      	lsls	r3, r3, #5
 8001a5c:	3310      	adds	r3, #16
 8001a5e:	b2db      	uxtb	r3, r3
 8001a60:	429c      	cmp	r4, r3
 8001a62:	d33f      	bcc.n	8001ae4 <CPU_IntSrcPrioSet+0xb8>
 8001a64:	bd70      	pop	{r4, r5, r6, pc}
             CPU_REG_NVIC_SHPRI3  = temp;
             CPU_CRITICAL_EXIT();
             break;

        case CPU_INT_SYSTICK:                                   /* SysTick.                                             */
             CPU_CRITICAL_ENTER();
 8001a66:	f7ff fe85 	bl	8001774 <CPU_SR_Save>
             temp                 = CPU_REG_NVIC_SHPRI3;
 8001a6a:	4a32      	ldr	r2, [pc, #200]	; (8001b34 <CPU_IntSrcPrioSet+0x108>)
 8001a6c:	6813      	ldr	r3, [r2, #0]
             temp                &= ~((CPU_INT32U)DEF_OCTET_MASK << (3 * DEF_OCTET_NBR_BITS));
 8001a6e:	f023 437f 	bic.w	r3, r3, #4278190080	; 0xff000000
             temp                |=  (prio                       << (3 * DEF_OCTET_NBR_BITS));
 8001a72:	ea43 6505 	orr.w	r5, r3, r5, lsl #24
             CPU_REG_NVIC_SHPRI3  = temp;
 8001a76:	6015      	str	r5, [r2, #0]
                 CPU_REG_NVIC_PRIO(group) = temp;
                 CPU_CRITICAL_EXIT();
             }
             break;
    }
}
 8001a78:	e8bd 4070 	ldmia.w	sp!, {r4, r5, r6, lr}
             CPU_CRITICAL_ENTER();
             temp                 = CPU_REG_NVIC_SHPRI3;
             temp                &= ~((CPU_INT32U)DEF_OCTET_MASK << (3 * DEF_OCTET_NBR_BITS));
             temp                |=  (prio                       << (3 * DEF_OCTET_NBR_BITS));
             CPU_REG_NVIC_SHPRI3  = temp;
             CPU_CRITICAL_EXIT();
 8001a7c:	f7ff be7e 	b.w	800177c <CPU_SR_Restore>
        case CPU_INT_NMI:                                       /* Non-maskable interrupt (see Note #2).                */
        case CPU_INT_HFAULT:                                    /* Hard fault (see Note #2).                            */
             break;

        case CPU_INT_MEM:                                       /* Memory management.                                   */
             CPU_CRITICAL_ENTER();
 8001a80:	f7ff fe78 	bl	8001774 <CPU_SR_Save>
             temp                 = CPU_REG_NVIC_SHPRI1;
 8001a84:	4a2c      	ldr	r2, [pc, #176]	; (8001b38 <CPU_IntSrcPrioSet+0x10c>)
             CPU_CRITICAL_EXIT();
             break;

        case CPU_INT_DBGMON:                                    /* Debug monitor.                                       */
             CPU_CRITICAL_ENTER();
             temp                = CPU_REG_NVIC_SHPRI3;
 8001a86:	6813      	ldr	r3, [r2, #0]
             temp                &= ~(DEF_OCTET_MASK << (0 * DEF_OCTET_NBR_BITS));
 8001a88:	f023 03ff 	bic.w	r3, r3, #255	; 0xff
             temp                |=  (prio           << (0 * DEF_OCTET_NBR_BITS));
 8001a8c:	431d      	orrs	r5, r3
             CPU_REG_NVIC_SHPRI3  = temp;
 8001a8e:	6015      	str	r5, [r2, #0]
                 CPU_REG_NVIC_PRIO(group) = temp;
                 CPU_CRITICAL_EXIT();
             }
             break;
    }
}
 8001a90:	e8bd 4070 	ldmia.w	sp!, {r4, r5, r6, lr}
             CPU_CRITICAL_ENTER();
             temp                = CPU_REG_NVIC_SHPRI3;
             temp                &= ~(DEF_OCTET_MASK << (0 * DEF_OCTET_NBR_BITS));
             temp                |=  (prio           << (0 * DEF_OCTET_NBR_BITS));
             CPU_REG_NVIC_SHPRI3  = temp;
             CPU_CRITICAL_EXIT();
 8001a94:	f7ff be72 	b.w	800177c <CPU_SR_Restore>
             CPU_REG_NVIC_SHPRI1  = temp;
             CPU_CRITICAL_EXIT();
             break;

        case CPU_INT_BUSFAULT:                                  /* Bus fault.                                           */
             CPU_CRITICAL_ENTER();
 8001a98:	f7ff fe6c 	bl	8001774 <CPU_SR_Save>
             temp                 = CPU_REG_NVIC_SHPRI1;
 8001a9c:	4a26      	ldr	r2, [pc, #152]	; (8001b38 <CPU_IntSrcPrioSet+0x10c>)
 8001a9e:	6813      	ldr	r3, [r2, #0]
             temp                &= ~(DEF_OCTET_MASK << (1 * DEF_OCTET_NBR_BITS));
 8001aa0:	f423 437f 	bic.w	r3, r3, #65280	; 0xff00
             temp                |=  (prio           << (1 * DEF_OCTET_NBR_BITS));
 8001aa4:	ea43 2505 	orr.w	r5, r3, r5, lsl #8
             CPU_REG_NVIC_SHPRI1  = temp;
 8001aa8:	6015      	str	r5, [r2, #0]
                 CPU_REG_NVIC_PRIO(group) = temp;
                 CPU_CRITICAL_EXIT();
             }
             break;
    }
}
 8001aaa:	e8bd 4070 	ldmia.w	sp!, {r4, r5, r6, lr}
             CPU_CRITICAL_ENTER();
             temp                 = CPU_REG_NVIC_SHPRI1;
             temp                &= ~(DEF_OCTET_MASK << (1 * DEF_OCTET_NBR_BITS));
             temp                |=  (prio           << (1 * DEF_OCTET_NBR_BITS));
             CPU_REG_NVIC_SHPRI1  = temp;
             CPU_CRITICAL_EXIT();
 8001aae:	f7ff be65 	b.w	800177c <CPU_SR_Restore>
             break;

        case CPU_INT_USAGEFAULT:                                /* Usage fault.                                         */
             CPU_CRITICAL_ENTER();
 8001ab2:	f7ff fe5f 	bl	8001774 <CPU_SR_Save>
             temp                 = CPU_REG_NVIC_SHPRI1;
 8001ab6:	4a20      	ldr	r2, [pc, #128]	; (8001b38 <CPU_IntSrcPrioSet+0x10c>)
             CPU_CRITICAL_EXIT();
             break;

        case CPU_INT_PENDSV:                                    /* PendSV.                                              */
             CPU_CRITICAL_ENTER();
             temp                 = CPU_REG_NVIC_SHPRI3;
 8001ab8:	6813      	ldr	r3, [r2, #0]
             temp                &= ~(DEF_OCTET_MASK << (2 * DEF_OCTET_NBR_BITS));
 8001aba:	f423 037f 	bic.w	r3, r3, #16711680	; 0xff0000
             temp                |=  (prio           << (2 * DEF_OCTET_NBR_BITS));
 8001abe:	ea43 4505 	orr.w	r5, r3, r5, lsl #16
             CPU_REG_NVIC_SHPRI3  = temp;
 8001ac2:	6015      	str	r5, [r2, #0]
                 CPU_REG_NVIC_PRIO(group) = temp;
                 CPU_CRITICAL_EXIT();
             }
             break;
    }
}
 8001ac4:	e8bd 4070 	ldmia.w	sp!, {r4, r5, r6, lr}
             CPU_CRITICAL_ENTER();
             temp                 = CPU_REG_NVIC_SHPRI3;
             temp                &= ~(DEF_OCTET_MASK << (2 * DEF_OCTET_NBR_BITS));
             temp                |=  (prio           << (2 * DEF_OCTET_NBR_BITS));
             CPU_REG_NVIC_SHPRI3  = temp;
             CPU_CRITICAL_EXIT();
 8001ac8:	f7ff be58 	b.w	800177c <CPU_SR_Restore>
             CPU_REG_NVIC_SHPRI1  = temp;
             CPU_CRITICAL_EXIT();
             break;

        case CPU_INT_SVCALL:                                    /* SVCall.                                              */
             CPU_CRITICAL_ENTER();
 8001acc:	f7ff fe52 	bl	8001774 <CPU_SR_Save>
             temp                 = CPU_REG_NVIC_SHPRI2;
 8001ad0:	4a1a      	ldr	r2, [pc, #104]	; (8001b3c <CPU_IntSrcPrioSet+0x110>)
 8001ad2:	e7cb      	b.n	8001a6c <CPU_IntSrcPrioSet+0x40>
             CPU_REG_NVIC_SHPRI2  = temp;
             CPU_CRITICAL_EXIT();
             break;

        case CPU_INT_DBGMON:                                    /* Debug monitor.                                       */
             CPU_CRITICAL_ENTER();
 8001ad4:	f7ff fe4e 	bl	8001774 <CPU_SR_Save>
             temp                = CPU_REG_NVIC_SHPRI3;
 8001ad8:	4a16      	ldr	r2, [pc, #88]	; (8001b34 <CPU_IntSrcPrioSet+0x108>)
 8001ada:	e7d4      	b.n	8001a86 <CPU_IntSrcPrioSet+0x5a>
             CPU_REG_NVIC_SHPRI3  = temp;
             CPU_CRITICAL_EXIT();
             break;

        case CPU_INT_PENDSV:                                    /* PendSV.                                              */
             CPU_CRITICAL_ENTER();
 8001adc:	f7ff fe4a 	bl	8001774 <CPU_SR_Save>
             temp                 = CPU_REG_NVIC_SHPRI3;
 8001ae0:	4a14      	ldr	r2, [pc, #80]	; (8001b34 <CPU_IntSrcPrioSet+0x108>)
 8001ae2:	e7e9      	b.n	8001ab8 <CPU_IntSrcPrioSet+0x8c>

                                                                /* ---------------- EXTERNAL INTERRUPT ---------------- */
        default:
            pos_max = CPU_INT_SRC_POS_MAX;
            if (pos < pos_max) {                                /* See Note #3.                                         */
                 group                    = (pos - 16) / 4;
 8001ae4:	f1a4 0610 	sub.w	r6, r4, #16
                 nbr                      = (pos - 16) % 4;

                 CPU_CRITICAL_ENTER();
 8001ae8:	f7ff fe44 	bl	8001774 <CPU_SR_Save>
                 temp                     = CPU_REG_NVIC_PRIO(group);
 8001aec:	4632      	mov	r2, r6
 8001aee:	2e00      	cmp	r6, #0
 8001af0:	bfb8      	it	lt
 8001af2:	f1a4 020d 	sublt.w	r2, r4, #13
                 temp                    &= ~(DEF_OCTET_MASK << (nbr * DEF_OCTET_NBR_BITS));
 8001af6:	4b12      	ldr	r3, [pc, #72]	; (8001b40 <CPU_IntSrcPrioSet+0x114>)
            if (pos < pos_max) {                                /* See Note #3.                                         */
                 group                    = (pos - 16) / 4;
                 nbr                      = (pos - 16) % 4;

                 CPU_CRITICAL_ENTER();
                 temp                     = CPU_REG_NVIC_PRIO(group);
 8001af8:	f402 727f 	and.w	r2, r2, #1020	; 0x3fc
 8001afc:	f102 4260 	add.w	r2, r2, #3758096384	; 0xe0000000
                 temp                    &= ~(DEF_OCTET_MASK << (nbr * DEF_OCTET_NBR_BITS));
 8001b00:	4033      	ands	r3, r6
            if (pos < pos_max) {                                /* See Note #3.                                         */
                 group                    = (pos - 16) / 4;
                 nbr                      = (pos - 16) % 4;

                 CPU_CRITICAL_ENTER();
                 temp                     = CPU_REG_NVIC_PRIO(group);
 8001b02:	f502 4264 	add.w	r2, r2, #58368	; 0xe400
                 temp                    &= ~(DEF_OCTET_MASK << (nbr * DEF_OCTET_NBR_BITS));
 8001b06:	2b00      	cmp	r3, #0
            if (pos < pos_max) {                                /* See Note #3.                                         */
                 group                    = (pos - 16) / 4;
                 nbr                      = (pos - 16) % 4;

                 CPU_CRITICAL_ENTER();
                 temp                     = CPU_REG_NVIC_PRIO(group);
 8001b08:	6811      	ldr	r1, [r2, #0]
                 temp                    &= ~(DEF_OCTET_MASK << (nbr * DEF_OCTET_NBR_BITS));
 8001b0a:	db0c      	blt.n	8001b26 <CPU_IntSrcPrioSet+0xfa>
 8001b0c:	b2db      	uxtb	r3, r3
 8001b0e:	00db      	lsls	r3, r3, #3
 8001b10:	24ff      	movs	r4, #255	; 0xff
 8001b12:	409c      	lsls	r4, r3
                 temp                    |=  (prio           << (nbr * DEF_OCTET_NBR_BITS));
 8001b14:	409d      	lsls	r5, r3
                 group                    = (pos - 16) / 4;
                 nbr                      = (pos - 16) % 4;

                 CPU_CRITICAL_ENTER();
                 temp                     = CPU_REG_NVIC_PRIO(group);
                 temp                    &= ~(DEF_OCTET_MASK << (nbr * DEF_OCTET_NBR_BITS));
 8001b16:	ea21 0304 	bic.w	r3, r1, r4
                 temp                    |=  (prio           << (nbr * DEF_OCTET_NBR_BITS));
 8001b1a:	431d      	orrs	r5, r3
                 CPU_REG_NVIC_PRIO(group) = temp;
 8001b1c:	6015      	str	r5, [r2, #0]
                 CPU_CRITICAL_EXIT();
             }
             break;
    }
}
 8001b1e:	e8bd 4070 	ldmia.w	sp!, {r4, r5, r6, lr}
                 CPU_CRITICAL_ENTER();
                 temp                     = CPU_REG_NVIC_PRIO(group);
                 temp                    &= ~(DEF_OCTET_MASK << (nbr * DEF_OCTET_NBR_BITS));
                 temp                    |=  (prio           << (nbr * DEF_OCTET_NBR_BITS));
                 CPU_REG_NVIC_PRIO(group) = temp;
                 CPU_CRITICAL_EXIT();
 8001b22:	f7ff be2b 	b.w	800177c <CPU_SR_Restore>
                 group                    = (pos - 16) / 4;
                 nbr                      = (pos - 16) % 4;

                 CPU_CRITICAL_ENTER();
                 temp                     = CPU_REG_NVIC_PRIO(group);
                 temp                    &= ~(DEF_OCTET_MASK << (nbr * DEF_OCTET_NBR_BITS));
 8001b26:	3b01      	subs	r3, #1
 8001b28:	f063 0303 	orn	r3, r3, #3
 8001b2c:	3301      	adds	r3, #1
 8001b2e:	e7ed      	b.n	8001b0c <CPU_IntSrcPrioSet+0xe0>
 8001b30:	e000e004 	.word	0xe000e004
 8001b34:	e000ed20 	.word	0xe000ed20
 8001b38:	e000ed18 	.word	0xe000ed18
 8001b3c:	e000ed1c 	.word	0xe000ed1c
 8001b40:	80000003 	.word	0x80000003

08001b44 <CPU_IntSrcPrioGet>:
*               (3) See 'CPU_IntSrcDis()      Note #3'.
*********************************************************************************************************
*/

CPU_INT16S  CPU_IntSrcPrioGet (CPU_INT08U  pos)
{
 8001b44:	b538      	push	{r3, r4, r5, lr}
    CPU_INT32U  prio_32;
    CPU_INT32U  temp;
    CPU_SR_ALLOC();


    switch (pos) {
 8001b46:	280f      	cmp	r0, #15
 8001b48:	d809      	bhi.n	8001b5e <CPU_IntSrcPrioGet+0x1a>
 8001b4a:	e8df f000 	tbb	[pc, r0]
 8001b4e:	3413      	.short	0x3413
 8001b50:	18535015 	.word	0x18535015
 8001b54:	13131325 	.word	0x13131325
 8001b58:	13484013 	.word	0x13484013
 8001b5c:	2c37      	.short	0x2c37
             break;


                                                                /* ---------------- EXTERNAL INTERRUPT ---------------- */
        default:
            pos_max = CPU_INT_SRC_POS_MAX;
 8001b5e:	4b39      	ldr	r3, [pc, #228]	; (8001c44 <CPU_IntSrcPrioGet+0x100>)
 8001b60:	4604      	mov	r4, r0
 8001b62:	681b      	ldr	r3, [r3, #0]
            if (pos < pos_max) {                                /* See Note #3.                                         */
 8001b64:	3301      	adds	r3, #1
 8001b66:	f003 031f 	and.w	r3, r3, #31
 8001b6a:	015b      	lsls	r3, r3, #5
 8001b6c:	3310      	adds	r3, #16
 8001b6e:	b2db      	uxtb	r3, r3
 8001b70:	4298      	cmp	r0, r3
 8001b72:	d347      	bcc.n	8001c04 <CPU_IntSrcPrioGet+0xc0>
                 temp  = CPU_REG_NVIC_PRIO(group);
                 CPU_CRITICAL_EXIT();

                 prio  = (temp >> (nbr * DEF_OCTET_NBR_BITS)) & DEF_OCTET_MASK;
             } else {
                 prio  = DEF_INT_16S_MIN_VAL;
 8001b74:	4834      	ldr	r0, [pc, #208]	; (8001c48 <CPU_IntSrcPrioGet+0x104>)
        prio_32 = CPU_RevBits((CPU_INT32U)prio);
        prio    = (CPU_INT16S)(prio_32 >> (3 * DEF_OCTET_NBR_BITS));
    }

    return (prio);
}
 8001b76:	bd38      	pop	{r3, r4, r5, pc}
        case CPU_INT_RESET:                                     /* Reset (see Note #2).                                 */
             prio = -3;
             break;

        case CPU_INT_NMI:                                       /* Non-maskable interrupt (see Note #2).                */
             prio = -2;
 8001b78:	f06f 0001 	mvn.w	r0, #1
 8001b7c:	bd38      	pop	{r3, r4, r5, pc}
             CPU_CRITICAL_EXIT();
             break;


        case CPU_INT_BUSFAULT:                                  /* Bus fault.                                           */
             CPU_CRITICAL_ENTER();
 8001b7e:	f7ff fdf9 	bl	8001774 <CPU_SR_Save>
             temp = CPU_REG_NVIC_SHPRI1;
 8001b82:	4b32      	ldr	r3, [pc, #200]	; (8001c4c <CPU_IntSrcPrioGet+0x108>)
 8001b84:	681c      	ldr	r4, [r3, #0]
             prio = (temp >> (1 * DEF_OCTET_NBR_BITS)) & DEF_OCTET_MASK;
 8001b86:	f3c4 2407 	ubfx	r4, r4, #8, #8
             CPU_CRITICAL_EXIT();
 8001b8a:	f7ff fdf7 	bl	800177c <CPU_SR_Restore>
             }
             break;
    }

    if (prio >= 0) {
        prio_32 = CPU_RevBits((CPU_INT32U)prio);
 8001b8e:	4620      	mov	r0, r4
 8001b90:	f7ff fe03 	bl	800179a <CPU_RevBits>
        prio    = (CPU_INT16S)(prio_32 >> (3 * DEF_OCTET_NBR_BITS));
 8001b94:	0e00      	lsrs	r0, r0, #24
 8001b96:	bd38      	pop	{r3, r4, r5, pc}
             CPU_CRITICAL_EXIT();
             break;


        case CPU_INT_USAGEFAULT:                                /* Usage fault.                                         */
             CPU_CRITICAL_ENTER();
 8001b98:	f7ff fdec 	bl	8001774 <CPU_SR_Save>
             temp = CPU_REG_NVIC_SHPRI1;
 8001b9c:	4b2b      	ldr	r3, [pc, #172]	; (8001c4c <CPU_IntSrcPrioGet+0x108>)
 8001b9e:	681c      	ldr	r4, [r3, #0]
             prio = (temp >> (2 * DEF_OCTET_NBR_BITS)) & DEF_OCTET_MASK;
 8001ba0:	f3c4 4407 	ubfx	r4, r4, #16, #8
             break;
 8001ba4:	e7f3      	b.n	8001b8e <CPU_IntSrcPrioGet+0x4a>
             prio = (temp >> (2 * DEF_OCTET_NBR_BITS)) & DEF_OCTET_MASK;
             CPU_CRITICAL_EXIT();
             break;

        case CPU_INT_SYSTICK:                                   /* SysTick.                                             */
             CPU_CRITICAL_ENTER();
 8001ba6:	f7ff fde5 	bl	8001774 <CPU_SR_Save>
             temp = CPU_REG_NVIC_SHPRI3;
 8001baa:	4b29      	ldr	r3, [pc, #164]	; (8001c50 <CPU_IntSrcPrioGet+0x10c>)
 8001bac:	681c      	ldr	r4, [r3, #0]
             prio = (temp >> (3 * DEF_OCTET_NBR_BITS)) & DEF_OCTET_MASK;
 8001bae:	0e24      	lsrs	r4, r4, #24
             CPU_CRITICAL_EXIT();
 8001bb0:	f7ff fde4 	bl	800177c <CPU_SR_Restore>
             break;
 8001bb4:	e7eb      	b.n	8001b8e <CPU_IntSrcPrioGet+0x4a>
             break;


                                                                /* ----------------- SYSTEM EXCEPTIONS ---------------- */
        case CPU_INT_RESET:                                     /* Reset (see Note #2).                                 */
             prio = -3;
 8001bb6:	f06f 0002 	mvn.w	r0, #2
 8001bba:	bd38      	pop	{r3, r4, r5, pc}
             prio = (temp >> (0 * DEF_OCTET_NBR_BITS)) & DEF_OCTET_MASK;
             CPU_CRITICAL_EXIT();
             break;

        case CPU_INT_PENDSV:                                    /* PendSV.                                              */
             CPU_CRITICAL_ENTER();
 8001bbc:	f7ff fdda 	bl	8001774 <CPU_SR_Save>
             temp = CPU_REG_NVIC_SHPRI3;
 8001bc0:	4b23      	ldr	r3, [pc, #140]	; (8001c50 <CPU_IntSrcPrioGet+0x10c>)
 8001bc2:	681c      	ldr	r4, [r3, #0]
             prio = (temp >> (2 * DEF_OCTET_NBR_BITS)) & DEF_OCTET_MASK;
 8001bc4:	f3c4 4407 	ubfx	r4, r4, #16, #8
             CPU_CRITICAL_EXIT();
 8001bc8:	f7ff fdd8 	bl	800177c <CPU_SR_Restore>
             break;
 8001bcc:	e7df      	b.n	8001b8e <CPU_IntSrcPrioGet+0x4a>
             temp = CPU_REG_NVIC_SHPRI1;
             prio = (temp >> (2 * DEF_OCTET_NBR_BITS)) & DEF_OCTET_MASK;
             break;

        case CPU_INT_SVCALL:                                    /* SVCall.                                              */
             CPU_CRITICAL_ENTER();
 8001bce:	f7ff fdd1 	bl	8001774 <CPU_SR_Save>
             temp = CPU_REG_NVIC_SHPRI2;
 8001bd2:	4b20      	ldr	r3, [pc, #128]	; (8001c54 <CPU_IntSrcPrioGet+0x110>)
 8001bd4:	681c      	ldr	r4, [r3, #0]
             prio = (temp >> (3 * DEF_OCTET_NBR_BITS)) & DEF_OCTET_MASK;
 8001bd6:	0e24      	lsrs	r4, r4, #24
             CPU_CRITICAL_EXIT();
 8001bd8:	f7ff fdd0 	bl	800177c <CPU_SR_Restore>
             break;
 8001bdc:	e7d7      	b.n	8001b8e <CPU_IntSrcPrioGet+0x4a>

        case CPU_INT_DBGMON:                                    /* Debug monitor.                                       */
             CPU_CRITICAL_ENTER();
 8001bde:	f7ff fdc9 	bl	8001774 <CPU_SR_Save>
             temp = CPU_REG_NVIC_SHPRI3;
 8001be2:	4b1b      	ldr	r3, [pc, #108]	; (8001c50 <CPU_IntSrcPrioGet+0x10c>)
 8001be4:	681c      	ldr	r4, [r3, #0]
             prio = (temp >> (0 * DEF_OCTET_NBR_BITS)) & DEF_OCTET_MASK;
 8001be6:	b2e4      	uxtb	r4, r4
             CPU_CRITICAL_EXIT();
 8001be8:	f7ff fdc8 	bl	800177c <CPU_SR_Restore>
             break;
 8001bec:	e7cf      	b.n	8001b8e <CPU_IntSrcPrioGet+0x4a>
        case CPU_INT_NMI:                                       /* Non-maskable interrupt (see Note #2).                */
             prio = -2;
             break;

        case CPU_INT_HFAULT:                                    /* Hard fault (see Note #2).                            */
             prio = -1;
 8001bee:	f04f 30ff 	mov.w	r0, #4294967295
             break;
 8001bf2:	bd38      	pop	{r3, r4, r5, pc}


        case CPU_INT_MEM:                                       /* Memory management.                                   */
             CPU_CRITICAL_ENTER();
 8001bf4:	f7ff fdbe 	bl	8001774 <CPU_SR_Save>
             temp = CPU_REG_NVIC_SHPRI1;
 8001bf8:	4b14      	ldr	r3, [pc, #80]	; (8001c4c <CPU_IntSrcPrioGet+0x108>)
 8001bfa:	681c      	ldr	r4, [r3, #0]
             prio = (temp >> (0 * DEF_OCTET_NBR_BITS)) & DEF_OCTET_MASK;
 8001bfc:	b2e4      	uxtb	r4, r4
             CPU_CRITICAL_EXIT();
 8001bfe:	f7ff fdbd 	bl	800177c <CPU_SR_Restore>
             break;
 8001c02:	e7c4      	b.n	8001b8e <CPU_IntSrcPrioGet+0x4a>

                                                                /* ---------------- EXTERNAL INTERRUPT ---------------- */
        default:
            pos_max = CPU_INT_SRC_POS_MAX;
            if (pos < pos_max) {                                /* See Note #3.                                         */
                 group = (pos - 16) / 4;
 8001c04:	f1a0 0510 	sub.w	r5, r0, #16
                 nbr   = (pos - 16) % 4;

                 CPU_CRITICAL_ENTER();
 8001c08:	f7ff fdb4 	bl	8001774 <CPU_SR_Save>
                 temp  = CPU_REG_NVIC_PRIO(group);
 8001c0c:	462b      	mov	r3, r5
 8001c0e:	2d00      	cmp	r5, #0
 8001c10:	bfb8      	it	lt
 8001c12:	f1a4 030d 	sublt.w	r3, r4, #13
 8001c16:	f403 737f 	and.w	r3, r3, #1020	; 0x3fc
 8001c1a:	f103 4360 	add.w	r3, r3, #3758096384	; 0xe0000000
 8001c1e:	f503 4364 	add.w	r3, r3, #58368	; 0xe400
 8001c22:	681c      	ldr	r4, [r3, #0]
                 CPU_CRITICAL_EXIT();
 8001c24:	f7ff fdaa 	bl	800177c <CPU_SR_Restore>

                 prio  = (temp >> (nbr * DEF_OCTET_NBR_BITS)) & DEF_OCTET_MASK;
 8001c28:	4b0b      	ldr	r3, [pc, #44]	; (8001c58 <CPU_IntSrcPrioGet+0x114>)
 8001c2a:	402b      	ands	r3, r5
 8001c2c:	2b00      	cmp	r3, #0
 8001c2e:	db04      	blt.n	8001c3a <CPU_IntSrcPrioGet+0xf6>
 8001c30:	b2db      	uxtb	r3, r3
 8001c32:	00db      	lsls	r3, r3, #3
 8001c34:	40dc      	lsrs	r4, r3
 8001c36:	b2e4      	uxtb	r4, r4
 8001c38:	e7a9      	b.n	8001b8e <CPU_IntSrcPrioGet+0x4a>
 8001c3a:	3b01      	subs	r3, #1
 8001c3c:	f063 0303 	orn	r3, r3, #3
 8001c40:	3301      	adds	r3, #1
 8001c42:	e7f5      	b.n	8001c30 <CPU_IntSrcPrioGet+0xec>
 8001c44:	e000e004 	.word	0xe000e004
 8001c48:	ffff8000 	.word	0xffff8000
 8001c4c:	e000ed18 	.word	0xe000ed18
 8001c50:	e000ed20 	.word	0xe000ed20
 8001c54:	e000ed1c 	.word	0xe000ed1c
 8001c58:	80000003 	.word	0x80000003

08001c5c <CPU_SW_Exception>:
*                   See also 'cpu_core.h  CPU_SW_EXCEPTION()  Note #1'.
*********************************************************************************************************
*/

void  CPU_SW_Exception (void)
{
 8001c5c:	e7fe      	b.n	8001c5c <CPU_SW_Exception>
 8001c5e:	bf00      	nop

08001c60 <CPU_NameClr>:
*********************************************************************************************************
*/

#if (CPU_CFG_NAME_EN == DEF_ENABLED)
void  CPU_NameClr (void)
{
 8001c60:	b510      	push	{r4, lr}
    CPU_SR_ALLOC();


    CPU_CRITICAL_ENTER();
 8001c62:	f7ff fd87 	bl	8001774 <CPU_SR_Save>
 8001c66:	4604      	mov	r4, r0
    Mem_Clr((void     *)&CPU_Name[0],
 8001c68:	2110      	movs	r1, #16
 8001c6a:	4804      	ldr	r0, [pc, #16]	; (8001c7c <CPU_NameClr+0x1c>)
 8001c6c:	f000 fad6 	bl	800221c <Mem_Clr>
            (CPU_SIZE_T) CPU_CFG_NAME_SIZE);
    CPU_CRITICAL_EXIT();
 8001c70:	4620      	mov	r0, r4
}
 8001c72:	e8bd 4010 	ldmia.w	sp!, {r4, lr}


    CPU_CRITICAL_ENTER();
    Mem_Clr((void     *)&CPU_Name[0],
            (CPU_SIZE_T) CPU_CFG_NAME_SIZE);
    CPU_CRITICAL_EXIT();
 8001c76:	f7ff bd81 	b.w	800177c <CPU_SR_Restore>
 8001c7a:	bf00      	nop
 8001c7c:	2000b2c8 	.word	0x2000b2c8

08001c80 <CPU_Init>:
*                                                   & other CPU interrupts disabled time measurement functions
*********************************************************************************************************
*/

void  CPU_Init (void)
{
 8001c80:	b508      	push	{r3, lr}
#endif


                                                                /* ----------------- INIT CPU TS TMR ------------------ */
#if (CPU_CFG_TS_TMR_EN == DEF_ENABLED)
    CPU_TS_TmrFreq_Hz   = 0u;                                   /* Init/clr     ts tmr freq (see Note #1a).             */
 8001c82:	4b04      	ldr	r3, [pc, #16]	; (8001c94 <CPU_Init+0x14>)
 8001c84:	2200      	movs	r2, #0
 8001c86:	601a      	str	r2, [r3, #0]
    CPU_TS_TmrInit();                                           /* Init & start ts tmr      (see Note #1b).             */
 8001c88:	f7fe ff62 	bl	8000b50 <CPU_TS_TmrInit>

                                                                /* ------------------ INIT CPU NAME ------------------- */
#if (CPU_CFG_NAME_EN == DEF_ENABLED)
     CPU_NameInit();
#endif
}
 8001c8c:	e8bd 4008 	ldmia.w	sp!, {r3, lr}
*/

#if (CPU_CFG_NAME_EN == DEF_ENABLED)
static  void  CPU_NameInit (void)
{
    CPU_NameClr();
 8001c90:	f7ff bfe6 	b.w	8001c60 <CPU_NameClr>
 8001c94:	2000b2c4 	.word	0x2000b2c4

08001c98 <CPU_NameGet>:
                   CPU_ERR   *p_err)
{
    CPU_SR_ALLOC();


    if (p_err == (CPU_ERR *)0) {
 8001c98:	b189      	cbz	r1, 8001cbe <CPU_NameGet+0x26>
        CPU_SW_EXCEPTION(;);
    }

    if (p_name == (CPU_CHAR *)0) {
 8001c9a:	b188      	cbz	r0, 8001cc0 <CPU_NameGet+0x28>
*/

#if (CPU_CFG_NAME_EN == DEF_ENABLED)
void  CPU_NameGet (CPU_CHAR  *p_name,
                   CPU_ERR   *p_err)
{
 8001c9c:	b570      	push	{r4, r5, r6, lr}
 8001c9e:	460c      	mov	r4, r1
 8001ca0:	4605      	mov	r5, r0
    if (p_name == (CPU_CHAR *)0) {
       *p_err = CPU_ERR_NULL_PTR;
        return;
    }

    CPU_CRITICAL_ENTER();
 8001ca2:	f7ff fd67 	bl	8001774 <CPU_SR_Save>
 8001ca6:	4606      	mov	r6, r0
   (void)Str_Copy_N(p_name,
 8001ca8:	2210      	movs	r2, #16
 8001caa:	4907      	ldr	r1, [pc, #28]	; (8001cc8 <CPU_NameGet+0x30>)
 8001cac:	4628      	mov	r0, r5
 8001cae:	f001 fb1b 	bl	80032e8 <Str_Copy_N>
